Archive member included because of file (symbol)

c:/develop/altera/11.1/nios2eds/bin/gnu/h-i686-mingw32/bin/../lib/gcc/nios2-elf/4.1.2/../../../../nios2-elf/lib\libm.a(lib_a-s_atan.o)
                              obj/default/lua/lmathlib.o (atan)
c:/develop/altera/11.1/nios2eds/bin/gnu/h-i686-mingw32/bin/../lib/gcc/nios2-elf/4.1.2/../../../../nios2-elf/lib\libm.a(lib_a-s_ceil.o)
                              obj/default/lua/lmathlib.o (ceil)
c:/develop/altera/11.1/nios2eds/bin/gnu/h-i686-mingw32/bin/../lib/gcc/nios2-elf/4.1.2/../../../../nios2-elf/lib\libm.a(lib_a-s_cos.o)
                              obj/default/lua/lmathlib.o (cos)
c:/develop/altera/11.1/nios2eds/bin/gnu/h-i686-mingw32/bin/../lib/gcc/nios2-elf/4.1.2/../../../../nios2-elf/lib\libm.a(lib_a-s_fabs.o)
                              c:/develop/altera/11.1/nios2eds/bin/gnu/h-i686-mingw32/bin/../lib/gcc/nios2-elf/4.1.2/../../../../nios2-elf/lib\libm.a(lib_a-s_atan.o) (fabs)
c:/develop/altera/11.1/nios2eds/bin/gnu/h-i686-mingw32/bin/../lib/gcc/nios2-elf/4.1.2/../../../../nios2-elf/lib\libm.a(lib_a-s_floor.o)
                              obj/default/lua/lmathlib.o (floor)
c:/develop/altera/11.1/nios2eds/bin/gnu/h-i686-mingw32/bin/../lib/gcc/nios2-elf/4.1.2/../../../../nios2-elf/lib\libm.a(lib_a-s_frexp.o)
                              obj/default/lua/lmathlib.o (frexp)
c:/develop/altera/11.1/nios2eds/bin/gnu/h-i686-mingw32/bin/../lib/gcc/nios2-elf/4.1.2/../../../../nios2-elf/lib\libm.a(lib_a-s_ldexp.o)
                              obj/default/lua/lmathlib.o (ldexp)
c:/develop/altera/11.1/nios2eds/bin/gnu/h-i686-mingw32/bin/../lib/gcc/nios2-elf/4.1.2/../../../../nios2-elf/lib\libm.a(lib_a-s_modf.o)
                              obj/default/lua/lmathlib.o (modf)
c:/develop/altera/11.1/nios2eds/bin/gnu/h-i686-mingw32/bin/../lib/gcc/nios2-elf/4.1.2/../../../../nios2-elf/lib\libm.a(lib_a-s_scalbn.o)
                              c:/develop/altera/11.1/nios2eds/bin/gnu/h-i686-mingw32/bin/../lib/gcc/nios2-elf/4.1.2/../../../../nios2-elf/lib\libm.a(lib_a-s_ldexp.o) (scalbn)
c:/develop/altera/11.1/nios2eds/bin/gnu/h-i686-mingw32/bin/../lib/gcc/nios2-elf/4.1.2/../../../../nios2-elf/lib\libm.a(lib_a-s_sin.o)
                              obj/default/lua/lmathlib.o (sin)
c:/develop/altera/11.1/nios2eds/bin/gnu/h-i686-mingw32/bin/../lib/gcc/nios2-elf/4.1.2/../../../../nios2-elf/lib\libm.a(lib_a-s_tan.o)
                              obj/default/lua/lmathlib.o (tan)
c:/develop/altera/11.1/nios2eds/bin/gnu/h-i686-mingw32/bin/../lib/gcc/nios2-elf/4.1.2/../../../../nios2-elf/lib\libm.a(lib_a-s_tanh.o)
                              obj/default/lua/lmathlib.o (tanh)
c:/develop/altera/11.1/nios2eds/bin/gnu/h-i686-mingw32/bin/../lib/gcc/nios2-elf/4.1.2/../../../../nios2-elf/lib\libm.a(lib_a-w_acos.o)
                              obj/default/lua/lmathlib.o (acos)
c:/develop/altera/11.1/nios2eds/bin/gnu/h-i686-mingw32/bin/../lib/gcc/nios2-elf/4.1.2/../../../../nios2-elf/lib\libm.a(lib_a-w_asin.o)
                              obj/default/lua/lmathlib.o (asin)
c:/develop/altera/11.1/nios2eds/bin/gnu/h-i686-mingw32/bin/../lib/gcc/nios2-elf/4.1.2/../../../../nios2-elf/lib\libm.a(lib_a-w_atan2.o)
                              obj/default/lua/lmathlib.o (atan2)
c:/develop/altera/11.1/nios2eds/bin/gnu/h-i686-mingw32/bin/../lib/gcc/nios2-elf/4.1.2/../../../../nios2-elf/lib\libm.a(lib_a-w_cosh.o)
                              obj/default/lua/lmathlib.o (cosh)
c:/develop/altera/11.1/nios2eds/bin/gnu/h-i686-mingw32/bin/../lib/gcc/nios2-elf/4.1.2/../../../../nios2-elf/lib\libm.a(lib_a-w_exp.o)
                              obj/default/lua/lmathlib.o (exp)
c:/develop/altera/11.1/nios2eds/bin/gnu/h-i686-mingw32/bin/../lib/gcc/nios2-elf/4.1.2/../../../../nios2-elf/lib\libm.a(lib_a-w_fmod.o)
                              obj/default/lua/lmathlib.o (fmod)
c:/develop/altera/11.1/nios2eds/bin/gnu/h-i686-mingw32/bin/../lib/gcc/nios2-elf/4.1.2/../../../../nios2-elf/lib\libm.a(lib_a-w_log.o)
                              obj/default/lua/lmathlib.o (log)
c:/develop/altera/11.1/nios2eds/bin/gnu/h-i686-mingw32/bin/../lib/gcc/nios2-elf/4.1.2/../../../../nios2-elf/lib\libm.a(lib_a-w_log10.o)
                              obj/default/lua/lmathlib.o (log10)
c:/develop/altera/11.1/nios2eds/bin/gnu/h-i686-mingw32/bin/../lib/gcc/nios2-elf/4.1.2/../../../../nios2-elf/lib\libm.a(lib_a-w_pow.o)
                              obj/default/lua/lmathlib.o (pow)
c:/develop/altera/11.1/nios2eds/bin/gnu/h-i686-mingw32/bin/../lib/gcc/nios2-elf/4.1.2/../../../../nios2-elf/lib\libm.a(lib_a-w_sinh.o)
                              obj/default/lua/lmathlib.o (sinh)
c:/develop/altera/11.1/nios2eds/bin/gnu/h-i686-mingw32/bin/../lib/gcc/nios2-elf/4.1.2/../../../../nios2-elf/lib\libm.a(lib_a-w_sqrt.o)
                              obj/default/lua/lmathlib.o (sqrt)
c:/develop/altera/11.1/nios2eds/bin/gnu/h-i686-mingw32/bin/../lib/gcc/nios2-elf/4.1.2/../../../../nios2-elf/lib\libm.a(lib_a-e_acos.o)
                              c:/develop/altera/11.1/nios2eds/bin/gnu/h-i686-mingw32/bin/../lib/gcc/nios2-elf/4.1.2/../../../../nios2-elf/lib\libm.a(lib_a-w_acos.o) (__ieee754_acos)
c:/develop/altera/11.1/nios2eds/bin/gnu/h-i686-mingw32/bin/../lib/gcc/nios2-elf/4.1.2/../../../../nios2-elf/lib\libm.a(lib_a-e_asin.o)
                              c:/develop/altera/11.1/nios2eds/bin/gnu/h-i686-mingw32/bin/../lib/gcc/nios2-elf/4.1.2/../../../../nios2-elf/lib\libm.a(lib_a-w_asin.o) (__ieee754_asin)
c:/develop/altera/11.1/nios2eds/bin/gnu/h-i686-mingw32/bin/../lib/gcc/nios2-elf/4.1.2/../../../../nios2-elf/lib\libm.a(lib_a-e_atan2.o)
                              c:/develop/altera/11.1/nios2eds/bin/gnu/h-i686-mingw32/bin/../lib/gcc/nios2-elf/4.1.2/../../../../nios2-elf/lib\libm.a(lib_a-w_atan2.o) (__ieee754_atan2)
c:/develop/altera/11.1/nios2eds/bin/gnu/h-i686-mingw32/bin/../lib/gcc/nios2-elf/4.1.2/../../../../nios2-elf/lib\libm.a(lib_a-e_cosh.o)
                              c:/develop/altera/11.1/nios2eds/bin/gnu/h-i686-mingw32/bin/../lib/gcc/nios2-elf/4.1.2/../../../../nios2-elf/lib\libm.a(lib_a-w_cosh.o) (__ieee754_cosh)
c:/develop/altera/11.1/nios2eds/bin/gnu/h-i686-mingw32/bin/../lib/gcc/nios2-elf/4.1.2/../../../../nios2-elf/lib\libm.a(lib_a-e_exp.o)
                              c:/develop/altera/11.1/nios2eds/bin/gnu/h-i686-mingw32/bin/../lib/gcc/nios2-elf/4.1.2/../../../../nios2-elf/lib\libm.a(lib_a-w_exp.o) (__ieee754_exp)
c:/develop/altera/11.1/nios2eds/bin/gnu/h-i686-mingw32/bin/../lib/gcc/nios2-elf/4.1.2/../../../../nios2-elf/lib\libm.a(lib_a-e_fmod.o)
                              c:/develop/altera/11.1/nios2eds/bin/gnu/h-i686-mingw32/bin/../lib/gcc/nios2-elf/4.1.2/../../../../nios2-elf/lib\libm.a(lib_a-w_fmod.o) (__ieee754_fmod)
c:/develop/altera/11.1/nios2eds/bin/gnu/h-i686-mingw32/bin/../lib/gcc/nios2-elf/4.1.2/../../../../nios2-elf/lib\libm.a(lib_a-e_log.o)
                              c:/develop/altera/11.1/nios2eds/bin/gnu/h-i686-mingw32/bin/../lib/gcc/nios2-elf/4.1.2/../../../../nios2-elf/lib\libm.a(lib_a-w_log.o) (__ieee754_log)
c:/develop/altera/11.1/nios2eds/bin/gnu/h-i686-mingw32/bin/../lib/gcc/nios2-elf/4.1.2/../../../../nios2-elf/lib\libm.a(lib_a-e_log10.o)
                              c:/develop/altera/11.1/nios2eds/bin/gnu/h-i686-mingw32/bin/../lib/gcc/nios2-elf/4.1.2/../../../../nios2-elf/lib\libm.a(lib_a-w_log10.o) (__ieee754_log10)
c:/develop/altera/11.1/nios2eds/bin/gnu/h-i686-mingw32/bin/../lib/gcc/nios2-elf/4.1.2/../../../../nios2-elf/lib\libm.a(lib_a-e_pow.o)
                              c:/develop/altera/11.1/nios2eds/bin/gnu/h-i686-mingw32/bin/../lib/gcc/nios2-elf/4.1.2/../../../../nios2-elf/lib\libm.a(lib_a-w_pow.o) (__ieee754_pow)
c:/develop/altera/11.1/nios2eds/bin/gnu/h-i686-mingw32/bin/../lib/gcc/nios2-elf/4.1.2/../../../../nios2-elf/lib\libm.a(lib_a-e_rem_pio2.o)
                              c:/develop/altera/11.1/nios2eds/bin/gnu/h-i686-mingw32/bin/../lib/gcc/nios2-elf/4.1.2/../../../../nios2-elf/lib\libm.a(lib_a-s_cos.o) (__ieee754_rem_pio2)
c:/develop/altera/11.1/nios2eds/bin/gnu/h-i686-mingw32/bin/../lib/gcc/nios2-elf/4.1.2/../../../../nios2-elf/lib\libm.a(lib_a-e_sinh.o)
                              c:/develop/altera/11.1/nios2eds/bin/gnu/h-i686-mingw32/bin/../lib/gcc/nios2-elf/4.1.2/../../../../nios2-elf/lib\libm.a(lib_a-w_sinh.o) (__ieee754_sinh)
c:/develop/altera/11.1/nios2eds/bin/gnu/h-i686-mingw32/bin/../lib/gcc/nios2-elf/4.1.2/../../../../nios2-elf/lib\libm.a(lib_a-e_sqrt.o)
                              c:/develop/altera/11.1/nios2eds/bin/gnu/h-i686-mingw32/bin/../lib/gcc/nios2-elf/4.1.2/../../../../nios2-elf/lib\libm.a(lib_a-w_sqrt.o) (__ieee754_sqrt)
c:/develop/altera/11.1/nios2eds/bin/gnu/h-i686-mingw32/bin/../lib/gcc/nios2-elf/4.1.2/../../../../nios2-elf/lib\libm.a(lib_a-k_cos.o)
                              c:/develop/altera/11.1/nios2eds/bin/gnu/h-i686-mingw32/bin/../lib/gcc/nios2-elf/4.1.2/../../../../nios2-elf/lib\libm.a(lib_a-s_cos.o) (__kernel_cos)
c:/develop/altera/11.1/nios2eds/bin/gnu/h-i686-mingw32/bin/../lib/gcc/nios2-elf/4.1.2/../../../../nios2-elf/lib\libm.a(lib_a-k_rem_pio2.o)
                              c:/develop/altera/11.1/nios2eds/bin/gnu/h-i686-mingw32/bin/../lib/gcc/nios2-elf/4.1.2/../../../../nios2-elf/lib\libm.a(lib_a-e_rem_pio2.o) (__kernel_rem_pio2)
c:/develop/altera/11.1/nios2eds/bin/gnu/h-i686-mingw32/bin/../lib/gcc/nios2-elf/4.1.2/../../../../nios2-elf/lib\libm.a(lib_a-k_sin.o)
                              c:/develop/altera/11.1/nios2eds/bin/gnu/h-i686-mingw32/bin/../lib/gcc/nios2-elf/4.1.2/../../../../nios2-elf/lib\libm.a(lib_a-s_cos.o) (__kernel_sin)
c:/develop/altera/11.1/nios2eds/bin/gnu/h-i686-mingw32/bin/../lib/gcc/nios2-elf/4.1.2/../../../../nios2-elf/lib\libm.a(lib_a-k_tan.o)
                              c:/develop/altera/11.1/nios2eds/bin/gnu/h-i686-mingw32/bin/../lib/gcc/nios2-elf/4.1.2/../../../../nios2-elf/lib\libm.a(lib_a-s_tan.o) (__kernel_tan)
c:/develop/altera/11.1/nios2eds/bin/gnu/h-i686-mingw32/bin/../lib/gcc/nios2-elf/4.1.2/../../../../nios2-elf/lib\libm.a(lib_a-s_copysign.o)
                              c:/develop/altera/11.1/nios2eds/bin/gnu/h-i686-mingw32/bin/../lib/gcc/nios2-elf/4.1.2/../../../../nios2-elf/lib\libm.a(lib_a-s_scalbn.o) (copysign)
c:/develop/altera/11.1/nios2eds/bin/gnu/h-i686-mingw32/bin/../lib/gcc/nios2-elf/4.1.2/../../../../nios2-elf/lib\libm.a(lib_a-s_expm1.o)
                              c:/develop/altera/11.1/nios2eds/bin/gnu/h-i686-mingw32/bin/../lib/gcc/nios2-elf/4.1.2/../../../../nios2-elf/lib\libm.a(lib_a-s_tanh.o) (expm1)
c:/develop/altera/11.1/nios2eds/bin/gnu/h-i686-mingw32/bin/../lib/gcc/nios2-elf/4.1.2/../../../../nios2-elf/lib\libm.a(lib_a-s_finite.o)
                              c:/develop/altera/11.1/nios2eds/bin/gnu/h-i686-mingw32/bin/../lib/gcc/nios2-elf/4.1.2/../../../../nios2-elf/lib\libm.a(lib_a-s_ldexp.o) (finite)
c:/develop/altera/11.1/nios2eds/bin/gnu/h-i686-mingw32/bin/../lib/gcc/nios2-elf/4.1.2/../../../../nios2-elf/lib\libm.a(lib_a-s_isnand.o)
                              c:/develop/altera/11.1/nios2eds/bin/gnu/h-i686-mingw32/bin/../lib/gcc/nios2-elf/4.1.2/../../../../nios2-elf/lib\libm.a(lib_a-w_acos.o) (__isnand)
c:/develop/altera/11.1/nios2eds/bin/gnu/h-i686-mingw32/bin/../lib/gcc/nios2-elf/4.1.2/../../../../nios2-elf/lib\libm.a(lib_a-s_lib_ver.o)
                              c:/develop/altera/11.1/nios2eds/bin/gnu/h-i686-mingw32/bin/../lib/gcc/nios2-elf/4.1.2/../../../../nios2-elf/lib\libm.a(lib_a-w_acos.o) (__fdlib_version)
c:/develop/altera/11.1/nios2eds/bin/gnu/h-i686-mingw32/bin/../lib/gcc/nios2-elf/4.1.2/../../../../nios2-elf/lib\libm.a(lib_a-s_matherr.o)
                              c:/develop/altera/11.1/nios2eds/bin/gnu/h-i686-mingw32/bin/../lib/gcc/nios2-elf/4.1.2/../../../../nios2-elf/lib\libm.a(lib_a-w_acos.o) (matherr)
c:/develop/altera/11.1/nios2eds/bin/gnu/h-i686-mingw32/bin/../lib/gcc/nios2-elf/4.1.2/../../../../nios2-elf/lib\libm.a(lib_a-s_nan.o)
                              c:/develop/altera/11.1/nios2eds/bin/gnu/h-i686-mingw32/bin/../lib/gcc/nios2-elf/4.1.2/../../../../nios2-elf/lib\libm.a(lib_a-w_acos.o) (nan)
c:/develop/altera/11.1/nios2eds/bin/gnu/h-i686-mingw32/bin/../lib/gcc/nios2-elf/4.1.2/../../../../nios2-elf/lib\libm.a(lib_a-s_rint.o)
                              c:/develop/altera/11.1/nios2eds/bin/gnu/h-i686-mingw32/bin/../lib/gcc/nios2-elf/4.1.2/../../../../nios2-elf/lib\libm.a(lib_a-w_pow.o) (rint)
c:/develop/altera/11.1/nios2eds/bin/gnu/h-i686-mingw32/bin/../lib/gcc/nios2-elf/4.1.2\libgcc.a(_fixunsdfsi.o)
                              obj/default/lua/lstrlib.o (__fixunsdfsi)
c:/develop/altera/11.1/nios2eds/bin/gnu/h-i686-mingw32/bin/../lib/gcc/nios2-elf/4.1.2\libgcc.a(_addsub_df.o)
                              obj/default/lua/lmathlib.o (__subdf3)
c:/develop/altera/11.1/nios2eds/bin/gnu/h-i686-mingw32/bin/../lib/gcc/nios2-elf/4.1.2\libgcc.a(_mul_df.o)
                              obj/default/lua/lbaselib.o (__muldf3)
c:/develop/altera/11.1/nios2eds/bin/gnu/h-i686-mingw32/bin/../lib/gcc/nios2-elf/4.1.2\libgcc.a(_div_df.o)
                              obj/default/lua/lmathlib.o (__divdf3)
c:/develop/altera/11.1/nios2eds/bin/gnu/h-i686-mingw32/bin/../lib/gcc/nios2-elf/4.1.2\libgcc.a(_eq_df.o)
                              obj/default/lua/lcode.o (__eqdf2)
c:/develop/altera/11.1/nios2eds/bin/gnu/h-i686-mingw32/bin/../lib/gcc/nios2-elf/4.1.2\libgcc.a(_ne_df.o)
                              obj/default/lua/lauxlib.o (__nedf2)
c:/develop/altera/11.1/nios2eds/bin/gnu/h-i686-mingw32/bin/../lib/gcc/nios2-elf/4.1.2\libgcc.a(_gt_df.o)
                              obj/default/lua/lmathlib.o (__gtdf2)
c:/develop/altera/11.1/nios2eds/bin/gnu/h-i686-mingw32/bin/../lib/gcc/nios2-elf/4.1.2\libgcc.a(_ge_df.o)
                              obj/default/lua/lmathlib.o (__gedf2)
c:/develop/altera/11.1/nios2eds/bin/gnu/h-i686-mingw32/bin/../lib/gcc/nios2-elf/4.1.2\libgcc.a(_lt_df.o)
                              obj/default/lua/lmathlib.o (__ltdf2)
c:/develop/altera/11.1/nios2eds/bin/gnu/h-i686-mingw32/bin/../lib/gcc/nios2-elf/4.1.2\libgcc.a(_le_df.o)
                              obj/default/lua/lmathlib.o (__ledf2)
c:/develop/altera/11.1/nios2eds/bin/gnu/h-i686-mingw32/bin/../lib/gcc/nios2-elf/4.1.2\libgcc.a(_si_to_df.o)
                              obj/default/lua/lapi.o (__floatsidf)
c:/develop/altera/11.1/nios2eds/bin/gnu/h-i686-mingw32/bin/../lib/gcc/nios2-elf/4.1.2\libgcc.a(_df_to_si.o)
                              obj/default/lua/liolib.o (__fixdfsi)
c:/develop/altera/11.1/nios2eds/bin/gnu/h-i686-mingw32/bin/../lib/gcc/nios2-elf/4.1.2\libgcc.a(_thenan_df.o)
                              c:/develop/altera/11.1/nios2eds/bin/gnu/h-i686-mingw32/bin/../lib/gcc/nios2-elf/4.1.2\libgcc.a(_addsub_df.o) (__thenan_df)
c:/develop/altera/11.1/nios2eds/bin/gnu/h-i686-mingw32/bin/../lib/gcc/nios2-elf/4.1.2\libgcc.a(_usi_to_df.o)
                              obj/default/lua/lapi.o (__floatunsidf)
c:/develop/altera/11.1/nios2eds/bin/gnu/h-i686-mingw32/bin/../lib/gcc/nios2-elf/4.1.2\libgcc.a(lib2-divmod.o)
                              c:/develop/altera/11.1/nios2eds/bin/gnu/h-i686-mingw32/bin/../lib/gcc/nios2-elf/4.1.2/../../../../nios2-elf/lib\libm.a(lib_a-k_rem_pio2.o) (__divsi3)
c:/develop/altera/11.1/nios2eds/bin/gnu/h-i686-mingw32/bin/../lib/gcc/nios2-elf/4.1.2\libgcc.a(_muldi3.o)
                              c:/develop/altera/11.1/nios2eds/bin/gnu/h-i686-mingw32/bin/../lib/gcc/nios2-elf/4.1.2\libgcc.a(_mul_df.o) (__muldi3)
c:/develop/altera/11.1/nios2eds/bin/gnu/h-i686-mingw32/bin/../lib/gcc/nios2-elf/4.1.2\libgcc.a(_clzsi2.o)
                              c:/develop/altera/11.1/nios2eds/bin/gnu/h-i686-mingw32/bin/../lib/gcc/nios2-elf/4.1.2\libgcc.a(_si_to_df.o) (__clzsi2)
c:/develop/altera/11.1/nios2eds/bin/gnu/h-i686-mingw32/bin/../lib/gcc/nios2-elf/4.1.2\libgcc.a(_pack_df.o)
                              c:/develop/altera/11.1/nios2eds/bin/gnu/h-i686-mingw32/bin/../lib/gcc/nios2-elf/4.1.2\libgcc.a(_addsub_df.o) (__pack_d)
c:/develop/altera/11.1/nios2eds/bin/gnu/h-i686-mingw32/bin/../lib/gcc/nios2-elf/4.1.2\libgcc.a(_unpack_df.o)
                              c:/develop/altera/11.1/nios2eds/bin/gnu/h-i686-mingw32/bin/../lib/gcc/nios2-elf/4.1.2\libgcc.a(_addsub_df.o) (__unpack_d)
c:/develop/altera/11.1/nios2eds/bin/gnu/h-i686-mingw32/bin/../lib/gcc/nios2-elf/4.1.2\libgcc.a(_fpcmp_parts_df.o)
                              c:/develop/altera/11.1/nios2eds/bin/gnu/h-i686-mingw32/bin/../lib/gcc/nios2-elf/4.1.2\libgcc.a(_eq_df.o) (__fpcmp_parts_d)
c:/develop/altera/11.1/nios2eds/bin/gnu/h-i686-mingw32/bin/../lib/gcc/nios2-elf/4.1.2\libgcc.a(_clz.o)
                              c:/develop/altera/11.1/nios2eds/bin/gnu/h-i686-mingw32/bin/../lib/gcc/nios2-elf/4.1.2\libgcc.a(_clzsi2.o) (__clz_tab)
c:/develop/altera/11.1/nios2eds/bin/gnu/h-i686-mingw32/bin/../lib/gcc/nios2-elf/4.1.2/../../../../nios2-elf/lib\libc.a(lib_a-abort.o)
                              obj/default/lua/ldo.o (abort)
c:/develop/altera/11.1/nios2eds/bin/gnu/h-i686-mingw32/bin/../lib/gcc/nios2-elf/4.1.2/../../../../nios2-elf/lib\libc.a(lib_a-clock.o)
                              obj/default/lua/loslib.o (clock)
c:/develop/altera/11.1/nios2eds/bin/gnu/h-i686-mingw32/bin/../lib/gcc/nios2-elf/4.1.2/../../../../nios2-elf/lib\libc.a(lib_a-ctype_.o)
                              obj/default/lua/lbaselib.o (__ctype_ptr)
c:/develop/altera/11.1/nios2eds/bin/gnu/h-i686-mingw32/bin/../lib/gcc/nios2-elf/4.1.2/../../../../nios2-elf/lib\libc.a(lib_a-difftime.o)
                              obj/default/lua/loslib.o (difftime)
c:/develop/altera/11.1/nios2eds/bin/gnu/h-i686-mingw32/bin/../lib/gcc/nios2-elf/4.1.2/../../../../nios2-elf/lib\libc.a(lib_a-errno.o)
                              obj/default/lua/lauxlib.o (__errno)
c:/develop/altera/11.1/nios2eds/bin/gnu/h-i686-mingw32/bin/../lib/gcc/nios2-elf/4.1.2/../../../../nios2-elf/lib\libc.a(lib_a-exit.o)
                              obj/default/lua/loslib.o (exit)
c:/develop/altera/11.1/nios2eds/bin/gnu/h-i686-mingw32/bin/../lib/gcc/nios2-elf/4.1.2/../../../../nios2-elf/lib\libc.a(lib_a-fclose.o)
                              obj/default/lua/lauxlib.o (fclose)
c:/develop/altera/11.1/nios2eds/bin/gnu/h-i686-mingw32/bin/../lib/gcc/nios2-elf/4.1.2/../../../../nios2-elf/lib\libc.a(lib_a-fflush.o)
                              c:/develop/altera/11.1/nios2eds/bin/gnu/h-i686-mingw32/bin/../lib/gcc/nios2-elf/4.1.2/../../../../nios2-elf/lib\libc.a(lib_a-fclose.o) (_fflush_r)
c:/develop/altera/11.1/nios2eds/bin/gnu/h-i686-mingw32/bin/../lib/gcc/nios2-elf/4.1.2/../../../../nios2-elf/lib\libc.a(lib_a-fgets.o)
                              obj/default/lua/ldblib.o (fgets)
c:/develop/altera/11.1/nios2eds/bin/gnu/h-i686-mingw32/bin/../lib/gcc/nios2-elf/4.1.2/../../../../nios2-elf/lib\libc.a(lib_a-findfp.o)
                              c:/develop/altera/11.1/nios2eds/bin/gnu/h-i686-mingw32/bin/../lib/gcc/nios2-elf/4.1.2/../../../../nios2-elf/lib\libc.a(lib_a-fclose.o) (__sfp_lock_acquire)
c:/develop/altera/11.1/nios2eds/bin/gnu/h-i686-mingw32/bin/../lib/gcc/nios2-elf/4.1.2/../../../../nios2-elf/lib\libc.a(lib_a-fopen.o)
                              obj/default/lua/lauxlib.o (fopen)
c:/develop/altera/11.1/nios2eds/bin/gnu/h-i686-mingw32/bin/../lib/gcc/nios2-elf/4.1.2/../../../../nios2-elf/lib\libc.a(lib_a-fprintf.o)
                              obj/default/lua/lauxlib.o (fprintf)
c:/develop/altera/11.1/nios2eds/bin/gnu/h-i686-mingw32/bin/../lib/gcc/nios2-elf/4.1.2/../../../../nios2-elf/lib\libc.a(lib_a-fread.o)
                              obj/default/lua/lauxlib.o (fread)
c:/develop/altera/11.1/nios2eds/bin/gnu/h-i686-mingw32/bin/../lib/gcc/nios2-elf/4.1.2/../../../../nios2-elf/lib\libc.a(lib_a-freer.o)
                              c:/develop/altera/11.1/nios2eds/bin/gnu/h-i686-mingw32/bin/../lib/gcc/nios2-elf/4.1.2/../../../../nios2-elf/lib\libc.a(lib_a-fclose.o) (_free_r)
c:/develop/altera/11.1/nios2eds/bin/gnu/h-i686-mingw32/bin/../lib/gcc/nios2-elf/4.1.2/../../../../nios2-elf/lib\libc.a(lib_a-freopen.o)
                              obj/default/lua/lauxlib.o (freopen)
c:/develop/altera/11.1/nios2eds/bin/gnu/h-i686-mingw32/bin/../lib/gcc/nios2-elf/4.1.2/../../../../nios2-elf/lib\libc.a(lib_a-fscanf.o)
                              obj/default/lua/liolib.o (fscanf)
c:/develop/altera/11.1/nios2eds/bin/gnu/h-i686-mingw32/bin/../lib/gcc/nios2-elf/4.1.2/../../../../nios2-elf/lib\libc.a(lib_a-fseek.o)
                              c:/develop/altera/11.1/nios2eds/bin/gnu/h-i686-mingw32/bin/../lib/gcc/nios2-elf/4.1.2/../../../../nios2-elf/lib\libc.a(lib_a-fopen.o) (_fseek_r)
c:/develop/altera/11.1/nios2eds/bin/gnu/h-i686-mingw32/bin/../lib/gcc/nios2-elf/4.1.2/../../../../nios2-elf/lib\libc.a(lib_a-fstatr.o)
                              c:/develop/altera/11.1/nios2eds/bin/gnu/h-i686-mingw32/bin/../lib/gcc/nios2-elf/4.1.2/../../../../nios2-elf/lib\libc.a(lib_a-fseek.o) (_fstat_r)
c:/develop/altera/11.1/nios2eds/bin/gnu/h-i686-mingw32/bin/../lib/gcc/nios2-elf/4.1.2/../../../../nios2-elf/lib\libc.a(lib_a-ftell.o)
                              obj/default/lua/liolib.o (ftell)
c:/develop/altera/11.1/nios2eds/bin/gnu/h-i686-mingw32/bin/../lib/gcc/nios2-elf/4.1.2/../../../../nios2-elf/lib\libc.a(lib_a-fwalk.o)
                              c:/develop/altera/11.1/nios2eds/bin/gnu/h-i686-mingw32/bin/../lib/gcc/nios2-elf/4.1.2/../../../../nios2-elf/lib\libc.a(lib_a-fflush.o) (_fwalk_reent)
c:/develop/altera/11.1/nios2eds/bin/gnu/h-i686-mingw32/bin/../lib/gcc/nios2-elf/4.1.2/../../../../nios2-elf/lib\libc.a(lib_a-fwrite.o)
                              obj/default/lua/lbaselib.o (fwrite)
c:/develop/altera/11.1/nios2eds/bin/gnu/h-i686-mingw32/bin/../lib/gcc/nios2-elf/4.1.2/../../../../nios2-elf/lib\libc.a(lib_a-getc.o)
                              obj/default/lua/lauxlib.o (getc)
c:/develop/altera/11.1/nios2eds/bin/gnu/h-i686-mingw32/bin/../lib/gcc/nios2-elf/4.1.2/../../../../nios2-elf/lib\libc.a(lib_a-getenv.o)
                              obj/default/lua/loadlib.o (getenv)
c:/develop/altera/11.1/nios2eds/bin/gnu/h-i686-mingw32/bin/../lib/gcc/nios2-elf/4.1.2/../../../../nios2-elf/lib\libc.a(lib_a-getenv_r.o)
                              c:/develop/altera/11.1/nios2eds/bin/gnu/h-i686-mingw32/bin/../lib/gcc/nios2-elf/4.1.2/../../../../nios2-elf/lib\libc.a(lib_a-getenv.o) (_findenv_r)
c:/develop/altera/11.1/nios2eds/bin/gnu/h-i686-mingw32/bin/../lib/gcc/nios2-elf/4.1.2/../../../../nios2-elf/lib\libc.a(lib_a-gmtime.o)
                              obj/default/lua/loslib.o (gmtime)
c:/develop/altera/11.1/nios2eds/bin/gnu/h-i686-mingw32/bin/../lib/gcc/nios2-elf/4.1.2/../../../../nios2-elf/lib\libc.a(lib_a-gmtime_r.o)
                              c:/develop/altera/11.1/nios2eds/bin/gnu/h-i686-mingw32/bin/../lib/gcc/nios2-elf/4.1.2/../../../../nios2-elf/lib\libc.a(lib_a-gmtime.o) (gmtime_r)
c:/develop/altera/11.1/nios2eds/bin/gnu/h-i686-mingw32/bin/../lib/gcc/nios2-elf/4.1.2/../../../../nios2-elf/lib\libc.a(lib_a-impure.o)
                              obj/default/lua/lauxlib.o (_impure_ptr)
c:/develop/altera/11.1/nios2eds/bin/gnu/h-i686-mingw32/bin/../lib/gcc/nios2-elf/4.1.2/../../../../nios2-elf/lib\libc.a(lib_a-int_errno.o)
                              c:/develop/altera/11.1/nios2eds/bin/gnu/h-i686-mingw32/bin/../lib/gcc/nios2-elf/4.1.2/../../../../nios2-elf/lib\libc.a(lib_a-fstatr.o) (errno)
c:/develop/altera/11.1/nios2eds/bin/gnu/h-i686-mingw32/bin/../lib/gcc/nios2-elf/4.1.2/../../../../nios2-elf/lib\libc.a(lib_a-lcltime.o)
                              obj/default/lua/loslib.o (localtime)
c:/develop/altera/11.1/nios2eds/bin/gnu/h-i686-mingw32/bin/../lib/gcc/nios2-elf/4.1.2/../../../../nios2-elf/lib\libc.a(lib_a-lcltime_r.o)
                              c:/develop/altera/11.1/nios2eds/bin/gnu/h-i686-mingw32/bin/../lib/gcc/nios2-elf/4.1.2/../../../../nios2-elf/lib\libc.a(lib_a-lcltime.o) (localtime_r)
c:/develop/altera/11.1/nios2eds/bin/gnu/h-i686-mingw32/bin/../lib/gcc/nios2-elf/4.1.2/../../../../nios2-elf/lib\libc.a(lib_a-locale.o)
                              obj/default/lua/llex.o (localeconv)
c:/develop/altera/11.1/nios2eds/bin/gnu/h-i686-mingw32/bin/../lib/gcc/nios2-elf/4.1.2/../../../../nios2-elf/lib\libc.a(lib_a-makebuf.o)
                              c:/develop/altera/11.1/nios2eds/bin/gnu/h-i686-mingw32/bin/../lib/gcc/nios2-elf/4.1.2/../../../../nios2-elf/lib\libc.a(lib_a-fseek.o) (__smakebuf_r)
c:/develop/altera/11.1/nios2eds/bin/gnu/h-i686-mingw32/bin/../lib/gcc/nios2-elf/4.1.2/../../../../nios2-elf/lib\libc.a(lib_a-malloc.o)
                              obj/default/lua/lauxlib.o (free)
c:/develop/altera/11.1/nios2eds/bin/gnu/h-i686-mingw32/bin/../lib/gcc/nios2-elf/4.1.2/../../../../nios2-elf/lib\libc.a(lib_a-mallocr.o)
                              c:/develop/altera/11.1/nios2eds/bin/gnu/h-i686-mingw32/bin/../lib/gcc/nios2-elf/4.1.2/../../../../nios2-elf/lib\libc.a(lib_a-findfp.o) (_malloc_r)
c:/develop/altera/11.1/nios2eds/bin/gnu/h-i686-mingw32/bin/../lib/gcc/nios2-elf/4.1.2/../../../../nios2-elf/lib\libc.a(lib_a-memchr.o)
                              obj/default/lua/lstrlib.o (memchr)
c:/develop/altera/11.1/nios2eds/bin/gnu/h-i686-mingw32/bin/../lib/gcc/nios2-elf/4.1.2/../../../../nios2-elf/lib\libc.a(lib_a-memcmp.o)
                              obj/default/lua/lstring.o (memcmp)
c:/develop/altera/11.1/nios2eds/bin/gnu/h-i686-mingw32/bin/../lib/gcc/nios2-elf/4.1.2/../../../../nios2-elf/lib\libc.a(lib_a-memcpy.o)
                              obj/default/lua/lauxlib.o (memcpy)
c:/develop/altera/11.1/nios2eds/bin/gnu/h-i686-mingw32/bin/../lib/gcc/nios2-elf/4.1.2/../../../../nios2-elf/lib\libc.a(lib_a-memset.o)
                              obj/default/mmcfs/mmcfs.o (memset)
c:/develop/altera/11.1/nios2eds/bin/gnu/h-i686-mingw32/bin/../lib/gcc/nios2-elf/4.1.2/../../../../nios2-elf/lib\libc.a(lib_a-mktime.o)
                              obj/default/lua/loslib.o (mktime)
c:/develop/altera/11.1/nios2eds/bin/gnu/h-i686-mingw32/bin/../lib/gcc/nios2-elf/4.1.2/../../../../nios2-elf/lib\libc.a(lib_a-mktm_r.o)
                              c:/develop/altera/11.1/nios2eds/bin/gnu/h-i686-mingw32/bin/../lib/gcc/nios2-elf/4.1.2/../../../../nios2-elf/lib\libc.a(lib_a-mktime.o) (__tzcalc_limits)
c:/develop/altera/11.1/nios2eds/bin/gnu/h-i686-mingw32/bin/../lib/gcc/nios2-elf/4.1.2/../../../../nios2-elf/lib\libc.a(lib_a-openr.o)
                              c:/develop/altera/11.1/nios2eds/bin/gnu/h-i686-mingw32/bin/../lib/gcc/nios2-elf/4.1.2/../../../../nios2-elf/lib\libc.a(lib_a-fopen.o) (_open_r)
c:/develop/altera/11.1/nios2eds/bin/gnu/h-i686-mingw32/bin/../lib/gcc/nios2-elf/4.1.2/../../../../nios2-elf/lib\libc.a(lib_a-printf.o)
                              obj/default/min.o (printf)
c:/develop/altera/11.1/nios2eds/bin/gnu/h-i686-mingw32/bin/../lib/gcc/nios2-elf/4.1.2/../../../../nios2-elf/lib\libc.a(lib_a-putchar.o)
                              obj/default/min.o (putchar)
c:/develop/altera/11.1/nios2eds/bin/gnu/h-i686-mingw32/bin/../lib/gcc/nios2-elf/4.1.2/../../../../nios2-elf/lib\libc.a(lib_a-puts.o)
                              obj/default/min.o (puts)
c:/develop/altera/11.1/nios2eds/bin/gnu/h-i686-mingw32/bin/../lib/gcc/nios2-elf/4.1.2/../../../../nios2-elf/lib\libc.a(lib_a-rand.o)
                              obj/default/lua/lmathlib.o (srand)
c:/develop/altera/11.1/nios2eds/bin/gnu/h-i686-mingw32/bin/../lib/gcc/nios2-elf/4.1.2/../../../../nios2-elf/lib\libc.a(lib_a-realloc.o)
                              obj/default/lua/lauxlib.o (realloc)
c:/develop/altera/11.1/nios2eds/bin/gnu/h-i686-mingw32/bin/../lib/gcc/nios2-elf/4.1.2/../../../../nios2-elf/lib\libc.a(lib_a-reallocr.o)
                              c:/develop/altera/11.1/nios2eds/bin/gnu/h-i686-mingw32/bin/../lib/gcc/nios2-elf/4.1.2/../../../../nios2-elf/lib\libc.a(lib_a-realloc.o) (_realloc_r)
c:/develop/altera/11.1/nios2eds/bin/gnu/h-i686-mingw32/bin/../lib/gcc/nios2-elf/4.1.2/../../../../nios2-elf/lib\libc.a(lib_a-refill.o)
                              c:/develop/altera/11.1/nios2eds/bin/gnu/h-i686-mingw32/bin/../lib/gcc/nios2-elf/4.1.2/../../../../nios2-elf/lib\libc.a(lib_a-fgets.o) (__srefill_r)
c:/develop/altera/11.1/nios2eds/bin/gnu/h-i686-mingw32/bin/../lib/gcc/nios2-elf/4.1.2/../../../../nios2-elf/lib\libc.a(lib_a-rget.o)
                              c:/develop/altera/11.1/nios2eds/bin/gnu/h-i686-mingw32/bin/../lib/gcc/nios2-elf/4.1.2/../../../../nios2-elf/lib\libc.a(lib_a-getc.o) (__srget_r)
c:/develop/altera/11.1/nios2eds/bin/gnu/h-i686-mingw32/bin/../lib/gcc/nios2-elf/4.1.2/../../../../nios2-elf/lib\libc.a(lib_a-sbrkr.o)
                              c:/develop/altera/11.1/nios2eds/bin/gnu/h-i686-mingw32/bin/../lib/gcc/nios2-elf/4.1.2/../../../../nios2-elf/lib\libc.a(lib_a-freer.o) (_sbrk_r)
c:/develop/altera/11.1/nios2eds/bin/gnu/h-i686-mingw32/bin/../lib/gcc/nios2-elf/4.1.2/../../../../nios2-elf/lib\libc.a(lib_a-setjmp.o)
                              obj/default/lua/ldo.o (setjmp)
c:/develop/altera/11.1/nios2eds/bin/gnu/h-i686-mingw32/bin/../lib/gcc/nios2-elf/4.1.2/../../../../nios2-elf/lib\libc.a(lib_a-setvbuf.o)
                              obj/default/lua/liolib.o (setvbuf)
c:/develop/altera/11.1/nios2eds/bin/gnu/h-i686-mingw32/bin/../lib/gcc/nios2-elf/4.1.2/../../../../nios2-elf/lib\libc.a(lib_a-signal.o)
                              c:/develop/altera/11.1/nios2eds/bin/gnu/h-i686-mingw32/bin/../lib/gcc/nios2-elf/4.1.2/../../../../nios2-elf/lib\libc.a(lib_a-abort.o) (raise)
c:/develop/altera/11.1/nios2eds/bin/gnu/h-i686-mingw32/bin/../lib/gcc/nios2-elf/4.1.2/../../../../nios2-elf/lib\libc.a(lib_a-signalr.o)
                              c:/develop/altera/11.1/nios2eds/bin/gnu/h-i686-mingw32/bin/../lib/gcc/nios2-elf/4.1.2/../../../../nios2-elf/lib\libc.a(lib_a-signal.o) (_getpid_r)
c:/develop/altera/11.1/nios2eds/bin/gnu/h-i686-mingw32/bin/../lib/gcc/nios2-elf/4.1.2/../../../../nios2-elf/lib\libc.a(lib_a-sprintf.o)
                              obj/default/lua/lobject.o (sprintf)
c:/develop/altera/11.1/nios2eds/bin/gnu/h-i686-mingw32/bin/../lib/gcc/nios2-elf/4.1.2/../../../../nios2-elf/lib\libc.a(lib_a-stdio.o)
                              c:/develop/altera/11.1/nios2eds/bin/gnu/h-i686-mingw32/bin/../lib/gcc/nios2-elf/4.1.2/../../../../nios2-elf/lib\libc.a(lib_a-findfp.o) (__sclose)
c:/develop/altera/11.1/nios2eds/bin/gnu/h-i686-mingw32/bin/../lib/gcc/nios2-elf/4.1.2/../../../../nios2-elf/lib\libc.a(lib_a-strchr.o)
                              obj/default/lua/ldblib.o (strchr)
c:/develop/altera/11.1/nios2eds/bin/gnu/h-i686-mingw32/bin/../lib/gcc/nios2-elf/4.1.2/../../../../nios2-elf/lib\libc.a(lib_a-strcmp.o)
                              obj/default/lua/lauxlib.o (strcmp)
c:/develop/altera/11.1/nios2eds/bin/gnu/h-i686-mingw32/bin/../lib/gcc/nios2-elf/4.1.2/../../../../nios2-elf/lib\libc.a(lib_a-strcoll.o)
                              obj/default/lua/lvm.o (strcoll)
c:/develop/altera/11.1/nios2eds/bin/gnu/h-i686-mingw32/bin/../lib/gcc/nios2-elf/4.1.2/../../../../nios2-elf/lib\libc.a(lib_a-strcpy.o)
                              obj/default/lua/lstrlib.o (strcpy)
c:/develop/altera/11.1/nios2eds/bin/gnu/h-i686-mingw32/bin/../lib/gcc/nios2-elf/4.1.2/../../../../nios2-elf/lib\libc.a(lib_a-strerror.o)
                              obj/default/lua/lauxlib.o (strerror)
c:/develop/altera/11.1/nios2eds/bin/gnu/h-i686-mingw32/bin/../lib/gcc/nios2-elf/4.1.2/../../../../nios2-elf/lib\libc.a(lib_a-strftime.o)
                              obj/default/lua/loslib.o (strftime)
c:/develop/altera/11.1/nios2eds/bin/gnu/h-i686-mingw32/bin/../lib/gcc/nios2-elf/4.1.2/../../../../nios2-elf/lib\libc.a(lib_a-strlen.o)
                              obj/default/lua/lauxlib.o (strlen)
c:/develop/altera/11.1/nios2eds/bin/gnu/h-i686-mingw32/bin/../lib/gcc/nios2-elf/4.1.2/../../../../nios2-elf/lib\libc.a(lib_a-strncmp.o)
                              c:/develop/altera/11.1/nios2eds/bin/gnu/h-i686-mingw32/bin/../lib/gcc/nios2-elf/4.1.2/../../../../nios2-elf/lib\libc.a(lib_a-getenv_r.o) (strncmp)
c:/develop/altera/11.1/nios2eds/bin/gnu/h-i686-mingw32/bin/../lib/gcc/nios2-elf/4.1.2/../../../../nios2-elf/lib\libc.a(lib_a-strpbrk.o)
                              obj/default/lua/lobject.o (strpbrk)
c:/develop/altera/11.1/nios2eds/bin/gnu/h-i686-mingw32/bin/../lib/gcc/nios2-elf/4.1.2/../../../../nios2-elf/lib\libc.a(lib_a-strspn.o)
                              obj/default/lua/lbaselib.o (strspn)
c:/develop/altera/11.1/nios2eds/bin/gnu/h-i686-mingw32/bin/../lib/gcc/nios2-elf/4.1.2/../../../../nios2-elf/lib\libc.a(lib_a-strstr.o)
                              obj/default/lua/lauxlib.o (strstr)
c:/develop/altera/11.1/nios2eds/bin/gnu/h-i686-mingw32/bin/../lib/gcc/nios2-elf/4.1.2/../../../../nios2-elf/lib\libc.a(lib_a-strtod.o)
                              obj/default/lua/lobject.o (strtod)
c:/develop/altera/11.1/nios2eds/bin/gnu/h-i686-mingw32/bin/../lib/gcc/nios2-elf/4.1.2/../../../../nios2-elf/lib\libc.a(lib_a-time.o)
                              obj/default/lua/loslib.o (time)
c:/develop/altera/11.1/nios2eds/bin/gnu/h-i686-mingw32/bin/../lib/gcc/nios2-elf/4.1.2/../../../../nios2-elf/lib\libc.a(lib_a-timesr.o)
                              c:/develop/altera/11.1/nios2eds/bin/gnu/h-i686-mingw32/bin/../lib/gcc/nios2-elf/4.1.2/../../../../nios2-elf/lib\libc.a(lib_a-clock.o) (_times_r)
c:/develop/altera/11.1/nios2eds/bin/gnu/h-i686-mingw32/bin/../lib/gcc/nios2-elf/4.1.2/../../../../nios2-elf/lib\libc.a(lib_a-tmpnam.o)
                              obj/default/lua/loslib.o (tmpnam)
c:/develop/altera/11.1/nios2eds/bin/gnu/h-i686-mingw32/bin/../lib/gcc/nios2-elf/4.1.2/../../../../nios2-elf/lib\libc.a(lib_a-tzlock.o)
                              c:/develop/altera/11.1/nios2eds/bin/gnu/h-i686-mingw32/bin/../lib/gcc/nios2-elf/4.1.2/../../../../nios2-elf/lib\libc.a(lib_a-mktm_r.o) (__tz_lock)
c:/develop/altera/11.1/nios2eds/bin/gnu/h-i686-mingw32/bin/../lib/gcc/nios2-elf/4.1.2/../../../../nios2-elf/lib\libc.a(lib_a-tzvars.o)
                              c:/develop/altera/11.1/nios2eds/bin/gnu/h-i686-mingw32/bin/../lib/gcc/nios2-elf/4.1.2/../../../../nios2-elf/lib\libc.a(lib_a-strftime.o) (_tzname)
c:/develop/altera/11.1/nios2eds/bin/gnu/h-i686-mingw32/bin/../lib/gcc/nios2-elf/4.1.2/../../../../nios2-elf/lib\libc.a(lib_a-u_strerr.o)
                              c:/develop/altera/11.1/nios2eds/bin/gnu/h-i686-mingw32/bin/../lib/gcc/nios2-elf/4.1.2/../../../../nios2-elf/lib\libc.a(lib_a-strerror.o) (_user_strerror)
c:/develop/altera/11.1/nios2eds/bin/gnu/h-i686-mingw32/bin/../lib/gcc/nios2-elf/4.1.2/../../../../nios2-elf/lib\libc.a(lib_a-ungetc.o)
                              obj/default/lua/liolib.o (ungetc)
c:/develop/altera/11.1/nios2eds/bin/gnu/h-i686-mingw32/bin/../lib/gcc/nios2-elf/4.1.2/../../../../nios2-elf/lib\libc.a(lib_a-vfprintf.o)
                              c:/develop/altera/11.1/nios2eds/bin/gnu/h-i686-mingw32/bin/../lib/gcc/nios2-elf/4.1.2/../../../../nios2-elf/lib\libc.a(lib_a-printf.o) (___vfprintf_internal_r)
c:/develop/altera/11.1/nios2eds/bin/gnu/h-i686-mingw32/bin/../lib/gcc/nios2-elf/4.1.2/../../../../nios2-elf/lib\libc.a(lib_a-vfscanf.o)
                              c:/develop/altera/11.1/nios2eds/bin/gnu/h-i686-mingw32/bin/../lib/gcc/nios2-elf/4.1.2/../../../../nios2-elf/lib\libc.a(lib_a-fscanf.o) (__svfscanf_r)
c:/develop/altera/11.1/nios2eds/bin/gnu/h-i686-mingw32/bin/../lib/gcc/nios2-elf/4.1.2/../../../../nios2-elf/lib\libc.a(lib_a-writer.o)
                              c:/develop/altera/11.1/nios2eds/bin/gnu/h-i686-mingw32/bin/../lib/gcc/nios2-elf/4.1.2/../../../../nios2-elf/lib\libc.a(lib_a-stdio.o) (_write_r)
c:/develop/altera/11.1/nios2eds/bin/gnu/h-i686-mingw32/bin/../lib/gcc/nios2-elf/4.1.2/../../../../nios2-elf/lib\libc.a(lib_a-wsetup.o)
                              c:/develop/altera/11.1/nios2eds/bin/gnu/h-i686-mingw32/bin/../lib/gcc/nios2-elf/4.1.2/../../../../nios2-elf/lib\libc.a(lib_a-vfprintf.o) (__swsetup_r)
c:/develop/altera/11.1/nios2eds/bin/gnu/h-i686-mingw32/bin/../lib/gcc/nios2-elf/4.1.2/../../../../nios2-elf/lib\libc.a(lib_a-__call_atexit.o)
                              c:/develop/altera/11.1/nios2eds/bin/gnu/h-i686-mingw32/bin/../lib/gcc/nios2-elf/4.1.2/../../../../nios2-elf/lib\libc.a(lib_a-exit.o) (__call_exitprocs)
c:/develop/altera/11.1/nios2eds/bin/gnu/h-i686-mingw32/bin/../lib/gcc/nios2-elf/4.1.2/../../../../nios2-elf/lib\libc.a(lib_a-abs.o)
                              c:/develop/altera/11.1/nios2eds/bin/gnu/h-i686-mingw32/bin/../lib/gcc/nios2-elf/4.1.2/../../../../nios2-elf/lib\libc.a(lib_a-strftime.o) (abs)
c:/develop/altera/11.1/nios2eds/bin/gnu/h-i686-mingw32/bin/../lib/gcc/nios2-elf/4.1.2/../../../../nios2-elf/lib\libc.a(lib_a-closer.o)
                              c:/develop/altera/11.1/nios2eds/bin/gnu/h-i686-mingw32/bin/../lib/gcc/nios2-elf/4.1.2/../../../../nios2-elf/lib\libc.a(lib_a-stdio.o) (_close_r)
c:/develop/altera/11.1/nios2eds/bin/gnu/h-i686-mingw32/bin/../lib/gcc/nios2-elf/4.1.2/../../../../nios2-elf/lib\libc.a(lib_a-div.o)
                              c:/develop/altera/11.1/nios2eds/bin/gnu/h-i686-mingw32/bin/../lib/gcc/nios2-elf/4.1.2/../../../../nios2-elf/lib\libc.a(lib_a-mktime.o) (div)
c:/develop/altera/11.1/nios2eds/bin/gnu/h-i686-mingw32/bin/../lib/gcc/nios2-elf/4.1.2/../../../../nios2-elf/lib\libc.a(lib_a-dtoa.o)
                              c:/develop/altera/11.1/nios2eds/bin/gnu/h-i686-mingw32/bin/../lib/gcc/nios2-elf/4.1.2/../../../../nios2-elf/lib\libc.a(lib_a-vfprintf.o) (_dtoa_r)
c:/develop/altera/11.1/nios2eds/bin/gnu/h-i686-mingw32/bin/../lib/gcc/nios2-elf/4.1.2/../../../../nios2-elf/lib\libc.a(lib_a-environ.o)
                              c:/develop/altera/11.1/nios2eds/bin/gnu/h-i686-mingw32/bin/../lib/gcc/nios2-elf/4.1.2/../../../../nios2-elf/lib\libc.a(lib_a-getenv_r.o) (environ)
c:/develop/altera/11.1/nios2eds/bin/gnu/h-i686-mingw32/bin/../lib/gcc/nios2-elf/4.1.2/../../../../nios2-elf/lib\libc.a(lib_a-flags.o)
                              c:/develop/altera/11.1/nios2eds/bin/gnu/h-i686-mingw32/bin/../lib/gcc/nios2-elf/4.1.2/../../../../nios2-elf/lib\libc.a(lib_a-fopen.o) (__sflags)
c:/develop/altera/11.1/nios2eds/bin/gnu/h-i686-mingw32/bin/../lib/gcc/nios2-elf/4.1.2/../../../../nios2-elf/lib\libc.a(lib_a-fvwrite.o)
                              c:/develop/altera/11.1/nios2eds/bin/gnu/h-i686-mingw32/bin/../lib/gcc/nios2-elf/4.1.2/../../../../nios2-elf/lib\libc.a(lib_a-fwrite.o) (__sfvwrite_r)
c:/develop/altera/11.1/nios2eds/bin/gnu/h-i686-mingw32/bin/../lib/gcc/nios2-elf/4.1.2/../../../../nios2-elf/lib\libc.a(lib_a-gdtoa-gethex.o)
                              c:/develop/altera/11.1/nios2eds/bin/gnu/h-i686-mingw32/bin/../lib/gcc/nios2-elf/4.1.2/../../../../nios2-elf/lib\libc.a(lib_a-strtod.o) (__gethex)
c:/develop/altera/11.1/nios2eds/bin/gnu/h-i686-mingw32/bin/../lib/gcc/nios2-elf/4.1.2/../../../../nios2-elf/lib\libc.a(lib_a-gdtoa-hexnan.o)
                              c:/develop/altera/11.1/nios2eds/bin/gnu/h-i686-mingw32/bin/../lib/gcc/nios2-elf/4.1.2/../../../../nios2-elf/lib\libc.a(lib_a-strtod.o) (__hexnan)
c:/develop/altera/11.1/nios2eds/bin/gnu/h-i686-mingw32/bin/../lib/gcc/nios2-elf/4.1.2/../../../../nios2-elf/lib\libc.a(lib_a-gettimeofdayr.o)
                              c:/develop/altera/11.1/nios2eds/bin/gnu/h-i686-mingw32/bin/../lib/gcc/nios2-elf/4.1.2/../../../../nios2-elf/lib\libc.a(lib_a-time.o) (_gettimeofday_r)
c:/develop/altera/11.1/nios2eds/bin/gnu/h-i686-mingw32/bin/../lib/gcc/nios2-elf/4.1.2/../../../../nios2-elf/lib\libc.a(lib_a-gettzinfo.o)
                              c:/develop/altera/11.1/nios2eds/bin/gnu/h-i686-mingw32/bin/../lib/gcc/nios2-elf/4.1.2/../../../../nios2-elf/lib\libc.a(lib_a-mktime.o) (__gettzinfo)
c:/develop/altera/11.1/nios2eds/bin/gnu/h-i686-mingw32/bin/../lib/gcc/nios2-elf/4.1.2/../../../../nios2-elf/lib\libc.a(lib_a-isattyr.o)
                              c:/develop/altera/11.1/nios2eds/bin/gnu/h-i686-mingw32/bin/../lib/gcc/nios2-elf/4.1.2/../../../../nios2-elf/lib\libc.a(lib_a-makebuf.o) (_isatty_r)
c:/develop/altera/11.1/nios2eds/bin/gnu/h-i686-mingw32/bin/../lib/gcc/nios2-elf/4.1.2/../../../../nios2-elf/lib\libc.a(lib_a-iswspace.o)
                              c:/develop/altera/11.1/nios2eds/bin/gnu/h-i686-mingw32/bin/../lib/gcc/nios2-elf/4.1.2/../../../../nios2-elf/lib\libc.a(lib_a-vfscanf.o) (iswspace)
c:/develop/altera/11.1/nios2eds/bin/gnu/h-i686-mingw32/bin/../lib/gcc/nios2-elf/4.1.2/../../../../nios2-elf/lib\libc.a(lib_a-labs.o)
                              c:/develop/altera/11.1/nios2eds/bin/gnu/h-i686-mingw32/bin/../lib/gcc/nios2-elf/4.1.2/../../../../nios2-elf/lib\libc.a(lib_a-strftime.o) (labs)
c:/develop/altera/11.1/nios2eds/bin/gnu/h-i686-mingw32/bin/../lib/gcc/nios2-elf/4.1.2/../../../../nios2-elf/lib\libc.a(lib_a-lseekr.o)
                              c:/develop/altera/11.1/nios2eds/bin/gnu/h-i686-mingw32/bin/../lib/gcc/nios2-elf/4.1.2/../../../../nios2-elf/lib\libc.a(lib_a-stdio.o) (_lseek_r)
c:/develop/altera/11.1/nios2eds/bin/gnu/h-i686-mingw32/bin/../lib/gcc/nios2-elf/4.1.2/../../../../nios2-elf/lib\libc.a(lib_a-mbrtowc.o)
                              c:/develop/altera/11.1/nios2eds/bin/gnu/h-i686-mingw32/bin/../lib/gcc/nios2-elf/4.1.2/../../../../nios2-elf/lib\libc.a(lib_a-vfscanf.o) (_mbrtowc_r)
c:/develop/altera/11.1/nios2eds/bin/gnu/h-i686-mingw32/bin/../lib/gcc/nios2-elf/4.1.2/../../../../nios2-elf/lib\libc.a(lib_a-mbtowc_r.o)
                              c:/develop/altera/11.1/nios2eds/bin/gnu/h-i686-mingw32/bin/../lib/gcc/nios2-elf/4.1.2/../../../../nios2-elf/lib\libc.a(lib_a-mbrtowc.o) (_mbtowc_r)
c:/develop/altera/11.1/nios2eds/bin/gnu/h-i686-mingw32/bin/../lib/gcc/nios2-elf/4.1.2/../../../../nios2-elf/lib\libc.a(lib_a-memmove.o)
                              c:/develop/altera/11.1/nios2eds/bin/gnu/h-i686-mingw32/bin/../lib/gcc/nios2-elf/4.1.2/../../../../nios2-elf/lib\libc.a(lib_a-reallocr.o) (memmove)
c:/develop/altera/11.1/nios2eds/bin/gnu/h-i686-mingw32/bin/../lib/gcc/nios2-elf/4.1.2/../../../../nios2-elf/lib\libc.a(lib_a-mprec.o)
                              c:/develop/altera/11.1/nios2eds/bin/gnu/h-i686-mingw32/bin/../lib/gcc/nios2-elf/4.1.2/../../../../nios2-elf/lib\libc.a(lib_a-strtod.o) (_Bfree)
c:/develop/altera/11.1/nios2eds/bin/gnu/h-i686-mingw32/bin/../lib/gcc/nios2-elf/4.1.2/../../../../nios2-elf/lib\libc.a(lib_a-putc.o)
                              c:/develop/altera/11.1/nios2eds/bin/gnu/h-i686-mingw32/bin/../lib/gcc/nios2-elf/4.1.2/../../../../nios2-elf/lib\libc.a(lib_a-putchar.o) (_putc_r)
c:/develop/altera/11.1/nios2eds/bin/gnu/h-i686-mingw32/bin/../lib/gcc/nios2-elf/4.1.2/../../../../nios2-elf/lib\libc.a(lib_a-readr.o)
                              c:/develop/altera/11.1/nios2eds/bin/gnu/h-i686-mingw32/bin/../lib/gcc/nios2-elf/4.1.2/../../../../nios2-elf/lib\libc.a(lib_a-stdio.o) (_read_r)
c:/develop/altera/11.1/nios2eds/bin/gnu/h-i686-mingw32/bin/../lib/gcc/nios2-elf/4.1.2/../../../../nios2-elf/lib\libc.a(lib_a-s_isinfd.o)
                              c:/develop/altera/11.1/nios2eds/bin/gnu/h-i686-mingw32/bin/../lib/gcc/nios2-elf/4.1.2/../../../../nios2-elf/lib\libc.a(lib_a-vfprintf.o) (__isinfd)
c:/develop/altera/11.1/nios2eds/bin/gnu/h-i686-mingw32/bin/../lib/gcc/nios2-elf/4.1.2/../../../../nios2-elf/lib\libc.a(lib_a-sccl.o)
                              c:/develop/altera/11.1/nios2eds/bin/gnu/h-i686-mingw32/bin/../lib/gcc/nios2-elf/4.1.2/../../../../nios2-elf/lib\libc.a(lib_a-vfscanf.o) (__sccl)
c:/develop/altera/11.1/nios2eds/bin/gnu/h-i686-mingw32/bin/../lib/gcc/nios2-elf/4.1.2/../../../../nios2-elf/lib\libc.a(lib_a-sf_nan.o)
                              c:/develop/altera/11.1/nios2eds/bin/gnu/h-i686-mingw32/bin/../lib/gcc/nios2-elf/4.1.2/../../../../nios2-elf/lib\libc.a(lib_a-vfscanf.o) (nanf)
c:/develop/altera/11.1/nios2eds/bin/gnu/h-i686-mingw32/bin/../lib/gcc/nios2-elf/4.1.2/../../../../nios2-elf/lib\libc.a(lib_a-snprintf.o)
                              c:/develop/altera/11.1/nios2eds/bin/gnu/h-i686-mingw32/bin/../lib/gcc/nios2-elf/4.1.2/../../../../nios2-elf/lib\libc.a(lib_a-strftime.o) (snprintf)
c:/develop/altera/11.1/nios2eds/bin/gnu/h-i686-mingw32/bin/../lib/gcc/nios2-elf/4.1.2/../../../../nios2-elf/lib\libc.a(lib_a-strtol.o)
                              c:/develop/altera/11.1/nios2eds/bin/gnu/h-i686-mingw32/bin/../lib/gcc/nios2-elf/4.1.2/../../../../nios2-elf/lib\libc.a(lib_a-vfscanf.o) (_strtol_r)
c:/develop/altera/11.1/nios2eds/bin/gnu/h-i686-mingw32/bin/../lib/gcc/nios2-elf/4.1.2/../../../../nios2-elf/lib\libc.a(lib_a-strtoll_r.o)
                              c:/develop/altera/11.1/nios2eds/bin/gnu/h-i686-mingw32/bin/../lib/gcc/nios2-elf/4.1.2/../../../../nios2-elf/lib\libc.a(lib_a-vfscanf.o) (_strtoll_r)
c:/develop/altera/11.1/nios2eds/bin/gnu/h-i686-mingw32/bin/../lib/gcc/nios2-elf/4.1.2/../../../../nios2-elf/lib\libc.a(lib_a-strtoul.o)
                              c:/develop/altera/11.1/nios2eds/bin/gnu/h-i686-mingw32/bin/../lib/gcc/nios2-elf/4.1.2/../../../../nios2-elf/lib\libc.a(lib_a-vfscanf.o) (_strtoul_r)
c:/develop/altera/11.1/nios2eds/bin/gnu/h-i686-mingw32/bin/../lib/gcc/nios2-elf/4.1.2/../../../../nios2-elf/lib\libc.a(lib_a-strtoull_r.o)
                              c:/develop/altera/11.1/nios2eds/bin/gnu/h-i686-mingw32/bin/../lib/gcc/nios2-elf/4.1.2/../../../../nios2-elf/lib\libc.a(lib_a-vfscanf.o) (_strtoull_r)
c:/develop/altera/11.1/nios2eds/bin/gnu/h-i686-mingw32/bin/../lib/gcc/nios2-elf/4.1.2/../../../../nios2-elf/lib\libc.a(lib_a-wbuf.o)
                              c:/develop/altera/11.1/nios2eds/bin/gnu/h-i686-mingw32/bin/../lib/gcc/nios2-elf/4.1.2/../../../../nios2-elf/lib\libc.a(lib_a-putc.o) (__swbuf_r)
c:/develop/altera/11.1/nios2eds/bin/gnu/h-i686-mingw32/bin/../lib/gcc/nios2-elf/4.1.2/../../../../nios2-elf/lib\libc.a(lib_a-callocr.o)
                              c:/develop/altera/11.1/nios2eds/bin/gnu/h-i686-mingw32/bin/../lib/gcc/nios2-elf/4.1.2/../../../../nios2-elf/lib\libc.a(lib_a-mprec.o) (_calloc_r)
c:/develop/altera/11.1/nios2eds/bin/gnu/h-i686-mingw32/bin/../lib/gcc/nios2-elf/4.1.2\libgcc.a(_udivdi3.o)
                              c:/develop/altera/11.1/nios2eds/bin/gnu/h-i686-mingw32/bin/../lib/gcc/nios2-elf/4.1.2/../../../../nios2-elf/lib\libc.a(lib_a-vfprintf.o) (__udivdi3)
c:/develop/altera/11.1/nios2eds/bin/gnu/h-i686-mingw32/bin/../lib/gcc/nios2-elf/4.1.2\libgcc.a(_umoddi3.o)
                              c:/develop/altera/11.1/nios2eds/bin/gnu/h-i686-mingw32/bin/../lib/gcc/nios2-elf/4.1.2/../../../../nios2-elf/lib\libc.a(lib_a-vfprintf.o) (__umoddi3)
c:/develop/altera/11.1/nios2eds/bin/gnu/h-i686-mingw32/bin/../lib/gcc/nios2-elf/4.1.2\libgcc.a(_ne_sf.o)
                              c:/develop/altera/11.1/nios2eds/bin/gnu/h-i686-mingw32/bin/../lib/gcc/nios2-elf/4.1.2/../../../../nios2-elf/lib\libc.a(lib_a-strtod.o) (__nesf2)
c:/develop/altera/11.1/nios2eds/bin/gnu/h-i686-mingw32/bin/../lib/gcc/nios2-elf/4.1.2\libgcc.a(_gt_sf.o)
                              c:/develop/altera/11.1/nios2eds/bin/gnu/h-i686-mingw32/bin/../lib/gcc/nios2-elf/4.1.2/../../../../nios2-elf/lib\libc.a(lib_a-strtod.o) (__gtsf2)
c:/develop/altera/11.1/nios2eds/bin/gnu/h-i686-mingw32/bin/../lib/gcc/nios2-elf/4.1.2\libgcc.a(_lt_sf.o)
                              c:/develop/altera/11.1/nios2eds/bin/gnu/h-i686-mingw32/bin/../lib/gcc/nios2-elf/4.1.2/../../../../nios2-elf/lib\libc.a(lib_a-strtod.o) (__ltsf2)
c:/develop/altera/11.1/nios2eds/bin/gnu/h-i686-mingw32/bin/../lib/gcc/nios2-elf/4.1.2\libgcc.a(_df_to_sf.o)
                              c:/develop/altera/11.1/nios2eds/bin/gnu/h-i686-mingw32/bin/../lib/gcc/nios2-elf/4.1.2/../../../../nios2-elf/lib\libc.a(lib_a-strtod.o) (__truncdfsf2)
c:/develop/altera/11.1/nios2eds/bin/gnu/h-i686-mingw32/bin/../lib/gcc/nios2-elf/4.1.2\libgcc.a(_unpack_sf.o)
                              c:/develop/altera/11.1/nios2eds/bin/gnu/h-i686-mingw32/bin/../lib/gcc/nios2-elf/4.1.2\libgcc.a(_ne_sf.o) (__unpack_f)
c:/develop/altera/11.1/nios2eds/bin/gnu/h-i686-mingw32/bin/../lib/gcc/nios2-elf/4.1.2\libgcc.a(_fpcmp_parts_sf.o)
                              c:/develop/altera/11.1/nios2eds/bin/gnu/h-i686-mingw32/bin/../lib/gcc/nios2-elf/4.1.2\libgcc.a(_ne_sf.o) (__fpcmp_parts_f)
c:/develop/altera/11.1/nios2eds/bin/gnu/h-i686-mingw32/bin/../lib/gcc/nios2-elf/4.1.2\libgcc.a(_make_sf.o)
                              c:/develop/altera/11.1/nios2eds/bin/gnu/h-i686-mingw32/bin/../lib/gcc/nios2-elf/4.1.2\libgcc.a(_df_to_sf.o) (__make_fp)
c:/develop/altera/11.1/nios2eds/bin/gnu/h-i686-mingw32/bin/../lib/gcc/nios2-elf/4.1.2\libgcc.a(_pack_sf.o)
                              c:/develop/altera/11.1/nios2eds/bin/gnu/h-i686-mingw32/bin/../lib/gcc/nios2-elf/4.1.2\libgcc.a(_make_sf.o) (__pack_f)
../Cineraria_DE0_HAL_bsp/\libhal_bsp.a(alt_close.o)
                              c:/develop/altera/11.1/nios2eds/bin/gnu/h-i686-mingw32/bin/../lib/gcc/nios2-elf/4.1.2/../../../../nios2-elf/lib\libc.a(lib_a-closer.o) (close)
../Cineraria_DE0_HAL_bsp/\libhal_bsp.a(alt_dev.o)
                              ../Cineraria_DE0_HAL_bsp/\libhal_bsp.a(alt_close.o) (alt_fd_list)
../Cineraria_DE0_HAL_bsp/\libhal_bsp.a(alt_env_lock.o)
                              c:/develop/altera/11.1/nios2eds/bin/gnu/h-i686-mingw32/bin/../lib/gcc/nios2-elf/4.1.2/../../../../nios2-elf/lib\libc.a(lib_a-getenv_r.o) (__env_lock)
../Cineraria_DE0_HAL_bsp/\libhal_bsp.a(alt_errno.o)
                              ../Cineraria_DE0_HAL_bsp/\libhal_bsp.a(alt_close.o) (alt_errno)
../Cineraria_DE0_HAL_bsp/\libhal_bsp.a(alt_exit.o)
                              c:/develop/altera/11.1/nios2eds/bin/gnu/h-i686-mingw32/bin/../lib/gcc/nios2-elf/4.1.2/../../../../nios2-elf/lib\libc.a(lib_a-abort.o) (_exit)
../Cineraria_DE0_HAL_bsp/\libhal_bsp.a(alt_fs_reg.o)
                              obj/default/mmcfs/mmcfs.o (alt_fs_reg)
../Cineraria_DE0_HAL_bsp/\libhal_bsp.a(alt_fstat.o)
                              c:/develop/altera/11.1/nios2eds/bin/gnu/h-i686-mingw32/bin/../lib/gcc/nios2-elf/4.1.2/../../../../nios2-elf/lib\libc.a(lib_a-fstatr.o) (fstat)
../Cineraria_DE0_HAL_bsp/\libhal_bsp.a(alt_getpid.o)
                              c:/develop/altera/11.1/nios2eds/bin/gnu/h-i686-mingw32/bin/../lib/gcc/nios2-elf/4.1.2/../../../../nios2-elf/lib\libc.a(lib_a-signalr.o) (getpid)
../Cineraria_DE0_HAL_bsp/\libhal_bsp.a(alt_gettod.o)
                              c:/develop/altera/11.1/nios2eds/bin/gnu/h-i686-mingw32/bin/../lib/gcc/nios2-elf/4.1.2/../../../../nios2-elf/lib\libc.a(lib_a-gettimeofdayr.o) (gettimeofday)
../Cineraria_DE0_HAL_bsp/\libhal_bsp.a(alt_isatty.o)
                              c:/develop/altera/11.1/nios2eds/bin/gnu/h-i686-mingw32/bin/../lib/gcc/nios2-elf/4.1.2/../../../../nios2-elf/lib\libc.a(lib_a-isattyr.o) (isatty)
../Cineraria_DE0_HAL_bsp/\libhal_bsp.a(alt_kill.o)
                              c:/develop/altera/11.1/nios2eds/bin/gnu/h-i686-mingw32/bin/../lib/gcc/nios2-elf/4.1.2/../../../../nios2-elf/lib\libc.a(lib_a-signalr.o) (kill)
../Cineraria_DE0_HAL_bsp/\libhal_bsp.a(alt_lseek.o)
                              c:/develop/altera/11.1/nios2eds/bin/gnu/h-i686-mingw32/bin/../lib/gcc/nios2-elf/4.1.2/../../../../nios2-elf/lib\libc.a(lib_a-lseekr.o) (lseek)
../Cineraria_DE0_HAL_bsp/\libhal_bsp.a(alt_main.o)
                              ../Cineraria_DE0_HAL_bsp//obj/HAL/src/crt0.o (alt_main)
../Cineraria_DE0_HAL_bsp/\libhal_bsp.a(alt_malloc_lock.o)
                              c:/develop/altera/11.1/nios2eds/bin/gnu/h-i686-mingw32/bin/../lib/gcc/nios2-elf/4.1.2/../../../../nios2-elf/lib\libc.a(lib_a-freer.o) (__malloc_lock)
../Cineraria_DE0_HAL_bsp/\libhal_bsp.a(alt_open.o)
                              c:/develop/altera/11.1/nios2eds/bin/gnu/h-i686-mingw32/bin/../lib/gcc/nios2-elf/4.1.2/../../../../nios2-elf/lib\libc.a(lib_a-openr.o) (open)
../Cineraria_DE0_HAL_bsp/\libhal_bsp.a(alt_read.o)
                              c:/develop/altera/11.1/nios2eds/bin/gnu/h-i686-mingw32/bin/../lib/gcc/nios2-elf/4.1.2/../../../../nios2-elf/lib\libc.a(lib_a-readr.o) (read)
../Cineraria_DE0_HAL_bsp/\libhal_bsp.a(alt_release_fd.o)
                              ../Cineraria_DE0_HAL_bsp/\libhal_bsp.a(alt_close.o) (alt_release_fd)
../Cineraria_DE0_HAL_bsp/\libhal_bsp.a(alt_sbrk.o)
                              c:/develop/altera/11.1/nios2eds/bin/gnu/h-i686-mingw32/bin/../lib/gcc/nios2-elf/4.1.2/../../../../nios2-elf/lib\libc.a(lib_a-sbrkr.o) (sbrk)
../Cineraria_DE0_HAL_bsp/\libhal_bsp.a(alt_tick.o)
                              ../Cineraria_DE0_HAL_bsp/\libhal_bsp.a(alt_gettod.o) (_alt_nticks)
../Cineraria_DE0_HAL_bsp/\libhal_bsp.a(alt_times.o)
                              c:/develop/altera/11.1/nios2eds/bin/gnu/h-i686-mingw32/bin/../lib/gcc/nios2-elf/4.1.2/../../../../nios2-elf/lib\libc.a(lib_a-timesr.o) (times)
../Cineraria_DE0_HAL_bsp/\libhal_bsp.a(alt_write.o)
                              c:/develop/altera/11.1/nios2eds/bin/gnu/h-i686-mingw32/bin/../lib/gcc/nios2-elf/4.1.2/../../../../nios2-elf/lib\libc.a(lib_a-writer.o) (write)
../Cineraria_DE0_HAL_bsp/\libhal_bsp.a(alt_sys_init.o)
                              ../Cineraria_DE0_HAL_bsp/\libhal_bsp.a(alt_main.o) (alt_irq_init)
../Cineraria_DE0_HAL_bsp/\libhal_bsp.a(altera_avalon_cfi_flash.o)
                              ../Cineraria_DE0_HAL_bsp/\libhal_bsp.a(alt_sys_init.o) (alt_flash_cfi_get_info)
../Cineraria_DE0_HAL_bsp/\libhal_bsp.a(altera_avalon_cfi_flash_table.o)
                              ../Cineraria_DE0_HAL_bsp/\libhal_bsp.a(altera_avalon_cfi_flash.o) (alt_set_flash_width_func)
../Cineraria_DE0_HAL_bsp/\libhal_bsp.a(altera_avalon_epcs_flash_controller.o)
                              ../Cineraria_DE0_HAL_bsp/\libhal_bsp.a(alt_sys_init.o) (alt_epcs_flash_get_info)
../Cineraria_DE0_HAL_bsp/\libhal_bsp.a(altera_avalon_jtag_uart_fd.o)
                              ../Cineraria_DE0_HAL_bsp/\libhal_bsp.a(alt_sys_init.o) (altera_avalon_jtag_uart_ioctl_fd)
../Cineraria_DE0_HAL_bsp/\libhal_bsp.a(altera_avalon_jtag_uart_init.o)
                              ../Cineraria_DE0_HAL_bsp/\libhal_bsp.a(altera_avalon_jtag_uart_fd.o) (altera_avalon_jtag_uart_close)
../Cineraria_DE0_HAL_bsp/\libhal_bsp.a(altera_avalon_jtag_uart_ioctl.o)
                              ../Cineraria_DE0_HAL_bsp/\libhal_bsp.a(altera_avalon_jtag_uart_fd.o) (altera_avalon_jtag_uart_ioctl)
../Cineraria_DE0_HAL_bsp/\libhal_bsp.a(altera_avalon_jtag_uart_read.o)
                              ../Cineraria_DE0_HAL_bsp/\libhal_bsp.a(altera_avalon_jtag_uart_fd.o) (altera_avalon_jtag_uart_read)
../Cineraria_DE0_HAL_bsp/\libhal_bsp.a(altera_avalon_jtag_uart_write.o)
                              ../Cineraria_DE0_HAL_bsp/\libhal_bsp.a(altera_avalon_jtag_uart_fd.o) (altera_avalon_jtag_uart_write)
../Cineraria_DE0_HAL_bsp/\libhal_bsp.a(altera_avalon_timer_sc.o)
                              ../Cineraria_DE0_HAL_bsp/\libhal_bsp.a(alt_sys_init.o) (alt_avalon_timer_sc_init)
../Cineraria_DE0_HAL_bsp/\libhal_bsp.a(altera_avalon_uart_fd.o)
                              ../Cineraria_DE0_HAL_bsp/\libhal_bsp.a(alt_sys_init.o) (altera_avalon_uart_close_fd)
../Cineraria_DE0_HAL_bsp/\libhal_bsp.a(altera_avalon_uart_init.o)
                              ../Cineraria_DE0_HAL_bsp/\libhal_bsp.a(altera_avalon_uart_fd.o) (altera_avalon_uart_close)
../Cineraria_DE0_HAL_bsp/\libhal_bsp.a(altera_avalon_uart_read.o)
                              ../Cineraria_DE0_HAL_bsp/\libhal_bsp.a(altera_avalon_uart_fd.o) (altera_avalon_uart_read)
../Cineraria_DE0_HAL_bsp/\libhal_bsp.a(altera_avalon_uart_write.o)
                              ../Cineraria_DE0_HAL_bsp/\libhal_bsp.a(altera_avalon_uart_fd.o) (altera_avalon_uart_write)
../Cineraria_DE0_HAL_bsp/\libhal_bsp.a(epcs_commands.o)
                              ../Cineraria_DE0_HAL_bsp/\libhal_bsp.a(altera_avalon_epcs_flash_controller.o) (epcs_read_device_id)
../Cineraria_DE0_HAL_bsp/\libhal_bsp.a(alt_alarm_start.o)
                              ../Cineraria_DE0_HAL_bsp/\libhal_bsp.a(altera_avalon_jtag_uart_init.o) (alt_alarm_start)
../Cineraria_DE0_HAL_bsp/\libhal_bsp.a(alt_dcache_flush.o)
                              ../Cineraria_DE0_HAL_bsp/\libhal_bsp.a(altera_avalon_cfi_flash.o) (alt_dcache_flush)
../Cineraria_DE0_HAL_bsp/\libhal_bsp.a(alt_dev_llist_insert.o)
                              ../Cineraria_DE0_HAL_bsp/\libhal_bsp.a(alt_sys_init.o) (alt_dev_llist_insert)
../Cineraria_DE0_HAL_bsp/\libhal_bsp.a(alt_do_ctors.o)
                              ../Cineraria_DE0_HAL_bsp/\libhal_bsp.a(alt_main.o) (_do_ctors)
../Cineraria_DE0_HAL_bsp/\libhal_bsp.a(alt_do_dtors.o)
                              ../Cineraria_DE0_HAL_bsp/\libhal_bsp.a(alt_main.o) (_do_dtors)
../Cineraria_DE0_HAL_bsp/\libhal_bsp.a(alt_find_dev.o)
                              ../Cineraria_DE0_HAL_bsp/\libhal_bsp.a(alt_open.o) (alt_find_dev)
../Cineraria_DE0_HAL_bsp/\libhal_bsp.a(alt_find_file.o)
                              ../Cineraria_DE0_HAL_bsp/\libhal_bsp.a(alt_open.o) (alt_find_file)
../Cineraria_DE0_HAL_bsp/\libhal_bsp.a(alt_flash_dev.o)
                              ../Cineraria_DE0_HAL_bsp/\libhal_bsp.a(altera_avalon_cfi_flash.o) (alt_flash_dev_list)
../Cineraria_DE0_HAL_bsp/\libhal_bsp.a(alt_get_fd.o)
                              ../Cineraria_DE0_HAL_bsp/\libhal_bsp.a(alt_open.o) (alt_get_fd)
../Cineraria_DE0_HAL_bsp/\libhal_bsp.a(alt_iic.o)
                              ../Cineraria_DE0_HAL_bsp/\libhal_bsp.a(altera_avalon_jtag_uart_init.o) (alt_ic_isr_register)
../Cineraria_DE0_HAL_bsp/\libhal_bsp.a(alt_iic_isr_register.o)
                              ../Cineraria_DE0_HAL_bsp/\libhal_bsp.a(alt_iic.o) (alt_iic_isr_register)
../Cineraria_DE0_HAL_bsp/\libhal_bsp.a(alt_io_redirect.o)
                              ../Cineraria_DE0_HAL_bsp/\libhal_bsp.a(alt_main.o) (alt_io_redirect)
../Cineraria_DE0_HAL_bsp/\libhal_bsp.a(alt_irq_entry.o)
                              ../Cineraria_DE0_HAL_bsp/\libhal_bsp.a(alt_iic_isr_register.o) (alt_irq_entry)
../Cineraria_DE0_HAL_bsp/\libhal_bsp.a(alt_irq_handler.o)
                              ../Cineraria_DE0_HAL_bsp/\libhal_bsp.a(alt_iic_isr_register.o) (alt_irq_handler)
../Cineraria_DE0_HAL_bsp/\libhal_bsp.a(alt_irq_vars.o)
                              ../Cineraria_DE0_HAL_bsp/\libhal_bsp.a(alt_iic.o) (alt_irq_active)
../Cineraria_DE0_HAL_bsp/\libhal_bsp.a(altera_nios2_irq.o)
                              ../Cineraria_DE0_HAL_bsp/\libhal_bsp.a(alt_sys_init.o) (altera_nios2_irq_init)
../Cineraria_DE0_HAL_bsp/\libhal_bsp.a(altera_avalon_cfi_flash_amd.o)
                              ../Cineraria_DE0_HAL_bsp/\libhal_bsp.a(altera_avalon_cfi_flash_table.o) (alt_erase_block_amd)
../Cineraria_DE0_HAL_bsp/\libhal_bsp.a(altera_avalon_cfi_flash_intel.o)
                              ../Cineraria_DE0_HAL_bsp/\libhal_bsp.a(altera_avalon_cfi_flash_table.o) (alt_erase_block_intel)
../Cineraria_DE0_HAL_bsp/\libhal_bsp.a(altera_avalon_spi.o)
                              ../Cineraria_DE0_HAL_bsp/\libhal_bsp.a(epcs_commands.o) (alt_avalon_spi_command)
../Cineraria_DE0_HAL_bsp/\libhal_bsp.a(alt_exception_entry.o)
                              ../Cineraria_DE0_HAL_bsp/\libhal_bsp.a(alt_irq_entry.o) (alt_exception)
../Cineraria_DE0_HAL_bsp/\libhal_bsp.a(alt_usleep.o)
                              ../Cineraria_DE0_HAL_bsp/\libhal_bsp.a(altera_avalon_cfi_flash_amd.o) (usleep)
../Cineraria_DE0_HAL_bsp/\libhal_bsp.a(alt_busy_sleep.o)
                              ../Cineraria_DE0_HAL_bsp/\libhal_bsp.a(alt_usleep.o) (alt_busy_sleep)
c:/develop/altera/11.1/nios2eds/bin/gnu/h-i686-mingw32/bin/../lib/gcc/nios2-elf/4.1.2/../../../../nios2-elf/lib\libc.a(lib_a-atexit.o)
                              ../Cineraria_DE0_HAL_bsp/\libhal_bsp.a(alt_main.o) (atexit)
c:/develop/altera/11.1/nios2eds/bin/gnu/h-i686-mingw32/bin/../lib/gcc/nios2-elf/4.1.2/../../../../nios2-elf/lib\libc.a(lib_a-__atexit.o)
                              c:/develop/altera/11.1/nios2eds/bin/gnu/h-i686-mingw32/bin/../lib/gcc/nios2-elf/4.1.2/../../../../nios2-elf/lib\libc.a(lib_a-atexit.o) (__register_exitproc)

Allocating common symbols
Common symbol       size              file

alt_irq             0x100             ../Cineraria_DE0_HAL_bsp/\libhal_bsp.a(alt_irq_handler.o)
errno               0x4               c:/develop/altera/11.1/nios2eds/bin/gnu/h-i686-mingw32/bin/../lib/gcc/nios2-elf/4.1.2/../../../../nios2-elf/lib\libc.a(lib_a-int_errno.o)
__hexdig            0x100             c:/develop/altera/11.1/nios2eds/bin/gnu/h-i686-mingw32/bin/../lib/gcc/nios2-elf/4.1.2/../../../../nios2-elf/lib\libc.a(lib_a-gdtoa-gethex.o)
_atexit0            0x190             c:/develop/altera/11.1/nios2eds/bin/gnu/h-i686-mingw32/bin/../lib/gcc/nios2-elf/4.1.2/../../../../nios2-elf/lib\libc.a(lib_a-atexit.o)

Memory Configuration

Name             Origin             Length             Attributes
sdram_BEFORE_EXCEPTION 0x00000000         0x00000020
sdram            0x00000020         0x007fffe0
ext_flash        0x04000000         0x00400000
reset            0x0f000000         0x00000020
epcs_controller  0x0f000020         0x000007e0
*default*        0x00000000         0xffffffff

Linker script and memory map

LOAD ../Cineraria_DE0_HAL_bsp//obj/HAL/src/crt0.o
LOAD obj/default/lua/lapi.o
LOAD obj/default/lua/lauxlib.o
LOAD obj/default/lua/lbaselib.o
LOAD obj/default/lua/lbitlib.o
LOAD obj/default/lua/lcode.o
LOAD obj/default/lua/lcorolib.o
LOAD obj/default/lua/lctype.o
LOAD obj/default/lua/ldblib.o
LOAD obj/default/lua/ldebug.o
LOAD obj/default/lua/ldo.o
LOAD obj/default/lua/ldump.o
LOAD obj/default/lua/lfunc.o
LOAD obj/default/lua/lgc.o
LOAD obj/default/lua/linit.o
LOAD obj/default/lua/liolib.o
LOAD obj/default/lua/llex.o
LOAD obj/default/lua/lmathlib.o
LOAD obj/default/lua/lmem.o
LOAD obj/default/lua/loadlib.o
LOAD obj/default/lua/lobject.o
LOAD obj/default/lua/lopcodes.o
LOAD obj/default/lua/loslib.o
LOAD obj/default/lua/lparser.o
LOAD obj/default/lua/lstate.o
LOAD obj/default/lua/lstring.o
LOAD obj/default/lua/lstrlib.o
LOAD obj/default/lua/ltable.o
LOAD obj/default/lua/ltablib.o
LOAD obj/default/lua/ltm.o
LOAD obj/default/lua/lundump.o
LOAD obj/default/lua/lvm.o
LOAD obj/default/lua/lzio.o
LOAD obj/default/min.o
LOAD obj/default/mmcfs/fatfs/ff.o
LOAD obj/default/mmcfs/fatfs/mmcbb.o
LOAD obj/default/mmcfs/fatfs/option/cc932.o
LOAD obj/default/mmcfs/gettime.o
LOAD obj/default/mmcfs/mmc_spi.o
LOAD obj/default/mmcfs/mmcfs.o
LOAD c:/develop/altera/11.1/nios2eds/bin/gnu/h-i686-mingw32/bin/../lib/gcc/nios2-elf/4.1.2/../../../../nios2-elf/lib\libstdc++.a
LOAD c:/develop/altera/11.1/nios2eds/bin/gnu/h-i686-mingw32/bin/../lib/gcc/nios2-elf/4.1.2/../../../../nios2-elf/lib\libm.a
LOAD c:/develop/altera/11.1/nios2eds/bin/gnu/h-i686-mingw32/bin/../lib/gcc/nios2-elf/4.1.2\libgcc.a
START GROUP
LOAD c:/develop/altera/11.1/nios2eds/bin/gnu/h-i686-mingw32/bin/../lib/gcc/nios2-elf/4.1.2/../../../../nios2-elf/lib\libc.a
LOAD c:/develop/altera/11.1/nios2eds/bin/gnu/h-i686-mingw32/bin/../lib/gcc/nios2-elf/4.1.2\libgcc.a
LOAD ../Cineraria_DE0_HAL_bsp/\libhal_bsp.a
END GROUP
LOAD c:/develop/altera/11.1/nios2eds/bin/gnu/h-i686-mingw32/bin/../lib/gcc/nios2-elf/4.1.2\libgcc.a
                0x00000000                __alt_mem_sdram = 0x0
                0x04000000                __alt_mem_ext_flash = 0x4000000
                0x0f000000                __alt_mem_epcs_controller = 0xf000000

.entry          0x0f000000        0x0
 *(.entry)
 .entry         0x0f000000        0x0 ../Cineraria_DE0_HAL_bsp//obj/HAL/src/crt0.o
                0x0f000000                __reset

.exceptions     0x00000020      0x164
                0x00000020                PROVIDE (__ram_exceptions_start, ABSOLUTE (.))
                0x00000020                . = ALIGN (0x20)
 *(.irq)
 *(.exceptions.entry.label)
 .exceptions.entry.label
                0x00000020        0x0 ../Cineraria_DE0_HAL_bsp/\libhal_bsp.a(alt_irq_entry.o)
                0x00000020                alt_irq_entry
 .exceptions.entry.label
                0x00000020        0x0 ../Cineraria_DE0_HAL_bsp/\libhal_bsp.a(alt_exception_entry.o)
                0x00000020                alt_exception
 *(.exceptions.entry.user)
 *(.exceptions.entry)
 .exceptions.entry
                0x00000020       0x54 ../Cineraria_DE0_HAL_bsp/\libhal_bsp.a(alt_exception_entry.o)
 *(.exceptions.irqtest.user)
 *(.exceptions.irqtest)
 .exceptions.irqtest
                0x00000074       0x10 ../Cineraria_DE0_HAL_bsp/\libhal_bsp.a(alt_irq_entry.o)
 *(.exceptions.irqhandler.user)
 *(.exceptions.irqhandler)
 .exceptions.irqhandler
                0x00000084        0x4 ../Cineraria_DE0_HAL_bsp/\libhal_bsp.a(alt_irq_entry.o)
 *(.exceptions.irqreturn.user)
 *(.exceptions.irqreturn)
 .exceptions.irqreturn
                0x00000088        0x4 ../Cineraria_DE0_HAL_bsp/\libhal_bsp.a(alt_irq_entry.o)
 *(.exceptions.notirq.label)
 .exceptions.notirq.label
                0x0000008c        0x0 ../Cineraria_DE0_HAL_bsp/\libhal_bsp.a(alt_irq_entry.o)
 *(.exceptions.notirq.user)
 *(.exceptions.notirq)
 .exceptions.notirq
                0x0000008c        0x8 ../Cineraria_DE0_HAL_bsp/\libhal_bsp.a(alt_exception_entry.o)
 *(.exceptions.soft.user)
 *(.exceptions.soft)
 *(.exceptions.unknown.user)
 *(.exceptions.unknown)
 .exceptions.unknown
                0x00000094        0x4 ../Cineraria_DE0_HAL_bsp/\libhal_bsp.a(alt_exception_entry.o)
 *(.exceptions.exit.label)
 .exceptions.exit.label
                0x00000098        0x0 ../Cineraria_DE0_HAL_bsp/\libhal_bsp.a(alt_irq_entry.o)
 .exceptions.exit.label
                0x00000098        0x0 ../Cineraria_DE0_HAL_bsp/\libhal_bsp.a(alt_exception_entry.o)
 *(.exceptions.exit.user)
 *(.exceptions.exit)
 .exceptions.exit
                0x00000098       0x54 ../Cineraria_DE0_HAL_bsp/\libhal_bsp.a(alt_exception_entry.o)
 *(.exceptions)
 .exceptions    0x000000ec       0x98 ../Cineraria_DE0_HAL_bsp/\libhal_bsp.a(alt_irq_handler.o)
                0x000000ec                alt_irq_handler
                0x00000184                PROVIDE (__ram_exceptions_end, ABSOLUTE (.))
                0x00000020                PROVIDE (__flash_exceptions_start, LOADADDR (.exceptions))

.text           0x00000188    0x46200
                0x00000188                PROVIDE (stext, ABSOLUTE (.))
 *(.interp)
 *(.hash)
 *(.dynsym)
 *(.dynstr)
 *(.gnu.version)
 *(.gnu.version_d)
 *(.gnu.version_r)
 *(.rel.init)
 *(.rela.init)
 *(.rel.text .rel.text.* .rel.gnu.linkonce.t.*)
 *(.rela.text .rela.text.* .rela.gnu.linkonce.t.*)
 *(.rel.fini)
 *(.rela.fini)
 *(.rel.rodata .rel.rodata.* .rel.gnu.linkonce.r.*)
 *(.rela.rodata .rela.rodata.* .rela.gnu.linkonce.r.*)
 *(.rel.data .rel.data.* .rel.gnu.linkonce.d.*)
 *(.rela.data .rela.data.* .rela.gnu.linkonce.d.*)
 *(.rel.tdata .rel.tdata.* .rel.gnu.linkonce.td.*)
 *(.rela.tdata .rela.tdata.* .rela.gnu.linkonce.td.*)
 *(.rel.tbss .rel.tbss.* .rel.gnu.linkonce.tb.*)
 *(.rela.tbss .rela.tbss.* .rela.gnu.linkonce.tb.*)
 *(.rel.ctors)
 *(.rela.ctors)
 *(.rel.dtors)
 *(.rela.dtors)
 *(.rel.got)
 *(.rela.got)
 *(.rel.sdata .rel.sdata.* .rel.gnu.linkonce.s.*)
 *(.rela.sdata .rela.sdata.* .rela.gnu.linkonce.s.*)
 *(.rel.sbss .rel.sbss.* .rel.gnu.linkonce.sb.*)
 *(.rela.sbss .rela.sbss.* .rela.gnu.linkonce.sb.*)
 *(.rel.sdata2 .rel.sdata2.* .rel.gnu.linkonce.s2.*)
 *(.rela.sdata2 .rela.sdata2.* .rela.gnu.linkonce.s2.*)
 *(.rel.sbss2 .rel.sbss2.* .rel.gnu.linkonce.sb2.*)
 *(.rela.sbss2 .rela.sbss2.* .rela.gnu.linkonce.sb2.*)
 *(.rel.bss .rel.bss.* .rel.gnu.linkonce.b.*)
 *(.rela.bss .rela.bss.* .rela.gnu.linkonce.b.*)
 *(.rel.plt)
 *(.rela.plt)
 *(.rel.dyn)
 *(.init)
 *(.plt)
 *(.text .stub .text.* .gnu.linkonce.t.*)
 .text          0x00000188       0x48 ../Cineraria_DE0_HAL_bsp//obj/HAL/src/crt0.o
                0x00000188                _start
 .text          0x000001d0     0x2638 obj/default/lua/lapi.o
                0x00000258                lua_xmove
                0x000002c4                lua_atpanic
                0x000002d4                lua_version
                0x000002e8                lua_absindex
                0x00000328                lua_gettop
                0x00000350                lua_settop
                0x000003a4                lua_remove
                0x000003fc                lua_insert
                0x00000470                lua_pushvalue
                0x000004bc                lua_type
                0x000004f4                lua_typename
                0x00000510                lua_iscfunction
                0x00000540                lua_isstring
                0x00000564                lua_isuserdata
                0x00000594                lua_toboolean
                0x000005dc                lua_tocfunction
                0x00000624                lua_touserdata
                0x0000068c                lua_tothread
                0x000006c0                lua_topointer
                0x000007f4                lua_pushnil
                0x00000808                lua_pushnumber
                0x0000082c                lua_pushinteger
                0x00000874                lua_pushunsigned
                0x000008dc                lua_pushboolean
                0x00000900                lua_pushlightuserdata
                0x00000920                lua_pushthread
                0x0000094c                lua_getmetatable
                0x000009d8                lua_getuservalue
                0x00000a44                lua_getctx
                0x00000a70                lua_status
                0x00000a78                lua_getallocf
                0x00000a9c                lua_setallocf
                0x00000b60                lua_getupvalue
                0x00000c20                lua_upvalueid
                0x00000ce0                lua_upvaluejoin
                0x00000d7c                lua_setupvalue
                0x00000e4c                lua_setuservalue
                0x00000f9c                lua_copy
                0x00000fd8                lua_replace
                0x00001020                lua_newuserdata
                0x00001090                lua_len
                0x000010dc                lua_concat
                0x00001170                lua_pushlstring
                0x000011ec                lua_next
                0x0000125c                lua_error
                0x00001268                lua_gc
                0x000013f8                lua_dump
                0x00001450                lua_load
                0x00001548                lua_rawgeti
                0x000015ac                lua_pcallk
                0x00001714                lua_callk
                0x000017c4                lua_setmetatable
                0x000018e4                lua_rawsetp
                0x000019a0                lua_rawset
                0x00001a54                lua_rawseti
                0x00001aec                lua_pushstring
                0x00001b68                lua_setfield
                0x00001c0c                lua_settable
                0x00001c68                lua_setglobal
                0x00001d18                lua_createtable
                0x00001db4                lua_rawgetp
                0x00001e24                lua_rawget
                0x00001e84                lua_getfield
                0x00001f04                lua_gettable
                0x00001f48                lua_getglobal
                0x00001fdc                lua_pushcclosure
                0x000020c8                lua_pushvfstring
                0x0000211c                lua_pushfstring
                0x00002178                lua_rawlen
                0x000021fc                lua_tolstring
                0x000022a4                lua_tounsignedx
                0x0000235c                lua_tointegerx
                0x00002414                lua_tonumberx
                0x00002494                lua_isnumber
                0x000024d0                lua_rawequal
                0x00002564                lua_compare
                0x0000264c                lua_arith
                0x00002734                lua_checkstack
 .text          0x00002808     0x20c4 obj/default/lua/lauxlib.o
                0x00002808                luaL_buffinit
                0x00002840                luaL_newstate
                0x00002920                luaL_getsubtable
                0x000029c4                luaL_requiref
                0x00002ac0                luaL_newmetatable
                0x00002b54                luaL_getmetafield
                0x00002c08                luaL_callmeta
                0x00002c88                luaL_tolstring
                0x00002da4                luaL_pushresult
                0x00002e08                luaL_pushresultsize
                0x00002e18                luaL_loadbufferx
                0x00002e4c                luaL_loadstring
                0x00003020                luaL_loadfilex
                0x000032a8                luaL_unref
                0x00003338                luaL_ref
                0x00003418                luaL_testudata
                0x000034c4                luaL_setmetatable
                0x000034fc                luaL_fileresult
                0x000035b8                luaL_execresult
                0x00003654                luaL_where
                0x000036d8                luaL_error
                0x00003740                luaL_checkversion_
                0x00003860                luaL_len
                0x000038c8                luaL_prepbuffsize
                0x0000399c                luaL_buffinitsize
                0x000039d4                luaL_addlstring
                0x00003a30                luaL_addvalue
                0x00003abc                luaL_addstring
                0x00003afc                luaL_gsub
                0x00003bbc                luaL_checkstack
                0x00003c3c                luaL_setfuncs
                0x00003ec8                luaL_argerror
                0x00003fe4                luaL_checkany
                0x000040ac                luaL_checkudata
                0x0000416c                luaL_checkunsigned
                0x000041c8                luaL_optunsigned
                0x0000422c                luaL_checkinteger
                0x00004288                luaL_optinteger
                0x000042ec                luaL_checknumber
                0x00004350                luaL_optnumber
                0x000043c8                luaL_checklstring
                0x00004438                luaL_optlstring
                0x000044c8                luaL_checkoption
                0x0000459c                luaL_checktype
                0x00004600                luaL_traceback
 .text          0x000048cc     0x129c obj/default/lua/lbaselib.o
                0x000048cc                luaopen_base
 .text          0x00005b68      0x694 obj/default/lua/lbitlib.o
                0x00005b68                luaopen_bit32
 .text          0x000061fc     0x2220 obj/default/lua/lcode.o
                0x00006228                luaK_getlabel
                0x00006468                luaK_patchclose
                0x00006540                luaK_setoneret
                0x0000660c                luaK_fixline
                0x0000662c                luaK_checkstack
                0x00006670                luaK_reserveregs
                0x000066ac                luaK_setreturns
                0x000067f4                luaK_concat
                0x0000687c                luaK_patchtohere
                0x0000696c                luaK_patchlist
                0x00006ad8                luaK_codeABx
                0x00006aec                luaK_codek
                0x00006b70                luaK_jump
                0x00006bd0                luaK_codeABC
                0x00006bf0                luaK_setlist
                0x00006d24                luaK_dischargevars
                0x00006e9c                luaK_ret
                0x00006ec4                luaK_nil
                0x000071a4                luaK_stringK
                0x000071d0                luaK_numberK
                0x000075c8                luaK_exp2nextreg
                0x0000762c                luaK_exp2anyreg
                0x000076b8                luaK_exp2val
                0x000076cc                luaK_exp2RK
                0x00007a74                luaK_posfix
                0x00007ca8                luaK_indexed
                0x00007cfc                luaK_self
                0x00007da4                luaK_storevar
                0x00007e94                luaK_exp2anyregup
                0x00007f18                luaK_prefix
                0x000081ec                luaK_goiffalse
                0x0000827c                luaK_goiftrue
                0x00008328                luaK_infix
 .text          0x0000841c      0x54c obj/default/lua/lcorolib.o
                0x0000841c                luaopen_coroutine
 .text          0x00008968        0x0 obj/default/lua/lctype.o
 .text          0x00008968     0x1168 obj/default/lua/ldblib.o
                0x00008968                luaopen_debug
 .text          0x00009ad0     0x11a4 obj/default/lua/ldebug.o
                0x00009b40                lua_sethook
                0x00009b90                lua_gethook
                0x00009b98                lua_gethookmask
                0x00009ba0                lua_gethookcount
                0x00009ba8                lua_getstack
                0x00009c10                luaG_errormsg
                0x00009cd4                luaG_runerror
                0x00009d90                luaG_ordererror
                0x00009f40                lua_setlocal
                0x00009fa4                lua_getlocal
                0x0000a3cc                luaG_typeerror
                0x0000a520                luaG_aritherror
                0x0000a56c                luaG_concaterror
                0x0000a624                lua_getinfo
 .text          0x0000ac74     0x12dc obj/default/lua/ldo.o
                0x0000ad40                luaD_reallocstack
                0x0000ae98                luaD_shrinkstack
                0x0000af1c                luaD_rawrunprotected
                0x0000af8c                luaD_pcall
                0x0000b048                luaD_protectedparser
                0x0000b144                lua_resume
                0x0000b298                luaD_throw
                0x0000b388                lua_yieldk
                0x0000b420                luaD_growstack
                0x0000b688                luaD_hook
                0x0000b77c                luaD_poscall
                0x0000b96c                luaD_precall
                0x0000be58                luaD_call
 .text          0x0000bf50      0x4b4 obj/default/lua/ldump.o
                0x0000c398                luaU_dump
 .text          0x0000c404      0x4f0 obj/default/lua/lfunc.o
                0x0000c41c                luaF_getlocalname
                0x0000c478                luaF_freeclosure
                0x0000c4ac                luaF_freeproto
                0x0000c58c                luaF_freeupval
                0x0000c5d4                luaF_newproto
                0x0000c648                luaF_findupval
                0x0000c71c                luaF_newupval
                0x0000c750                luaF_newLclosure
                0x0000c7d8                luaF_newCclosure
                0x0000c81c                luaF_close
 .text          0x0000c8f4     0x1ba4 obj/default/lua/lgc.o
                0x0000c964                luaC_barrierback_
                0x0000cad4                luaC_checkupvalcolor
                0x0000cb4c                luaC_barrier_
                0x0000cb98                luaC_barrierproto_
                0x0000d274                luaC_checkfinalizer
                0x0000da0c                luaC_newobj
                0x0000dcd0                luaC_freeallobjects
                0x0000e13c                luaC_runtilstate
                0x0000e1a0                luaC_fullgc
                0x0000e2b0                luaC_forcestep
                0x0000e408                luaC_step
                0x0000e41c                luaC_changemode
 .text          0x0000e498       0xbc obj/default/lua/linit.o
                0x0000e498                luaL_openlibs
 .text          0x0000e554     0x14f4 obj/default/lua/liolib.o
                0x0000f6e0                luaopen_io
 .text          0x0000fa48     0x1968 obj/default/lua/llex.o
                0x0000fa98                luaX_token2str
                0x0000feb4                luaX_syntaxerror
                0x0000ffa4                luaX_setinput
                0x0001004c                luaX_init
                0x000100bc                luaX_newstring
                0x0001131c                luaX_lookahead
                0x00011348                luaX_next
 .text          0x000113b0      0xe0c obj/default/lua/lmathlib.o
                0x000113b0                luaopen_math
 .text          0x000121bc      0x198 obj/default/lua/lmem.o
                0x000121bc                luaM_realloc_
                0x00012290                luaM_toobig
                0x000122a4                luaM_growaux_
 .text          0x00012354      0xed4 obj/default/lua/loadlib.o
                0x00012fdc                luaopen_package
 .text          0x00013228      0xb9c obj/default/lua/lobject.o
                0x00013228                luaO_int2fb
                0x00013274                luaO_fb2int
                0x00013298                luaO_ceillog2
                0x000132e8                luaO_hexavalue
                0x00013468                luaO_chunkid
                0x000136b0                luaO_pushvfstring
                0x00013934                luaO_pushfstring
                0x00013960                luaO_str2d
                0x00013c2c                luaO_arith
 .text          0x00013dc4        0x0 obj/default/lua/lopcodes.o
 .text          0x00013dc4      0x97c obj/default/lua/loslib.o
                0x00013dc4                luaopen_os
 .text          0x00014740     0x31f8 obj/default/lua/lparser.o
                0x000174b8                luaY_parser
 .text          0x00017938      0x61c obj/default/lua/lstate.o
                0x00017938                luaE_setdebt
                0x00017a40                luaE_freeCI
                0x00017aec                luaE_freethread
                0x00017bd0                lua_close
                0x00017bdc                luaE_extendCI
                0x00017c20                lua_newstate
                0x00017eac                lua_newthread
 .text          0x00017f54      0x3dc obj/default/lua/lstring.o
                0x00017f54                luaS_newudata
                0x00017fac                luaS_resize
                0x00018120                luaS_newlstr
                0x000182f0                luaS_new
 .text          0x00018330     0x23c4 obj/default/lua/lstrlib.o
                0x0001a624                luaopen_string
 .text          0x0001a6f4     0x1270 obj/default/lua/ltable.o
                0x0001a9a0                luaH_getint
                0x0001aa7c                luaH_getstr
                0x0001aad8                luaH_getn
                0x0001ac74                luaH_get
                0x0001add8                luaH_next
                0x0001b0c0                luaH_free
                0x0001b240                luaH_new
                0x0001b2a8                luaH_resize
                0x0001b4a8                luaH_newkey
                0x0001b820                luaH_setint
                0x0001b8cc                luaH_set
                0x0001b940                luaH_resizearray
 .text          0x0001b964      0xa44 obj/default/lua/ltablib.o
                0x0001b964                luaopen_table
 .text          0x0001c3a8      0x178 obj/default/lua/ltm.o
                0x0001c3a8                luaT_gettmbyobj
                0x0001c418                luaT_gettm
                0x0001c48c                luaT_init
 .text          0x0001c520      0x858 obj/default/lua/lundump.o
                0x0001c520                luaU_header
                0x0001cc08                luaU_undump
 .text          0x0001cd78     0x2b48 obj/default/lua/lvm.o
                0x0001d0f0                luaV_equalobj_
                0x0001d280                luaV_objlen
                0x0001d460                luaV_lessequal
                0x0001d578                luaV_lessthan
                0x0001d654                luaV_gettable
                0x0001d7b0                luaV_settable
                0x0001d980                luaV_tostring
                0x0001da18                luaV_concat
                0x0001dc84                luaV_finishOp
                0x0001def0                luaV_tonumber
                0x0001df80                luaV_arith
                0x0001e068                luaV_execute
 .text          0x0001f8c0      0x1c0 obj/default/lua/lzio.o
                0x0001f8c0                luaZ_fill
                0x0001f930                luaZ_init
                0x0001f948                luaZ_openspace
                0x0001f9c0                luaZ_read
 .text          0x0001fa80      0x234 obj/default/min.o
                0x0001fa80                print_sysinfo
                0x0001fba8                main
 .text          0x0001fcb4     0x3e90 obj/default/mmcfs/fatfs/ff.o
                0x0001fd20                clust2sect
                0x0001fd4c                gen_numname
                0x0001fee4                f_mount
                0x000208d8                put_fat
                0x00020ab4                get_fat
                0x00020c8c                f_getfree
                0x00020e7c                f_read
                0x000213ec                f_lseek
                0x000216b4                f_write
                0x00021e64                f_readdir
                0x00022710                f_stat
                0x000227c0                f_opendir
                0x00022c94                f_truncate
                0x00022efc                f_rename
                0x00023134                f_utime
                0x00023200                f_chmod
                0x000232d0                f_unlink
                0x00023444                f_mkdir
                0x0002370c                f_sync
                0x00023850                f_close
                0x0002387c                f_open
 .text          0x00023b44      0xa8c obj/default/mmcfs/fatfs/mmcbb.o
                0x00023ecc                disk_status
                0x00023f90                disk_ioctl
                0x0002411c                disk_write
                0x0002429c                disk_read
                0x000243d8                disk_initialize
 .text          0x000245d0       0xe4 obj/default/mmcfs/fatfs/option/cc932.o
                0x000245d0                ff_convert
                0x00024660                ff_wtoupper
 .text          0x000246b4        0x8 obj/default/mmcfs/gettime.o
                0x000246b4                get_fattime
 .text          0x000246bc      0x294 obj/default/mmcfs/mmc_spi.o
                0x000246bc                mmc_spi_CheckTimer
                0x000246cc                mmc_spi_CheckCardDetect
                0x000246e4                mmc_spi_CheckWritePortect
                0x00024718                mmc_spi_Wait100us
                0x00024738                mmc_spi_SetTimer
                0x0002474c                mmc_spi_SetTransClock
                0x0002475c                mmc_spi_SetIdentClock
                0x0002476c                mmc_spi_DmaRecv
                0x0002489c                mmc_spi_Recvbyte
                0x000248d0                mmc_spi_Sendbyte
                0x000248f4                mmc_spi_SetCardDeselect
                0x0002490c                mmc_spi_InitSocket
                0x0002493c                mmc_spi_SetCardSelect
 .text          0x00024950      0x308 obj/default/mmcfs/mmcfs.o
                0x00024950                dev_mmcfs_fstat
                0x00024980                mmcfs_setup
                0x000249ec                dev_mmcfs_lseek
                0x00024a5c                dev_mmcfs_write
                0x00024a8c                dev_mmcfs_read
                0x00024abc                dev_mmcfs_close
                0x00024b30                dev_mmcfs_open
 .text          0x00024c58      0x698 c:/develop/altera/11.1/nios2eds/bin/gnu/h-i686-mingw32/bin/../lib/gcc/nios2-elf/4.1.2/../../../../nios2-elf/lib\libm.a(lib_a-s_atan.o)
                0x00024c58                atan
 .text          0x000252f0      0x214 c:/develop/altera/11.1/nios2eds/bin/gnu/h-i686-mingw32/bin/../lib/gcc/nios2-elf/4.1.2/../../../../nios2-elf/lib\libm.a(lib_a-s_ceil.o)
                0x000252f0                ceil
 .text          0x00025504      0x168 c:/develop/altera/11.1/nios2eds/bin/gnu/h-i686-mingw32/bin/../lib/gcc/nios2-elf/4.1.2/../../../../nios2-elf/lib\libm.a(lib_a-s_cos.o)
                0x00025504                cos
 .text          0x0002566c       0x18 c:/develop/altera/11.1/nios2eds/bin/gnu/h-i686-mingw32/bin/../lib/gcc/nios2-elf/4.1.2/../../../../nios2-elf/lib\libm.a(lib_a-s_fabs.o)
                0x0002566c                fabs
 .text          0x00025684      0x224 c:/develop/altera/11.1/nios2eds/bin/gnu/h-i686-mingw32/bin/../lib/gcc/nios2-elf/4.1.2/../../../../nios2-elf/lib\libm.a(lib_a-s_floor.o)
                0x00025684                floor
 .text          0x000258a8       0xc0 c:/develop/altera/11.1/nios2eds/bin/gnu/h-i686-mingw32/bin/../lib/gcc/nios2-elf/4.1.2/../../../../nios2-elf/lib\libm.a(lib_a-s_frexp.o)
                0x000258a8                frexp
 .text          0x00025968       0xcc c:/develop/altera/11.1/nios2eds/bin/gnu/h-i686-mingw32/bin/../lib/gcc/nios2-elf/4.1.2/../../../../nios2-elf/lib\libm.a(lib_a-s_ldexp.o)
                0x00025968                ldexp
 .text          0x00025a34      0x14c c:/develop/altera/11.1/nios2eds/bin/gnu/h-i686-mingw32/bin/../lib/gcc/nios2-elf/4.1.2/../../../../nios2-elf/lib\libm.a(lib_a-s_modf.o)
                0x00025a34                modf
 .text          0x00025b80      0x1e0 c:/develop/altera/11.1/nios2eds/bin/gnu/h-i686-mingw32/bin/../lib/gcc/nios2-elf/4.1.2/../../../../nios2-elf/lib\libm.a(lib_a-s_scalbn.o)
                0x00025b80                scalbn
 .text          0x00025d60      0x16c c:/develop/altera/11.1/nios2eds/bin/gnu/h-i686-mingw32/bin/../lib/gcc/nios2-elf/4.1.2/../../../../nios2-elf/lib\libm.a(lib_a-s_sin.o)
                0x00025d60                sin
 .text          0x00025ecc       0xe8 c:/develop/altera/11.1/nios2eds/bin/gnu/h-i686-mingw32/bin/../lib/gcc/nios2-elf/4.1.2/../../../../nios2-elf/lib\libm.a(lib_a-s_tan.o)
                0x00025ecc                tan
 .text          0x00025fb4      0x24c c:/develop/altera/11.1/nios2eds/bin/gnu/h-i686-mingw32/bin/../lib/gcc/nios2-elf/4.1.2/../../../../nios2-elf/lib\libm.a(lib_a-s_tanh.o)
                0x00025fb4                tanh
 .text          0x00026200      0x130 c:/develop/altera/11.1/nios2eds/bin/gnu/h-i686-mingw32/bin/../lib/gcc/nios2-elf/4.1.2/../../../../nios2-elf/lib\libm.a(lib_a-w_acos.o)
                0x00026200                acos
 .text          0x00026330      0x130 c:/develop/altera/11.1/nios2eds/bin/gnu/h-i686-mingw32/bin/../lib/gcc/nios2-elf/4.1.2/../../../../nios2-elf/lib\libm.a(lib_a-w_asin.o)
                0x00026330                asin
 .text          0x00026460        0x4 c:/develop/altera/11.1/nios2eds/bin/gnu/h-i686-mingw32/bin/../lib/gcc/nios2-elf/4.1.2/../../../../nios2-elf/lib\libm.a(lib_a-w_atan2.o)
                0x00026460                atan2
 .text          0x00026464      0x148 c:/develop/altera/11.1/nios2eds/bin/gnu/h-i686-mingw32/bin/../lib/gcc/nios2-elf/4.1.2/../../../../nios2-elf/lib\libm.a(lib_a-w_cosh.o)
                0x00026464                cosh
 .text          0x000265ac      0x1ac c:/develop/altera/11.1/nios2eds/bin/gnu/h-i686-mingw32/bin/../lib/gcc/nios2-elf/4.1.2/../../../../nios2-elf/lib\libm.a(lib_a-w_exp.o)
                0x000265ac                exp
 .text          0x00026758      0x158 c:/develop/altera/11.1/nios2eds/bin/gnu/h-i686-mingw32/bin/../lib/gcc/nios2-elf/4.1.2/../../../../nios2-elf/lib\libm.a(lib_a-w_fmod.o)
                0x00026758                fmod
 .text          0x000268b0      0x188 c:/develop/altera/11.1/nios2eds/bin/gnu/h-i686-mingw32/bin/../lib/gcc/nios2-elf/4.1.2/../../../../nios2-elf/lib\libm.a(lib_a-w_log.o)
                0x000268b0                log
 .text          0x00026a38      0x188 c:/develop/altera/11.1/nios2eds/bin/gnu/h-i686-mingw32/bin/../lib/gcc/nios2-elf/4.1.2/../../../../nios2-elf/lib\libm.a(lib_a-w_log10.o)
                0x00026a38                log10
 .text          0x00026bc0      0x488 c:/develop/altera/11.1/nios2eds/bin/gnu/h-i686-mingw32/bin/../lib/gcc/nios2-elf/4.1.2/../../../../nios2-elf/lib\libm.a(lib_a-w_pow.o)
                0x00026bc0                pow
 .text          0x00027048      0x174 c:/develop/altera/11.1/nios2eds/bin/gnu/h-i686-mingw32/bin/../lib/gcc/nios2-elf/4.1.2/../../../../nios2-elf/lib\libm.a(lib_a-w_sinh.o)
                0x00027048                sinh
 .text          0x000271bc      0x130 c:/develop/altera/11.1/nios2eds/bin/gnu/h-i686-mingw32/bin/../lib/gcc/nios2-elf/4.1.2/../../../../nios2-elf/lib\libm.a(lib_a-w_sqrt.o)
                0x000271bc                sqrt
 .text          0x000272ec      0xa58 c:/develop/altera/11.1/nios2eds/bin/gnu/h-i686-mingw32/bin/../lib/gcc/nios2-elf/4.1.2/../../../../nios2-elf/lib\libm.a(lib_a-e_acos.o)
                0x000272ec                __ieee754_acos
 .text          0x00027d44      0x8bc c:/develop/altera/11.1/nios2eds/bin/gnu/h-i686-mingw32/bin/../lib/gcc/nios2-elf/4.1.2/../../../../nios2-elf/lib\libm.a(lib_a-e_asin.o)
                0x00027d44                __ieee754_asin
 .text          0x00028600      0x350 c:/develop/altera/11.1/nios2eds/bin/gnu/h-i686-mingw32/bin/../lib/gcc/nios2-elf/4.1.2/../../../../nios2-elf/lib\libm.a(lib_a-e_atan2.o)
                0x00028600                __ieee754_atan2
 .text          0x00028950      0x2a4 c:/develop/altera/11.1/nios2eds/bin/gnu/h-i686-mingw32/bin/../lib/gcc/nios2-elf/4.1.2/../../../../nios2-elf/lib\libm.a(lib_a-e_cosh.o)
                0x00028950                __ieee754_cosh
 .text          0x00028bf4      0x5d0 c:/develop/altera/11.1/nios2eds/bin/gnu/h-i686-mingw32/bin/../lib/gcc/nios2-elf/4.1.2/../../../../nios2-elf/lib\libm.a(lib_a-e_exp.o)
                0x00028bf4                __ieee754_exp
 .text          0x000291c4      0x38c c:/develop/altera/11.1/nios2eds/bin/gnu/h-i686-mingw32/bin/../lib/gcc/nios2-elf/4.1.2/../../../../nios2-elf/lib\libm.a(lib_a-e_fmod.o)
                0x000291c4                __ieee754_fmod
 .text          0x00029550      0x7f8 c:/develop/altera/11.1/nios2eds/bin/gnu/h-i686-mingw32/bin/../lib/gcc/nios2-elf/4.1.2/../../../../nios2-elf/lib\libm.a(lib_a-e_log.o)
                0x00029550                __ieee754_log
 .text          0x00029d48      0x218 c:/develop/altera/11.1/nios2eds/bin/gnu/h-i686-mingw32/bin/../lib/gcc/nios2-elf/4.1.2/../../../../nios2-elf/lib\libm.a(lib_a-e_log10.o)
                0x00029d48                __ieee754_log10
 .text          0x00029f60     0x1300 c:/develop/altera/11.1/nios2eds/bin/gnu/h-i686-mingw32/bin/../lib/gcc/nios2-elf/4.1.2/../../../../nios2-elf/lib\libm.a(lib_a-e_pow.o)
                0x00029f60                __ieee754_pow
 .text          0x0002b260      0x828 c:/develop/altera/11.1/nios2eds/bin/gnu/h-i686-mingw32/bin/../lib/gcc/nios2-elf/4.1.2/../../../../nios2-elf/lib\libm.a(lib_a-e_rem_pio2.o)
                0x0002b260                __ieee754_rem_pio2
 .text          0x0002ba88      0x2f8 c:/develop/altera/11.1/nios2eds/bin/gnu/h-i686-mingw32/bin/../lib/gcc/nios2-elf/4.1.2/../../../../nios2-elf/lib\libm.a(lib_a-e_sinh.o)
                0x0002ba88                __ieee754_sinh
 .text          0x0002bd80      0x2c8 c:/develop/altera/11.1/nios2eds/bin/gnu/h-i686-mingw32/bin/../lib/gcc/nios2-elf/4.1.2/../../../../nios2-elf/lib\libm.a(lib_a-e_sqrt.o)
                0x0002bd80                __ieee754_sqrt
 .text          0x0002c048      0x52c c:/develop/altera/11.1/nios2eds/bin/gnu/h-i686-mingw32/bin/../lib/gcc/nios2-elf/4.1.2/../../../../nios2-elf/lib\libm.a(lib_a-k_cos.o)
                0x0002c048                __kernel_cos
 .text          0x0002c574      0xe7c c:/develop/altera/11.1/nios2eds/bin/gnu/h-i686-mingw32/bin/../lib/gcc/nios2-elf/4.1.2/../../../../nios2-elf/lib\libm.a(lib_a-k_rem_pio2.o)
                0x0002c574                __kernel_rem_pio2
 .text          0x0002d3f0      0x318 c:/develop/altera/11.1/nios2eds/bin/gnu/h-i686-mingw32/bin/../lib/gcc/nios2-elf/4.1.2/../../../../nios2-elf/lib\libm.a(lib_a-k_sin.o)
                0x0002d3f0                __kernel_sin
 .text          0x0002d708      0x77c c:/develop/altera/11.1/nios2eds/bin/gnu/h-i686-mingw32/bin/../lib/gcc/nios2-elf/4.1.2/../../../../nios2-elf/lib\libm.a(lib_a-k_tan.o)
                0x0002d708                __kernel_tan
 .text          0x0002de84       0x24 c:/develop/altera/11.1/nios2eds/bin/gnu/h-i686-mingw32/bin/../lib/gcc/nios2-elf/4.1.2/../../../../nios2-elf/lib\libm.a(lib_a-s_copysign.o)
                0x0002de84                copysign
 .text          0x0002dea8      0x8f0 c:/develop/altera/11.1/nios2eds/bin/gnu/h-i686-mingw32/bin/../lib/gcc/nios2-elf/4.1.2/../../../../nios2-elf/lib\libm.a(lib_a-s_expm1.o)
                0x0002dea8                expm1
 .text          0x0002e798       0x1c c:/develop/altera/11.1/nios2eds/bin/gnu/h-i686-mingw32/bin/../lib/gcc/nios2-elf/4.1.2/../../../../nios2-elf/lib\libm.a(lib_a-s_finite.o)
                0x0002e798                finite
 .text          0x0002e7b4       0x30 c:/develop/altera/11.1/nios2eds/bin/gnu/h-i686-mingw32/bin/../lib/gcc/nios2-elf/4.1.2/../../../../nios2-elf/lib\libm.a(lib_a-s_isnand.o)
                0x0002e7b4                __isnand
 .text          0x0002e7e4        0x0 c:/develop/altera/11.1/nios2eds/bin/gnu/h-i686-mingw32/bin/../lib/gcc/nios2-elf/4.1.2/../../../../nios2-elf/lib\libm.a(lib_a-s_lib_ver.o)
 .text          0x0002e7e4        0x8 c:/develop/altera/11.1/nios2eds/bin/gnu/h-i686-mingw32/bin/../lib/gcc/nios2-elf/4.1.2/../../../../nios2-elf/lib\libm.a(lib_a-s_matherr.o)
                0x0002e7e4                matherr
 .text          0x0002e7ec       0x10 c:/develop/altera/11.1/nios2eds/bin/gnu/h-i686-mingw32/bin/../lib/gcc/nios2-elf/4.1.2/../../../../nios2-elf/lib\libm.a(lib_a-s_nan.o)
                0x0002e7ec                nan
 .text          0x0002e7fc      0x210 c:/develop/altera/11.1/nios2eds/bin/gnu/h-i686-mingw32/bin/../lib/gcc/nios2-elf/4.1.2/../../../../nios2-elf/lib\libm.a(lib_a-s_rint.o)
                0x0002e7fc                rint
 .text          0x0002ea0c       0xa4 c:/develop/altera/11.1/nios2eds/bin/gnu/h-i686-mingw32/bin/../lib/gcc/nios2-elf/4.1.2\libgcc.a(_fixunsdfsi.o)
                0x0002ea0c                __fixunsdfsi
 .text          0x0002eab0      0x504 c:/develop/altera/11.1/nios2eds/bin/gnu/h-i686-mingw32/bin/../lib/gcc/nios2-elf/4.1.2\libgcc.a(_addsub_df.o)
                0x0002eec0                __subdf3
                0x0002ef40                __adddf3
 .text          0x0002efb4      0x3c4 c:/develop/altera/11.1/nios2eds/bin/gnu/h-i686-mingw32/bin/../lib/gcc/nios2-elf/4.1.2\libgcc.a(_mul_df.o)
                0x0002efb4                __muldf3
 .text          0x0002f378      0x258 c:/develop/altera/11.1/nios2eds/bin/gnu/h-i686-mingw32/bin/../lib/gcc/nios2-elf/4.1.2\libgcc.a(_div_df.o)
                0x0002f378                __divdf3
 .text          0x0002f5d0       0x88 c:/develop/altera/11.1/nios2eds/bin/gnu/h-i686-mingw32/bin/../lib/gcc/nios2-elf/4.1.2\libgcc.a(_eq_df.o)
                0x0002f5d0                __eqdf2
 .text          0x0002f658       0x88 c:/develop/altera/11.1/nios2eds/bin/gnu/h-i686-mingw32/bin/../lib/gcc/nios2-elf/4.1.2\libgcc.a(_ne_df.o)
                0x0002f658                __nedf2
 .text          0x0002f6e0       0x88 c:/develop/altera/11.1/nios2eds/bin/gnu/h-i686-mingw32/bin/../lib/gcc/nios2-elf/4.1.2\libgcc.a(_gt_df.o)
                0x0002f6e0                __gtdf2
 .text          0x0002f768       0x88 c:/develop/altera/11.1/nios2eds/bin/gnu/h-i686-mingw32/bin/../lib/gcc/nios2-elf/4.1.2\libgcc.a(_ge_df.o)
                0x0002f768                __gedf2
 .text          0x0002f7f0       0x88 c:/develop/altera/11.1/nios2eds/bin/gnu/h-i686-mingw32/bin/../lib/gcc/nios2-elf/4.1.2\libgcc.a(_lt_df.o)
                0x0002f7f0                __ltdf2
 .text          0x0002f878       0x88 c:/develop/altera/11.1/nios2eds/bin/gnu/h-i686-mingw32/bin/../lib/gcc/nios2-elf/4.1.2\libgcc.a(_le_df.o)
                0x0002f878                __ledf2
 .text          0x0002f900       0xf8 c:/develop/altera/11.1/nios2eds/bin/gnu/h-i686-mingw32/bin/../lib/gcc/nios2-elf/4.1.2\libgcc.a(_si_to_df.o)
                0x0002f900                __floatsidf
 .text          0x0002f9f8       0xd8 c:/develop/altera/11.1/nios2eds/bin/gnu/h-i686-mingw32/bin/../lib/gcc/nios2-elf/4.1.2\libgcc.a(_df_to_si.o)
                0x0002f9f8                __fixdfsi
 .text          0x0002fad0        0x0 c:/develop/altera/11.1/nios2eds/bin/gnu/h-i686-mingw32/bin/../lib/gcc/nios2-elf/4.1.2\libgcc.a(_thenan_df.o)
 .text          0x0002fad0      0x194 c:/develop/altera/11.1/nios2eds/bin/gnu/h-i686-mingw32/bin/../lib/gcc/nios2-elf/4.1.2\libgcc.a(_usi_to_df.o)
                0x0002fad0                __floatunsidf
 .text          0x0002fc64      0x14c c:/develop/altera/11.1/nios2eds/bin/gnu/h-i686-mingw32/bin/../lib/gcc/nios2-elf/4.1.2\libgcc.a(lib2-divmod.o)
                0x0002fce0                __divsi3
                0x0002fd40                __modsi3
                0x0002fda0                __udivsi3
                0x0002fda8                __umodsi3
 .text          0x0002fdb0       0x98 c:/develop/altera/11.1/nios2eds/bin/gnu/h-i686-mingw32/bin/../lib/gcc/nios2-elf/4.1.2\libgcc.a(_muldi3.o)
                0x0002fdb0                __muldi3
 .text          0x0002fe48       0x80 c:/develop/altera/11.1/nios2eds/bin/gnu/h-i686-mingw32/bin/../lib/gcc/nios2-elf/4.1.2\libgcc.a(_clzsi2.o)
                0x0002fe48                __clzsi2
 .text          0x0002fec8      0x314 c:/develop/altera/11.1/nios2eds/bin/gnu/h-i686-mingw32/bin/../lib/gcc/nios2-elf/4.1.2\libgcc.a(_pack_df.o)
                0x0002fec8                __pack_d
 .text          0x000301dc      0x138 c:/develop/altera/11.1/nios2eds/bin/gnu/h-i686-mingw32/bin/../lib/gcc/nios2-elf/4.1.2\libgcc.a(_unpack_df.o)
                0x000301dc                __unpack_d
 .text          0x00030314       0xc8 c:/develop/altera/11.1/nios2eds/bin/gnu/h-i686-mingw32/bin/../lib/gcc/nios2-elf/4.1.2\libgcc.a(_fpcmp_parts_df.o)
                0x00030314                __fpcmp_parts_d
 .text          0x000303dc        0x0 c:/develop/altera/11.1/nios2eds/bin/gnu/h-i686-mingw32/bin/../lib/gcc/nios2-elf/4.1.2\libgcc.a(_clz.o)
 .text          0x000303dc       0x18 c:/develop/altera/11.1/nios2eds/bin/gnu/h-i686-mingw32/bin/../lib/gcc/nios2-elf/4.1.2/../../../../nios2-elf/lib\libc.a(lib_a-abort.o)
                0x000303dc                abort
 .text          0x000303f4       0x54 c:/develop/altera/11.1/nios2eds/bin/gnu/h-i686-mingw32/bin/../lib/gcc/nios2-elf/4.1.2/../../../../nios2-elf/lib\libc.a(lib_a-clock.o)
                0x000303f4                clock
 .text          0x00030448        0x0 c:/develop/altera/11.1/nios2eds/bin/gnu/h-i686-mingw32/bin/../lib/gcc/nios2-elf/4.1.2/../../../../nios2-elf/lib\libc.a(lib_a-ctype_.o)
 .text          0x00030448       0x1c c:/develop/altera/11.1/nios2eds/bin/gnu/h-i686-mingw32/bin/../lib/gcc/nios2-elf/4.1.2/../../../../nios2-elf/lib\libc.a(lib_a-difftime.o)
                0x00030448                difftime
 .text          0x00030464       0x10 c:/develop/altera/11.1/nios2eds/bin/gnu/h-i686-mingw32/bin/../lib/gcc/nios2-elf/4.1.2/../../../../nios2-elf/lib\libc.a(lib_a-errno.o)
                0x00030464                __errno
 .text          0x00030474       0x38 c:/develop/altera/11.1/nios2eds/bin/gnu/h-i686-mingw32/bin/../lib/gcc/nios2-elf/4.1.2/../../../../nios2-elf/lib\libc.a(lib_a-exit.o)
                0x00030474                exit
 .text          0x000304ac      0x124 c:/develop/altera/11.1/nios2eds/bin/gnu/h-i686-mingw32/bin/../lib/gcc/nios2-elf/4.1.2/../../../../nios2-elf/lib\libc.a(lib_a-fclose.o)
                0x000304ac                _fclose_r
                0x000305bc                fclose
 .text          0x000305d0      0x230 c:/develop/altera/11.1/nios2eds/bin/gnu/h-i686-mingw32/bin/../lib/gcc/nios2-elf/4.1.2/../../../../nios2-elf/lib\libc.a(lib_a-fflush.o)
                0x000305d0                _fflush_r
                0x000307cc                fflush
 .text          0x00030800      0x16c c:/develop/altera/11.1/nios2eds/bin/gnu/h-i686-mingw32/bin/../lib/gcc/nios2-elf/4.1.2/../../../../nios2-elf/lib\libc.a(lib_a-fgets.o)
                0x00030800                _fgets_r
                0x00030948                fgets
 .text          0x0003096c      0x2c0 c:/develop/altera/11.1/nios2eds/bin/gnu/h-i686-mingw32/bin/../lib/gcc/nios2-elf/4.1.2/../../../../nios2-elf/lib\libc.a(lib_a-findfp.o)
                0x000309c4                __sfp_lock_acquire
                0x000309c8                __sfp_lock_release
                0x000309cc                __sinit_lock_acquire
                0x000309d0                __sinit_lock_release
                0x000309d4                __sinit
                0x00030a88                __fp_unlock_all
                0x00030aa0                __fp_lock_all
                0x00030ab8                _cleanup_r
                0x00030ac4                _cleanup
                0x00030ad4                __sfmoreglue
                0x00030b3c                __sfp
 .text          0x00030c2c      0x110 c:/develop/altera/11.1/nios2eds/bin/gnu/h-i686-mingw32/bin/../lib/gcc/nios2-elf/4.1.2/../../../../nios2-elf/lib\libc.a(lib_a-fopen.o)
                0x00030c2c                _fopen_r
                0x00030d20                fopen
 .text          0x00030d3c       0x60 c:/develop/altera/11.1/nios2eds/bin/gnu/h-i686-mingw32/bin/../lib/gcc/nios2-elf/4.1.2/../../../../nios2-elf/lib\libc.a(lib_a-fprintf.o)
                0x00030d3c                fprintf
                0x00030d68                _fprintf_r
 .text          0x00030d9c      0x23c c:/develop/altera/11.1/nios2eds/bin/gnu/h-i686-mingw32/bin/../lib/gcc/nios2-elf/4.1.2/../../../../nios2-elf/lib\libc.a(lib_a-fread.o)
                0x00030d9c                _fread_r
                0x00030f98                fread
 .text          0x00030fd8      0x440 c:/develop/altera/11.1/nios2eds/bin/gnu/h-i686-mingw32/bin/../lib/gcc/nios2-elf/4.1.2/../../../../nios2-elf/lib\libc.a(lib_a-freer.o)
                0x00030fd8                _malloc_trim_r
                0x00031104                _free_r
 .text          0x00031418      0x214 c:/develop/altera/11.1/nios2eds/bin/gnu/h-i686-mingw32/bin/../lib/gcc/nios2-elf/4.1.2/../../../../nios2-elf/lib\libc.a(lib_a-freopen.o)
                0x00031418                _freopen_r
                0x00031608                freopen
 .text          0x0003162c       0x6c c:/develop/altera/11.1/nios2eds/bin/gnu/h-i686-mingw32/bin/../lib/gcc/nios2-elf/4.1.2/../../../../nios2-elf/lib\libc.a(lib_a-fscanf.o)
                0x0003162c                _fscanf_r
                0x00031654                fscanf
 .text          0x00031698      0x460 c:/develop/altera/11.1/nios2eds/bin/gnu/h-i686-mingw32/bin/../lib/gcc/nios2-elf/4.1.2/../../../../nios2-elf/lib\libc.a(lib_a-fseek.o)
                0x00031698                _fseek_r
                0x00031ad4                fseek
 .text          0x00031af8       0x74 c:/develop/altera/11.1/nios2eds/bin/gnu/h-i686-mingw32/bin/../lib/gcc/nios2-elf/4.1.2/../../../../nios2-elf/lib\libc.a(lib_a-fstatr.o)
                0x00031af8                _fstat_r
 .text          0x00031b6c      0x10c c:/develop/altera/11.1/nios2eds/bin/gnu/h-i686-mingw32/bin/../lib/gcc/nios2-elf/4.1.2/../../../../nios2-elf/lib\libc.a(lib_a-ftell.o)
                0x00031b6c                _ftell_r
                0x00031c64                ftell
 .text          0x00031c78      0x180 c:/develop/altera/11.1/nios2eds/bin/gnu/h-i686-mingw32/bin/../lib/gcc/nios2-elf/4.1.2/../../../../nios2-elf/lib\libc.a(lib_a-fwalk.o)
                0x00031c78                _fwalk_reent
                0x00031d40                _fwalk
 .text          0x00031df8       0xdc c:/develop/altera/11.1/nios2eds/bin/gnu/h-i686-mingw32/bin/../lib/gcc/nios2-elf/4.1.2/../../../../nios2-elf/lib\libc.a(lib_a-fwrite.o)
                0x00031df8                _fwrite_r
                0x00031e94                fwrite
 .text          0x00031ed4      0x128 c:/develop/altera/11.1/nios2eds/bin/gnu/h-i686-mingw32/bin/../lib/gcc/nios2-elf/4.1.2/../../../../nios2-elf/lib\libc.a(lib_a-getc.o)
                0x00031ed4                getc
                0x00031f6c                _getc_r
 .text          0x00031ffc       0x48 c:/develop/altera/11.1/nios2eds/bin/gnu/h-i686-mingw32/bin/../lib/gcc/nios2-elf/4.1.2/../../../../nios2-elf/lib\libc.a(lib_a-getenv.o)
                0x00031ffc                getenv
                0x00032028                _findenv
 .text          0x00032044      0x128 c:/develop/altera/11.1/nios2eds/bin/gnu/h-i686-mingw32/bin/../lib/gcc/nios2-elf/4.1.2/../../../../nios2-elf/lib\libc.a(lib_a-getenv_r.o)
                0x00032044                _findenv_r
                0x00032150                _getenv_r
 .text          0x0003216c       0x14 c:/develop/altera/11.1/nios2eds/bin/gnu/h-i686-mingw32/bin/../lib/gcc/nios2-elf/4.1.2/../../../../nios2-elf/lib\libc.a(lib_a-gmtime.o)
                0x0003216c                gmtime
 .text          0x00032180        0x8 c:/develop/altera/11.1/nios2eds/bin/gnu/h-i686-mingw32/bin/../lib/gcc/nios2-elf/4.1.2/../../../../nios2-elf/lib\libc.a(lib_a-gmtime_r.o)
                0x00032180                gmtime_r
 .text          0x00032188        0x0 c:/develop/altera/11.1/nios2eds/bin/gnu/h-i686-mingw32/bin/../lib/gcc/nios2-elf/4.1.2/../../../../nios2-elf/lib\libc.a(lib_a-impure.o)
 .text          0x00032188        0x0 c:/develop/altera/11.1/nios2eds/bin/gnu/h-i686-mingw32/bin/../lib/gcc/nios2-elf/4.1.2/../../../../nios2-elf/lib\libc.a(lib_a-int_errno.o)
 .text          0x00032188       0x14 c:/develop/altera/11.1/nios2eds/bin/gnu/h-i686-mingw32/bin/../lib/gcc/nios2-elf/4.1.2/../../../../nios2-elf/lib\libc.a(lib_a-lcltime.o)
                0x00032188                localtime
 .text          0x0003219c        0x8 c:/develop/altera/11.1/nios2eds/bin/gnu/h-i686-mingw32/bin/../lib/gcc/nios2-elf/4.1.2/../../../../nios2-elf/lib\libc.a(lib_a-lcltime_r.o)
                0x0003219c                localtime_r
 .text          0x000321a4       0xc4 c:/develop/altera/11.1/nios2eds/bin/gnu/h-i686-mingw32/bin/../lib/gcc/nios2-elf/4.1.2/../../../../nios2-elf/lib\libc.a(lib_a-locale.o)
                0x000321a4                __locale_charset
                0x000321ac                _localeconv_r
                0x000321b8                localeconv
                0x000321c8                _setlocale_r
                0x0003224c                setlocale
 .text          0x00032268      0x194 c:/develop/altera/11.1/nios2eds/bin/gnu/h-i686-mingw32/bin/../lib/gcc/nios2-elf/4.1.2/../../../../nios2-elf/lib\libc.a(lib_a-makebuf.o)
                0x00032268                __smakebuf_r
 .text          0x000323fc       0x28 c:/develop/altera/11.1/nios2eds/bin/gnu/h-i686-mingw32/bin/../lib/gcc/nios2-elf/4.1.2/../../../../nios2-elf/lib\libc.a(lib_a-malloc.o)
                0x000323fc                free
                0x00032410                malloc
 .text          0x00032424      0x740 c:/develop/altera/11.1/nios2eds/bin/gnu/h-i686-mingw32/bin/../lib/gcc/nios2-elf/4.1.2/../../../../nios2-elf/lib\libc.a(lib_a-mallocr.o)
                0x00032424                _malloc_r
 .text          0x00032b64       0xe4 c:/develop/altera/11.1/nios2eds/bin/gnu/h-i686-mingw32/bin/../lib/gcc/nios2-elf/4.1.2/../../../../nios2-elf/lib\libc.a(lib_a-memchr.o)
                0x00032b64                memchr
 .text          0x00032c48       0x74 c:/develop/altera/11.1/nios2eds/bin/gnu/h-i686-mingw32/bin/../lib/gcc/nios2-elf/4.1.2/../../../../nios2-elf/lib\libc.a(lib_a-memcmp.o)
                0x00032c48                memcmp
 .text          0x00032cbc       0xa0 c:/develop/altera/11.1/nios2eds/bin/gnu/h-i686-mingw32/bin/../lib/gcc/nios2-elf/4.1.2/../../../../nios2-elf/lib\libc.a(lib_a-memcpy.o)
                0x00032cbc                memcpy
 .text          0x00032d5c       0x98 c:/develop/altera/11.1/nios2eds/bin/gnu/h-i686-mingw32/bin/../lib/gcc/nios2-elf/4.1.2/../../../../nios2-elf/lib\libc.a(lib_a-memset.o)
                0x00032d5c                memset
 .text          0x00032df4      0x624 c:/develop/altera/11.1/nios2eds/bin/gnu/h-i686-mingw32/bin/../lib/gcc/nios2-elf/4.1.2/../../../../nios2-elf/lib\libc.a(lib_a-mktime.o)
                0x000330d8                mktime
 .text          0x00033418      0x71c c:/develop/altera/11.1/nios2eds/bin/gnu/h-i686-mingw32/bin/../lib/gcc/nios2-elf/4.1.2/../../../../nios2-elf/lib\libc.a(lib_a-mktm_r.o)
                0x00033418                __tzcalc_limits
                0x0003364c                _mktm_r
 .text          0x00033b34       0x78 c:/develop/altera/11.1/nios2eds/bin/gnu/h-i686-mingw32/bin/../lib/gcc/nios2-elf/4.1.2/../../../../nios2-elf/lib\libc.a(lib_a-openr.o)
                0x00033b34                _open_r
 .text          0x00033bac       0x78 c:/develop/altera/11.1/nios2eds/bin/gnu/h-i686-mingw32/bin/../lib/gcc/nios2-elf/4.1.2/../../../../nios2-elf/lib\libc.a(lib_a-printf.o)
                0x00033bac                printf
                0x00033bf0                _printf_r
 .text          0x00033c24       0x24 c:/develop/altera/11.1/nios2eds/bin/gnu/h-i686-mingw32/bin/../lib/gcc/nios2-elf/4.1.2/../../../../nios2-elf/lib\libc.a(lib_a-putchar.o)
                0x00033c24                putchar
                0x00033c40                _putchar_r
 .text          0x00033c48       0xb4 c:/develop/altera/11.1/nios2eds/bin/gnu/h-i686-mingw32/bin/../lib/gcc/nios2-elf/4.1.2/../../../../nios2-elf/lib\libc.a(lib_a-puts.o)
                0x00033c48                _puts_r
                0x00033ce8                puts
 .text          0x00033cfc       0x94 c:/develop/altera/11.1/nios2eds/bin/gnu/h-i686-mingw32/bin/../lib/gcc/nios2-elf/4.1.2/../../../../nios2-elf/lib\libc.a(lib_a-rand.o)
                0x00033cfc                srand
                0x00033d18                rand
 .text          0x00033d90       0x1c c:/develop/altera/11.1/nios2eds/bin/gnu/h-i686-mingw32/bin/../lib/gcc/nios2-elf/4.1.2/../../../../nios2-elf/lib\libc.a(lib_a-realloc.o)
                0x00033d90                realloc
 .text          0x00033dac      0x5f4 c:/develop/altera/11.1/nios2eds/bin/gnu/h-i686-mingw32/bin/../lib/gcc/nios2-elf/4.1.2/../../../../nios2-elf/lib\libc.a(lib_a-reallocr.o)
                0x00033dac                _realloc_r
 .text          0x000343a0      0x1e0 c:/develop/altera/11.1/nios2eds/bin/gnu/h-i686-mingw32/bin/../lib/gcc/nios2-elf/4.1.2/../../../../nios2-elf/lib\libc.a(lib_a-refill.o)
                0x000343a0                __srefill_r
 .text          0x00034580       0x60 c:/develop/altera/11.1/nios2eds/bin/gnu/h-i686-mingw32/bin/../lib/gcc/nios2-elf/4.1.2/../../../../nios2-elf/lib\libc.a(lib_a-rget.o)
                0x00034580                __srget_r
                0x000345cc                __srget
 .text          0x000345e0       0x70 c:/develop/altera/11.1/nios2eds/bin/gnu/h-i686-mingw32/bin/../lib/gcc/nios2-elf/4.1.2/../../../../nios2-elf/lib\libc.a(lib_a-sbrkr.o)
                0x000345e0                _sbrk_r
 .text          0x00034650       0x78 c:/develop/altera/11.1/nios2eds/bin/gnu/h-i686-mingw32/bin/../lib/gcc/nios2-elf/4.1.2/../../../../nios2-elf/lib\libc.a(lib_a-setjmp.o)
                0x00034650                setjmp
                0x00034688                longjmp
 .text          0x000346c8      0x1d0 c:/develop/altera/11.1/nios2eds/bin/gnu/h-i686-mingw32/bin/../lib/gcc/nios2-elf/4.1.2/../../../../nios2-elf/lib\libc.a(lib_a-setvbuf.o)
                0x000346c8                setvbuf
 .text          0x00034898      0x2d8 c:/develop/altera/11.1/nios2eds/bin/gnu/h-i686-mingw32/bin/../lib/gcc/nios2-elf/4.1.2/../../../../nios2-elf/lib\libc.a(lib_a-signal.o)
                0x00034898                _raise_r
                0x00034964                raise
                0x00034978                _init_signal_r
                0x000349dc                _init_signal
                0x000349ec                __sigtramp_r
                0x00034aa0                __sigtramp
                0x00034ab4                _signal_r
                0x00034b54                signal
 .text          0x00034b70       0x78 c:/develop/altera/11.1/nios2eds/bin/gnu/h-i686-mingw32/bin/../lib/gcc/nios2-elf/4.1.2/../../../../nios2-elf/lib\libc.a(lib_a-signalr.o)
                0x00034b70                _getpid_r
                0x00034b74                _kill_r
 .text          0x00034be8       0xd4 c:/develop/altera/11.1/nios2eds/bin/gnu/h-i686-mingw32/bin/../lib/gcc/nios2-elf/4.1.2/../../../../nios2-elf/lib\libc.a(lib_a-sprintf.o)
                0x00034be8                sprintf
                0x00034c5c                _sprintf_r
 .text          0x00034cbc      0x14c c:/develop/altera/11.1/nios2eds/bin/gnu/h-i686-mingw32/bin/../lib/gcc/nios2-elf/4.1.2/../../../../nios2-elf/lib\libc.a(lib_a-stdio.o)
                0x00034cbc                __sclose
                0x00034cc4                __sseek
                0x00034d2c                __swrite
                0x00034da8                __sread
 .text          0x00034e08       0xe0 c:/develop/altera/11.1/nios2eds/bin/gnu/h-i686-mingw32/bin/../lib/gcc/nios2-elf/4.1.2/../../../../nios2-elf/lib\libc.a(lib_a-strchr.o)
                0x00034e08                strchr
 .text          0x00034ee8       0xbc c:/develop/altera/11.1/nios2eds/bin/gnu/h-i686-mingw32/bin/../lib/gcc/nios2-elf/4.1.2/../../../../nios2-elf/lib\libc.a(lib_a-strcmp.o)
                0x00034ee8                strcmp
 .text          0x00034fa4        0x4 c:/develop/altera/11.1/nios2eds/bin/gnu/h-i686-mingw32/bin/../lib/gcc/nios2-elf/4.1.2/../../../../nios2-elf/lib\libc.a(lib_a-strcoll.o)
                0x00034fa4                strcoll
 .text          0x00034fa8       0x8c c:/develop/altera/11.1/nios2eds/bin/gnu/h-i686-mingw32/bin/../lib/gcc/nios2-elf/4.1.2/../../../../nios2-elf/lib\libc.a(lib_a-strcpy.o)
                0x00034fa8                strcpy
 .text          0x00035034      0x674 c:/develop/altera/11.1/nios2eds/bin/gnu/h-i686-mingw32/bin/../lib/gcc/nios2-elf/4.1.2/../../../../nios2-elf/lib\libc.a(lib_a-strerror.o)
                0x00035034                strerror
 .text          0x000356a8     0x1048 c:/develop/altera/11.1/nios2eds/bin/gnu/h-i686-mingw32/bin/../lib/gcc/nios2-elf/4.1.2/../../../../nios2-elf/lib\libc.a(lib_a-strftime.o)
                0x00035834                strftime
 .text          0x000366f0       0x74 c:/develop/altera/11.1/nios2eds/bin/gnu/h-i686-mingw32/bin/../lib/gcc/nios2-elf/4.1.2/../../../../nios2-elf/lib\libc.a(lib_a-strlen.o)
                0x000366f0                strlen
 .text          0x00036764       0xf0 c:/develop/altera/11.1/nios2eds/bin/gnu/h-i686-mingw32/bin/../lib/gcc/nios2-elf/4.1.2/../../../../nios2-elf/lib\libc.a(lib_a-strncmp.o)
                0x00036764                strncmp
 .text          0x00036854       0x50 c:/develop/altera/11.1/nios2eds/bin/gnu/h-i686-mingw32/bin/../lib/gcc/nios2-elf/4.1.2/../../../../nios2-elf/lib\libc.a(lib_a-strpbrk.o)
                0x00036854                strpbrk
 .text          0x000368a4       0x58 c:/develop/altera/11.1/nios2eds/bin/gnu/h-i686-mingw32/bin/../lib/gcc/nios2-elf/4.1.2/../../../../nios2-elf/lib\libc.a(lib_a-strspn.o)
                0x000368a4                strspn
 .text          0x000368fc      0x794 c:/develop/altera/11.1/nios2eds/bin/gnu/h-i686-mingw32/bin/../lib/gcc/nios2-elf/4.1.2/../../../../nios2-elf/lib\libc.a(lib_a-strstr.o)
                0x00036a30                strstr
 .text          0x00037090     0x166c c:/develop/altera/11.1/nios2eds/bin/gnu/h-i686-mingw32/bin/../lib/gcc/nios2-elf/4.1.2/../../../../nios2-elf/lib\libc.a(lib_a-strtod.o)
                0x000370d8                _strtod_r
                0x000385bc                strtof
                0x000386e0                strtod
 .text          0x000386fc       0x5c c:/develop/altera/11.1/nios2eds/bin/gnu/h-i686-mingw32/bin/../lib/gcc/nios2-elf/4.1.2/../../../../nios2-elf/lib\libc.a(lib_a-time.o)
                0x000386fc                time
 .text          0x00038758        0x8 c:/develop/altera/11.1/nios2eds/bin/gnu/h-i686-mingw32/bin/../lib/gcc/nios2-elf/4.1.2/../../../../nios2-elf/lib\libc.a(lib_a-timesr.o)
                0x00038758                _times_r
 .text          0x00038760      0x27c c:/develop/altera/11.1/nios2eds/bin/gnu/h-i686-mingw32/bin/../lib/gcc/nios2-elf/4.1.2/../../../../nios2-elf/lib\libc.a(lib_a-tmpnam.o)
                0x00038838                _tempnam_r
                0x00038914                tempnam
                0x00038930                _tmpnam_r
                0x000389c8                tmpnam
 .text          0x000389dc        0x8 c:/develop/altera/11.1/nios2eds/bin/gnu/h-i686-mingw32/bin/../lib/gcc/nios2-elf/4.1.2/../../../../nios2-elf/lib\libc.a(lib_a-tzlock.o)
                0x000389dc                __tz_lock
                0x000389e0                __tz_unlock
 .text          0x000389e4        0x0 c:/develop/altera/11.1/nios2eds/bin/gnu/h-i686-mingw32/bin/../lib/gcc/nios2-elf/4.1.2/../../../../nios2-elf/lib\libc.a(lib_a-tzvars.o)
 .text          0x000389e4        0x8 c:/develop/altera/11.1/nios2eds/bin/gnu/h-i686-mingw32/bin/../lib/gcc/nios2-elf/4.1.2/../../../../nios2-elf/lib\libc.a(lib_a-u_strerr.o)
                0x000389e4                _user_strerror
 .text          0x000389ec      0x294 c:/develop/altera/11.1/nios2eds/bin/gnu/h-i686-mingw32/bin/../lib/gcc/nios2-elf/4.1.2/../../../../nios2-elf/lib\libc.a(lib_a-ungetc.o)
                0x000389ec                __submore
                0x00038ac8                _ungetc_r
                0x00038c64                ungetc
 .text          0x00038c80     0x1f28 c:/develop/altera/11.1/nios2eds/bin/gnu/h-i686-mingw32/bin/../lib/gcc/nios2-elf/4.1.2/../../../../nios2-elf/lib\libc.a(lib_a-vfprintf.o)
                0x00038cd8                ___vfprintf_internal_r
                0x0003ab84                __vfprintf_internal
 .text          0x0003aba8     0x1780 c:/develop/altera/11.1/nios2eds/bin/gnu/h-i686-mingw32/bin/../lib/gcc/nios2-elf/4.1.2/../../../../nios2-elf/lib\libc.a(lib_a-vfscanf.o)
                0x0003aba8                __svfscanf_r
                0x0003c228                __svfscanf
                0x0003c24c                _vfscanf_r
                0x0003c2b4                vfscanf
 .text          0x0003c328       0x78 c:/develop/altera/11.1/nios2eds/bin/gnu/h-i686-mingw32/bin/../lib/gcc/nios2-elf/4.1.2/../../../../nios2-elf/lib\libc.a(lib_a-writer.o)
                0x0003c328                _write_r
 .text          0x0003c3a0      0x13c c:/develop/altera/11.1/nios2eds/bin/gnu/h-i686-mingw32/bin/../lib/gcc/nios2-elf/4.1.2/../../../../nios2-elf/lib\libc.a(lib_a-wsetup.o)
                0x0003c3a0                __swsetup_r
 .text          0x0003c4dc      0x1b4 c:/develop/altera/11.1/nios2eds/bin/gnu/h-i686-mingw32/bin/../lib/gcc/nios2-elf/4.1.2/../../../../nios2-elf/lib\libc.a(lib_a-__call_atexit.o)
                0x0003c4e0                __call_exitprocs
 .text          0x0003c690       0x18 c:/develop/altera/11.1/nios2eds/bin/gnu/h-i686-mingw32/bin/../lib/gcc/nios2-elf/4.1.2/../../../../nios2-elf/lib\libc.a(lib_a-abs.o)
                0x0003c690                abs
 .text          0x0003c6a8       0x70 c:/develop/altera/11.1/nios2eds/bin/gnu/h-i686-mingw32/bin/../lib/gcc/nios2-elf/4.1.2/../../../../nios2-elf/lib\libc.a(lib_a-closer.o)
                0x0003c6a8                _close_r
 .text          0x0003c718       0x84 c:/develop/altera/11.1/nios2eds/bin/gnu/h-i686-mingw32/bin/../lib/gcc/nios2-elf/4.1.2/../../../../nios2-elf/lib\libc.a(lib_a-div.o)
                0x0003c718                div
 .text          0x0003c79c     0x17cc c:/develop/altera/11.1/nios2eds/bin/gnu/h-i686-mingw32/bin/../lib/gcc/nios2-elf/4.1.2/../../../../nios2-elf/lib\libc.a(lib_a-dtoa.o)
                0x0003c9b4                _dtoa_r
 .text          0x0003df68        0x0 c:/develop/altera/11.1/nios2eds/bin/gnu/h-i686-mingw32/bin/../lib/gcc/nios2-elf/4.1.2/../../../../nios2-elf/lib\libc.a(lib_a-environ.o)
 .text          0x0003df68       0xa0 c:/develop/altera/11.1/nios2eds/bin/gnu/h-i686-mingw32/bin/../lib/gcc/nios2-elf/4.1.2/../../../../nios2-elf/lib\libc.a(lib_a-flags.o)
                0x0003df68                __sflags
 .text          0x0003e008      0x49c c:/develop/altera/11.1/nios2eds/bin/gnu/h-i686-mingw32/bin/../lib/gcc/nios2-elf/4.1.2/../../../../nios2-elf/lib\libc.a(lib_a-fvwrite.o)
                0x0003e008                __sfvwrite_r
 .text          0x0003e4a4      0x8f4 c:/develop/altera/11.1/nios2eds/bin/gnu/h-i686-mingw32/bin/../lib/gcc/nios2-elf/4.1.2/../../../../nios2-elf/lib\libc.a(lib_a-gdtoa-gethex.o)
                0x0003e4c8                __hexdig_init
                0x0003e5e0                __gethex
 .text          0x0003ed98      0x294 c:/develop/altera/11.1/nios2eds/bin/gnu/h-i686-mingw32/bin/../lib/gcc/nios2-elf/4.1.2/../../../../nios2-elf/lib\libc.a(lib_a-gdtoa-hexnan.o)
                0x0003ede4                __hexnan
 .text          0x0003f02c       0x74 c:/develop/altera/11.1/nios2eds/bin/gnu/h-i686-mingw32/bin/../lib/gcc/nios2-elf/4.1.2/../../../../nios2-elf/lib\libc.a(lib_a-gettimeofdayr.o)
                0x0003f02c                _gettimeofday_r
 .text          0x0003f0a0        0xc c:/develop/altera/11.1/nios2eds/bin/gnu/h-i686-mingw32/bin/../lib/gcc/nios2-elf/4.1.2/../../../../nios2-elf/lib\libc.a(lib_a-gettzinfo.o)
                0x0003f0a0                __gettzinfo
 .text          0x0003f0ac       0x70 c:/develop/altera/11.1/nios2eds/bin/gnu/h-i686-mingw32/bin/../lib/gcc/nios2-elf/4.1.2/../../../../nios2-elf/lib\libc.a(lib_a-isattyr.o)
                0x0003f0ac                _isatty_r
 .text          0x0003f11c       0x2c c:/develop/altera/11.1/nios2eds/bin/gnu/h-i686-mingw32/bin/../lib/gcc/nios2-elf/4.1.2/../../../../nios2-elf/lib\libc.a(lib_a-iswspace.o)
                0x0003f11c                iswspace
 .text          0x0003f148       0x18 c:/develop/altera/11.1/nios2eds/bin/gnu/h-i686-mingw32/bin/../lib/gcc/nios2-elf/4.1.2/../../../../nios2-elf/lib\libc.a(lib_a-labs.o)
                0x0003f148                labs
 .text          0x0003f160       0x78 c:/develop/altera/11.1/nios2eds/bin/gnu/h-i686-mingw32/bin/../lib/gcc/nios2-elf/4.1.2/../../../../nios2-elf/lib\libc.a(lib_a-lseekr.o)
                0x0003f160                _lseek_r
 .text          0x0003f1d8       0xc0 c:/develop/altera/11.1/nios2eds/bin/gnu/h-i686-mingw32/bin/../lib/gcc/nios2-elf/4.1.2/../../../../nios2-elf/lib\libc.a(lib_a-mbrtowc.o)
                0x0003f1d8                _mbrtowc_r
                0x0003f258                mbrtowc
 .text          0x0003f298       0x40 c:/develop/altera/11.1/nios2eds/bin/gnu/h-i686-mingw32/bin/../lib/gcc/nios2-elf/4.1.2/../../../../nios2-elf/lib\libc.a(lib_a-mbtowc_r.o)
                0x0003f298                _mbtowc_r
 .text          0x0003f2d8       0xe0 c:/develop/altera/11.1/nios2eds/bin/gnu/h-i686-mingw32/bin/../lib/gcc/nios2-elf/4.1.2/../../../../nios2-elf/lib\libc.a(lib_a-memmove.o)
                0x0003f2d8                memmove
 .text          0x0003f3b8      0xff4 c:/develop/altera/11.1/nios2eds/bin/gnu/h-i686-mingw32/bin/../lib/gcc/nios2-elf/4.1.2/../../../../nios2-elf/lib\libc.a(lib_a-mprec.o)
                0x0003f3b8                _Bfree
                0x0003f3e0                __hi0bits
                0x0003f450                __lo0bits
                0x0003f514                __mcmp
                0x0003f574                __ulp
                0x0003f5f4                __b2d
                0x0003f714                __ratio
                0x0003f7c4                _mprec_log10
                0x0003f858                __copybits
                0x0003f8b0                __any_on
                0x0003f938                _Balloc
                0x0003f9f4                __d2b
                0x0003fb70                __mdiff
                0x0003fcfc                __lshift
                0x0003fe48                __multiply
                0x00040030                __i2b
                0x0004006c                __multadd
                0x0004016c                __pow5mult
                0x0004028c                __s2b
 .text          0x000403ac      0x1ec c:/develop/altera/11.1/nios2eds/bin/gnu/h-i686-mingw32/bin/../lib/gcc/nios2-elf/4.1.2/../../../../nios2-elf/lib\libc.a(lib_a-putc.o)
                0x000403ac                putc
                0x000404b0                _putc_r
 .text          0x00040598       0x78 c:/develop/altera/11.1/nios2eds/bin/gnu/h-i686-mingw32/bin/../lib/gcc/nios2-elf/4.1.2/../../../../nios2-elf/lib\libc.a(lib_a-readr.o)
                0x00040598                _read_r
 .text          0x00040610       0x40 c:/develop/altera/11.1/nios2eds/bin/gnu/h-i686-mingw32/bin/../lib/gcc/nios2-elf/4.1.2/../../../../nios2-elf/lib\libc.a(lib_a-s_isinfd.o)
                0x00040610                __isinfd
 .text          0x00040650       0xc0 c:/develop/altera/11.1/nios2eds/bin/gnu/h-i686-mingw32/bin/../lib/gcc/nios2-elf/4.1.2/../../../../nios2-elf/lib\libc.a(lib_a-sccl.o)
                0x00040650                __sccl
 .text          0x00040710        0x8 c:/develop/altera/11.1/nios2eds/bin/gnu/h-i686-mingw32/bin/../lib/gcc/nios2-elf/4.1.2/../../../../nios2-elf/lib\libc.a(lib_a-sf_nan.o)
                0x00040710                nanf
 .text          0x00040718      0x170 c:/develop/altera/11.1/nios2eds/bin/gnu/h-i686-mingw32/bin/../lib/gcc/nios2-elf/4.1.2/../../../../nios2-elf/lib\libc.a(lib_a-snprintf.o)
                0x00040718                snprintf
                0x000407d4                _snprintf_r
 .text          0x00040888      0x268 c:/develop/altera/11.1/nios2eds/bin/gnu/h-i686-mingw32/bin/../lib/gcc/nios2-elf/4.1.2/../../../../nios2-elf/lib\libc.a(lib_a-strtol.o)
                0x00040888                _strtol_r
                0x00040acc                strtol
 .text          0x00040af0      0x318 c:/develop/altera/11.1/nios2eds/bin/gnu/h-i686-mingw32/bin/../lib/gcc/nios2-elf/4.1.2/../../../../nios2-elf/lib\libc.a(lib_a-strtoll_r.o)
                0x00040af0                _strtoll_r
 .text          0x00040e08      0x254 c:/develop/altera/11.1/nios2eds/bin/gnu/h-i686-mingw32/bin/../lib/gcc/nios2-elf/4.1.2/../../../../nios2-elf/lib\libc.a(lib_a-strtoul.o)
                0x00040e08                _strtoul_r
                0x00041038                strtoul
 .text          0x0004105c      0x2f0 c:/develop/altera/11.1/nios2eds/bin/gnu/h-i686-mingw32/bin/../lib/gcc/nios2-elf/4.1.2/../../../../nios2-elf/lib\libc.a(lib_a-strtoull_r.o)
                0x0004105c                _strtoull_r
 .text          0x0004134c      0x14c c:/develop/altera/11.1/nios2eds/bin/gnu/h-i686-mingw32/bin/../lib/gcc/nios2-elf/4.1.2/../../../../nios2-elf/lib\libc.a(lib_a-wbuf.o)
                0x0004134c                __swbuf_r
                0x0004147c                __swbuf
 .text          0x00041498       0xb4 c:/develop/altera/11.1/nios2eds/bin/gnu/h-i686-mingw32/bin/../lib/gcc/nios2-elf/4.1.2/../../../../nios2-elf/lib\libc.a(lib_a-callocr.o)
                0x00041498                _calloc_r
 .text          0x0004154c      0x5dc c:/develop/altera/11.1/nios2eds/bin/gnu/h-i686-mingw32/bin/../lib/gcc/nios2-elf/4.1.2\libgcc.a(_udivdi3.o)
                0x0004154c                __udivdi3
 .text          0x00041b28      0x5b0 c:/develop/altera/11.1/nios2eds/bin/gnu/h-i686-mingw32/bin/../lib/gcc/nios2-elf/4.1.2\libgcc.a(_umoddi3.o)
                0x00041b28                __umoddi3
 .text          0x000420d8       0x78 c:/develop/altera/11.1/nios2eds/bin/gnu/h-i686-mingw32/bin/../lib/gcc/nios2-elf/4.1.2\libgcc.a(_ne_sf.o)
                0x000420d8                __nesf2
 .text          0x00042150       0x78 c:/develop/altera/11.1/nios2eds/bin/gnu/h-i686-mingw32/bin/../lib/gcc/nios2-elf/4.1.2\libgcc.a(_gt_sf.o)
                0x00042150                __gtsf2
 .text          0x000421c8       0x78 c:/develop/altera/11.1/nios2eds/bin/gnu/h-i686-mingw32/bin/../lib/gcc/nios2-elf/4.1.2\libgcc.a(_lt_sf.o)
                0x000421c8                __ltsf2
 .text          0x00042240       0x74 c:/develop/altera/11.1/nios2eds/bin/gnu/h-i686-mingw32/bin/../lib/gcc/nios2-elf/4.1.2\libgcc.a(_df_to_sf.o)
                0x00042240                __truncdfsf2
 .text          0x000422b4       0xc8 c:/develop/altera/11.1/nios2eds/bin/gnu/h-i686-mingw32/bin/../lib/gcc/nios2-elf/4.1.2\libgcc.a(_unpack_sf.o)
                0x000422b4                __unpack_f
 .text          0x0004237c       0xa8 c:/develop/altera/11.1/nios2eds/bin/gnu/h-i686-mingw32/bin/../lib/gcc/nios2-elf/4.1.2\libgcc.a(_fpcmp_parts_sf.o)
                0x0004237c                __fpcmp_parts_f
 .text          0x00042424       0x2c c:/develop/altera/11.1/nios2eds/bin/gnu/h-i686-mingw32/bin/../lib/gcc/nios2-elf/4.1.2\libgcc.a(_make_sf.o)
                0x00042424                __make_fp
 .text          0x00042450      0x160 c:/develop/altera/11.1/nios2eds/bin/gnu/h-i686-mingw32/bin/../lib/gcc/nios2-elf/4.1.2\libgcc.a(_pack_sf.o)
                0x00042450                __pack_f
 .text          0x000425b0       0xf0 ../Cineraria_DE0_HAL_bsp/\libhal_bsp.a(alt_close.o)
                0x000425b0                close
 .text          0x000426a0        0x8 ../Cineraria_DE0_HAL_bsp/\libhal_bsp.a(alt_dev.o)
 .text          0x000426a8        0x8 ../Cineraria_DE0_HAL_bsp/\libhal_bsp.a(alt_env_lock.o)
                0x000426a8                __env_lock
                0x000426ac                __env_unlock
 .text          0x000426b0        0x0 ../Cineraria_DE0_HAL_bsp/\libhal_bsp.a(alt_errno.o)
 .text          0x000426b0       0x14 ../Cineraria_DE0_HAL_bsp/\libhal_bsp.a(alt_exit.o)
                0x000426b0                _exit
 .text          0x000426c4       0x38 ../Cineraria_DE0_HAL_bsp/\libhal_bsp.a(alt_fs_reg.o)
                0x000426c4                alt_fs_reg
 .text          0x000426fc       0x90 ../Cineraria_DE0_HAL_bsp/\libhal_bsp.a(alt_fstat.o)
                0x000426fc                fstat
 .text          0x0004278c        0x8 ../Cineraria_DE0_HAL_bsp/\libhal_bsp.a(alt_getpid.o)
                0x0004278c                getpid
 .text          0x00042794      0x184 ../Cineraria_DE0_HAL_bsp/\libhal_bsp.a(alt_gettod.o)
                0x00042794                gettimeofday
 .text          0x00042918       0x84 ../Cineraria_DE0_HAL_bsp/\libhal_bsp.a(alt_isatty.o)
                0x00042918                isatty
 .text          0x0004299c      0x11c ../Cineraria_DE0_HAL_bsp/\libhal_bsp.a(alt_kill.o)
                0x0004299c                kill
 .text          0x00042ab8       0x9c ../Cineraria_DE0_HAL_bsp/\libhal_bsp.a(alt_lseek.o)
                0x00042ab8                lseek
 .text          0x00042b54       0x60 ../Cineraria_DE0_HAL_bsp/\libhal_bsp.a(alt_main.o)
                0x00042b54                alt_main
 .text          0x00042bb4        0x8 ../Cineraria_DE0_HAL_bsp/\libhal_bsp.a(alt_malloc_lock.o)
                0x00042bb4                __malloc_lock
                0x00042bb8                __malloc_unlock
 .text          0x00042bbc      0x180 ../Cineraria_DE0_HAL_bsp/\libhal_bsp.a(alt_open.o)
                0x00042bbc                open
 .text          0x00042d3c      0x11c ../Cineraria_DE0_HAL_bsp/\libhal_bsp.a(alt_read.o)
                0x00042d3c                read
 .text          0x00042e58       0x24 ../Cineraria_DE0_HAL_bsp/\libhal_bsp.a(alt_release_fd.o)
                0x00042e58                alt_release_fd
 .text          0x00042e7c       0x54 ../Cineraria_DE0_HAL_bsp/\libhal_bsp.a(alt_sbrk.o)
                0x00042e7c                sbrk
 .text          0x00042ed0       0xf4 ../Cineraria_DE0_HAL_bsp/\libhal_bsp.a(alt_tick.o)
                0x00042ed0                alt_alarm_stop
                0x00042f04                alt_tick
 .text          0x00042fc4       0x80 ../Cineraria_DE0_HAL_bsp/\libhal_bsp.a(alt_times.o)
                0x00042fc4                times
 .text          0x00043044      0x118 ../Cineraria_DE0_HAL_bsp/\libhal_bsp.a(alt_write.o)
                0x00043044                write
 .text          0x0004315c       0xc0 ../Cineraria_DE0_HAL_bsp/\libhal_bsp.a(alt_sys_init.o)
                0x0004315c                alt_irq_init
                0x0004317c                alt_sys_init
 .text          0x0004321c      0x4bc ../Cineraria_DE0_HAL_bsp/\libhal_bsp.a(altera_avalon_cfi_flash.o)
                0x0004321c                alt_flash_cfi_get_info
                0x00043254                alt_flash_program_block
                0x0004341c                alt_write_value_to_flash
                0x000434b4                alt_flash_cfi_read
                0x000434e0                alt_flash_cfi_write
                0x00043670                alt_flash_cfi_init
 .text          0x000436d8      0xa7c ../Cineraria_DE0_HAL_bsp/\libhal_bsp.a(altera_avalon_cfi_flash_table.o)
                0x000436d8                alt_set_flash_width_func
                0x00043808                alt_set_flash_algorithm_func
                0x000438d8                alt_check_primary_table
                0x00043974                alt_read_cfi_table
                0x00043c34                alt_read_query_entry_8bit
                0x00043c48                alt_read_query_entry_16bit
                0x00043c60                alt_read_query_entry_32bit
                0x00043c7c                alt_write_native_32bit
                0x00043c84                alt_write_flash_command_32bit_device_32bit_mode
                0x00043c9c                alt_write_native_16bit
                0x00043ca8                alt_write_flash_command_32bit_device_16bit_mode
                0x00043cc0                alt_write_flash_command_16bit_device_16bit_mode
                0x00043cd4                alt_write_native_8bit
                0x00043ce0                alt_write_flash_command_32bit_device_8bit_mode
                0x00043cf8                alt_write_flash_command_16bit_device_8bit_mode
                0x00043d20                alt_write_flash_command_8bit_device_8bit_mode
                0x00043d30                alt_read_cfi_width
 .text          0x00044154      0x52c ../Cineraria_DE0_HAL_bsp/\libhal_bsp.a(altera_avalon_epcs_flash_controller.o)
                0x00044154                alt_epcs_flash_get_info
                0x0004418c                alt_epcs_flash_read
                0x00044204                alt_epcs_flash_write_block
                0x000442d4                alt_epcs_flash_write
                0x000444a4                alt_epcs_flash_init
                0x00044610                alt_epcs_flash_erase_block
 .text          0x00044680       0x3c ../Cineraria_DE0_HAL_bsp/\libhal_bsp.a(altera_avalon_jtag_uart_fd.o)
                0x00044680                altera_avalon_jtag_uart_ioctl_fd
                0x0004468c                altera_avalon_jtag_uart_close_fd
                0x0004469c                altera_avalon_jtag_uart_write_fd
                0x000446ac                altera_avalon_jtag_uart_read_fd
 .text          0x000446bc      0x214 ../Cineraria_DE0_HAL_bsp/\libhal_bsp.a(altera_avalon_jtag_uart_init.o)
                0x000446bc                altera_avalon_jtag_uart_close
                0x00044748                altera_avalon_jtag_uart_init
 .text          0x000448d0       0x88 ../Cineraria_DE0_HAL_bsp/\libhal_bsp.a(altera_avalon_jtag_uart_ioctl.o)
                0x000448d0                altera_avalon_jtag_uart_ioctl
 .text          0x00044958      0x16c ../Cineraria_DE0_HAL_bsp/\libhal_bsp.a(altera_avalon_jtag_uart_read.o)
                0x00044958                altera_avalon_jtag_uart_read
 .text          0x00044ac4      0x17c ../Cineraria_DE0_HAL_bsp/\libhal_bsp.a(altera_avalon_jtag_uart_write.o)
                0x00044ac4                altera_avalon_jtag_uart_write
 .text          0x00044c40       0x8c ../Cineraria_DE0_HAL_bsp/\libhal_bsp.a(altera_avalon_timer_sc.o)
                0x00044c40                alt_avalon_timer_sc_init
 .text          0x00044ccc       0x30 ../Cineraria_DE0_HAL_bsp/\libhal_bsp.a(altera_avalon_uart_fd.o)
                0x00044ccc                altera_avalon_uart_close_fd
                0x00044cdc                altera_avalon_uart_write_fd
                0x00044cec                altera_avalon_uart_read_fd
 .text          0x00044cfc      0x1ac ../Cineraria_DE0_HAL_bsp/\libhal_bsp.a(altera_avalon_uart_init.o)
                0x00044cfc                altera_avalon_uart_close
                0x00044e68                altera_avalon_uart_init
 .text          0x00044ea8      0x140 ../Cineraria_DE0_HAL_bsp/\libhal_bsp.a(altera_avalon_uart_read.o)
                0x00044ea8                altera_avalon_uart_read
 .text          0x00044fe8      0x138 ../Cineraria_DE0_HAL_bsp/\libhal_bsp.a(altera_avalon_uart_write.o)
                0x00044fe8                altera_avalon_uart_write
 .text          0x00045120      0x320 ../Cineraria_DE0_HAL_bsp/\libhal_bsp.a(epcs_commands.o)
                0x00045120                epcs_read_device_id
                0x00045170                epcs_read_electronic_signature
                0x000451c4                epcs_write_enable
                0x000451fc                epcs_read_status_register
                0x00045244                epcs_sector_erase
                0x000452b0                epcs_write_buffer
                0x00045360                epcs_read_buffer
                0x000453e8                epcs_write_status_register
 .text          0x00045440       0x94 ../Cineraria_DE0_HAL_bsp/\libhal_bsp.a(alt_alarm_start.o)
                0x00045440                alt_alarm_start
 .text          0x000454d4       0x28 ../Cineraria_DE0_HAL_bsp/\libhal_bsp.a(alt_dcache_flush.o)
                0x000454d4                alt_dcache_flush
 .text          0x000454fc       0x7c ../Cineraria_DE0_HAL_bsp/\libhal_bsp.a(alt_dev_llist_insert.o)
                0x000454fc                alt_dev_llist_insert
 .text          0x00045578       0x4c ../Cineraria_DE0_HAL_bsp/\libhal_bsp.a(alt_do_ctors.o)
                0x00045578                _do_ctors
 .text          0x000455c4       0x4c ../Cineraria_DE0_HAL_bsp/\libhal_bsp.a(alt_do_dtors.o)
                0x000455c4                _do_dtors
 .text          0x00045610       0x94 ../Cineraria_DE0_HAL_bsp/\libhal_bsp.a(alt_find_dev.o)
                0x00045610                alt_find_dev
 .text          0x000456a4       0xb0 ../Cineraria_DE0_HAL_bsp/\libhal_bsp.a(alt_find_file.o)
                0x000456a4                alt_find_file
 .text          0x00045754       0x60 ../Cineraria_DE0_HAL_bsp/\libhal_bsp.a(alt_flash_dev.o)
                0x00045754                alt_flash_close_dev
                0x00045768                alt_flash_open_dev
 .text          0x000457b4       0x60 ../Cineraria_DE0_HAL_bsp/\libhal_bsp.a(alt_get_fd.o)
                0x000457b4                alt_get_fd
 .text          0x00045814       0x9c ../Cineraria_DE0_HAL_bsp/\libhal_bsp.a(alt_iic.o)
                0x00045814                alt_ic_irq_enabled
                0x0004582c                alt_ic_irq_enable
                0x0004586c                alt_ic_irq_disable
                0x000458ac                alt_ic_isr_register
 .text          0x000458b0       0x88 ../Cineraria_DE0_HAL_bsp/\libhal_bsp.a(alt_iic_isr_register.o)
                0x000458b0                alt_iic_isr_register
 .text          0x00045938       0xfc ../Cineraria_DE0_HAL_bsp/\libhal_bsp.a(alt_io_redirect.o)
                0x000459a8                alt_io_redirect
 .text          0x00045a34        0x0 ../Cineraria_DE0_HAL_bsp/\libhal_bsp.a(alt_irq_entry.o)
 .text          0x00045a34        0x0 ../Cineraria_DE0_HAL_bsp/\libhal_bsp.a(alt_irq_handler.o)
 .text          0x00045a34        0x0 ../Cineraria_DE0_HAL_bsp/\libhal_bsp.a(alt_irq_vars.o)
 .text          0x00045a34        0x8 ../Cineraria_DE0_HAL_bsp/\libhal_bsp.a(altera_nios2_irq.o)
                0x00045a34                altera_nios2_irq_init
 .text          0x00045a3c      0x2e4 ../Cineraria_DE0_HAL_bsp/\libhal_bsp.a(altera_avalon_cfi_flash_amd.o)
                0x00045a3c                alt_erase_block_amd
                0x00045bb8                alt_program_amd
 .text          0x00045d20      0x320 ../Cineraria_DE0_HAL_bsp/\libhal_bsp.a(altera_avalon_cfi_flash_intel.o)
                0x00045e18                alt_erase_block_intel
                0x00045f1c                alt_program_intel
 .text          0x00046040      0x124 ../Cineraria_DE0_HAL_bsp/\libhal_bsp.a(altera_avalon_spi.o)
                0x00046040                alt_avalon_spi_command
 .text          0x00046164        0x0 ../Cineraria_DE0_HAL_bsp/\libhal_bsp.a(alt_exception_entry.o)
 .text          0x00046164        0x4 ../Cineraria_DE0_HAL_bsp/\libhal_bsp.a(alt_usleep.o)
                0x00046164                usleep
 .text          0x00046168       0x68 ../Cineraria_DE0_HAL_bsp/\libhal_bsp.a(alt_busy_sleep.o)
                0x00046168                alt_busy_sleep
 .text          0x000461d0       0x14 c:/develop/altera/11.1/nios2eds/bin/gnu/h-i686-mingw32/bin/../lib/gcc/nios2-elf/4.1.2/../../../../nios2-elf/lib\libc.a(lib_a-atexit.o)
                0x000461d0                atexit
 .text          0x000461e4      0x134 c:/develop/altera/11.1/nios2eds/bin/gnu/h-i686-mingw32/bin/../lib/gcc/nios2-elf/4.1.2/../../../../nios2-elf/lib\libc.a(lib_a-__atexit.o)
                0x000461e4                __register_exitproc
 *(.gnu.warning.*)
 *(.fini)
                0x00046318                PROVIDE (__etext, ABSOLUTE (.))
                0x00046318                PROVIDE (_etext, ABSOLUTE (.))
                0x00046318                PROVIDE (etext, ABSOLUTE (.))
 *(.eh_frame_hdr)
                0x00046318                . = ALIGN (0x4)
                0x00046318                PROVIDE (__preinit_array_start, ABSOLUTE (.))
 *(.preinit_array)
                0x00046318                PROVIDE (__preinit_array_end, ABSOLUTE (.))
                0x00046318                PROVIDE (__init_array_start, ABSOLUTE (.))
 *(.init_array)
                0x00046318                PROVIDE (__init_array_end, ABSOLUTE (.))
                0x00046318                PROVIDE (__fini_array_start, ABSOLUTE (.))
 *(.fini_array)
                0x00046318                PROVIDE (__fini_array_end, ABSOLUTE (.))
 *(.eh_frame)
 .eh_frame      0x00046318       0x40 c:/develop/altera/11.1/nios2eds/bin/gnu/h-i686-mingw32/bin/../lib/gcc/nios2-elf/4.1.2\libgcc.a(_udivdi3.o)
 .eh_frame      0x00046358       0x2c c:/develop/altera/11.1/nios2eds/bin/gnu/h-i686-mingw32/bin/../lib/gcc/nios2-elf/4.1.2\libgcc.a(_umoddi3.o)
                                 0x40 (size before relaxing)
 *(.gcc_except_table)
 *(.dynamic)
                0x00046384                PROVIDE (__CTOR_LIST__, ABSOLUTE (.))
 *(.ctors)
 *(SORT(.ctors.*))
 .ctors.65535   0x00046384        0x4 c:/develop/altera/11.1/nios2eds/bin/gnu/h-i686-mingw32/bin/../lib/gcc/nios2-elf/4.1.2/../../../../nios2-elf/lib\libc.a(lib_a-__call_atexit.o)
                0x00046388                PROVIDE (__CTOR_END__, ABSOLUTE (.))
                0x00046388                PROVIDE (__DTOR_LIST__, ABSOLUTE (.))
 *(.dtors)
 *(SORT(.dtors.*))
                0x00046388                PROVIDE (__DTOR_END__, ABSOLUTE (.))
 *(.jcr)
                0x00046388                . = ALIGN (0x4)

.rodata         0x00046388    0x129dc
                0x00046388                PROVIDE (__ram_rodata_start, ABSOLUTE (.))
                0x00046388                . = ALIGN (0x4)
 *(.rodata .rodata.* .gnu.linkonce.r.*)
 .rodata.str1.4
                0x00046388        0x2 obj/default/lua/lapi.o
                                  0x8 (size before relaxing)
 *fill*         0x0004638a        0x2 00
 .rodata        0x0004638c       0x84 obj/default/lua/lapi.o
                0x0004638c                lua_ident
 .rodata.str1.4
                0x00046410      0x2d1 obj/default/lua/lauxlib.o
                                0x2f8 (size before relaxing)
 *fill*         0x000466e1        0x3 00
 .rodata.str1.4
                0x000466e4      0x298 obj/default/lua/lbaselib.o
                                0x2c8 (size before relaxing)
 .rodata        0x0004697c      0x114 obj/default/lua/lbaselib.o
 .rodata.str1.4
                0x00046a90       0xb3 obj/default/lua/lbitlib.o
                                 0xb4 (size before relaxing)
 *fill*         0x00046b43        0x1 00
 .rodata        0x00046b44       0x68 obj/default/lua/lbitlib.o
 .rodata.str1.4
                0x00046bac       0x6a obj/default/lua/lcode.o
                                 0x6c (size before relaxing)
 *fill*         0x00046c16        0x2 00
 .rodata.str1.4
                0x00046c18       0xb2 obj/default/lua/lcorolib.o
                                 0xbc (size before relaxing)
 *fill*         0x00046cca        0x2 00
 .rodata        0x00046ccc       0x38 obj/default/lua/lcorolib.o
 .rodata        0x00046d04      0x101 obj/default/lua/lctype.o
                0x00046d04                luai_ctype_
 *fill*         0x00046e05        0x3 00
 .rodata.str1.4
                0x00046e08      0x226 obj/default/lua/ldblib.o
                                0x288 (size before relaxing)
 *fill*         0x0004702e        0x2 00
 .rodata        0x00047030       0x9c obj/default/lua/ldblib.o
 .rodata.str1.4
                0x000470cc      0x13b obj/default/lua/ldebug.o
                                0x14c (size before relaxing)
 *fill*         0x00047207        0x1 00
 .rodata.str1.4
                0x00047208       0xee obj/default/lua/ldo.o
                                0x128 (size before relaxing)
 *fill*         0x000472f6        0x2 00
 .rodata.str1.4
                0x000472f8       0x1e obj/default/lua/lgc.o
                                 0x20 (size before relaxing)
 *fill*         0x00047316        0x2 00
 .rodata.str1.4
                0x00047318       0x31 obj/default/lua/linit.o
                                 0x54 (size before relaxing)
 *fill*         0x00047349        0x3 00
 .rodata        0x0004734c       0x58 obj/default/lua/linit.o
 .rodata.str1.4
                0x000473a4      0x1fc obj/default/lua/liolib.o
                                0x264 (size before relaxing)
 .rodata        0x000475a0       0xe8 obj/default/lua/liolib.o
 .rodata.str1.4
                0x00047688      0x1d1 obj/default/lua/llex.o
                                0x220 (size before relaxing)
 *fill*         0x00047859        0x3 00
 .rodata        0x0004785c       0x84 obj/default/lua/llex.o
 .rodata.str1.4
                0x000478e0       0xec obj/default/lua/lmathlib.o
 .rodata        0x000479cc       0xe0 obj/default/lua/lmathlib.o
 .rodata.str1.4
                0x00047aac       0x42 obj/default/lua/lmem.o
                                 0x44 (size before relaxing)
 *fill*         0x00047aee        0x2 00
 .rodata.str1.4
                0x00047af0      0x2e4 obj/default/lua/loadlib.o
                                0x30c (size before relaxing)
 .rodata        0x00047dd4       0x3c obj/default/lua/loadlib.o
 .rodata.str1.4
                0x00047e10       0x3f obj/default/lua/lobject.o
                                 0x44 (size before relaxing)
 *fill*         0x00047e4f        0x1 00
 .rodata        0x00047e50      0x10c obj/default/lua/lobject.o
                0x00047e50                luaO_nilobject_
 .rodata.str1.4
                0x00047f5c      0x131 obj/default/lua/lopcodes.o
                                0x13c (size before relaxing)
 *fill*         0x0004808d        0x3 00
 .rodata        0x00048090       0xcc obj/default/lua/lopcodes.o
                0x00048090                luaP_opnames
                0x00048134                luaP_opmodes
 .rodata.str1.4
                0x0004815c      0x138 obj/default/lua/loslib.o
                                0x158 (size before relaxing)
 .rodata        0x00048294       0x94 obj/default/lua/loslib.o
 .rodata.str1.4
                0x00048328      0x266 obj/default/lua/lparser.o
                                0x284 (size before relaxing)
 .rodata        0x0004858e       0x1e obj/default/lua/lparser.o
 .rodata.str1.4
                0x000485ac       0x12 obj/default/lua/lstate.o
                                 0x14 (size before relaxing)
 *fill*         0x000485be        0x2 00
 .rodata.str1.4
                0x000485c0      0x32a obj/default/lua/lstrlib.o
                                0x344 (size before relaxing)
 *fill*         0x000488ea        0x2 00
 .rodata        0x000488ec       0x78 obj/default/lua/lstrlib.o
 .rodata.str1.4
                0x00048964       0x4f obj/default/lua/ltable.o
                                 0x50 (size before relaxing)
 *fill*         0x000489b3        0x1 00
 .rodata        0x000489b4       0x1c obj/default/lua/ltable.o
 .rodata.str1.4
                0x000489d0       0xbd obj/default/lua/ltablib.o
                                 0xd8 (size before relaxing)
 *fill*         0x00048a8d        0x3 00
 .rodata        0x00048a90       0x38 obj/default/lua/ltablib.o
 .rodata.str1.4
                0x00048ac8       0xa7 obj/default/lua/ltm.o
                                 0xe4 (size before relaxing)
 *fill*         0x00048b6f        0x1 00
 .rodata        0x00048b70       0x80 obj/default/lua/ltm.o
                0x00048b70                luaT_typenames_
 .rodata.str1.4
                0x00048bf0       0x6d obj/default/lua/lundump.o
                                 0x70 (size before relaxing)
 *fill*         0x00048c5d        0x3 00
 .rodata.str1.4
                0x00048c60       0xb4 obj/default/lua/lvm.o
                                 0xc4 (size before relaxing)
 .rodata.str1.4
                0x00048d14      0x22d obj/default/min.o
                                0x230 (size before relaxing)
 *fill*         0x00048f41        0x3 00
 .rodata.str1.4
                0x00048f44       0x13 obj/default/mmcfs/fatfs/ff.o
                                 0x14 (size before relaxing)
 .rodata        0x00048f57        0xd obj/default/mmcfs/fatfs/ff.o
 .rodata        0x00048f64     0xeab0 obj/default/mmcfs/fatfs/option/cc932.o
 .rodata.str1.4
                0x00057a14        0x7 obj/default/mmcfs/mmcfs.o
                                  0x8 (size before relaxing)
 *fill*         0x00057a1b        0x1 00
 .rodata        0x00057a1c       0x40 c:/develop/altera/11.1/nios2eds/bin/gnu/h-i686-mingw32/bin/../lib/gcc/nios2-elf/4.1.2/../../../../nios2-elf/lib\libm.a(lib_a-s_atan.o)
 .rodata.str1.4
                0x00000000        0xc c:/develop/altera/11.1/nios2eds/bin/gnu/h-i686-mingw32/bin/../lib/gcc/nios2-elf/4.1.2/../../../../nios2-elf/lib\libm.a(lib_a-w_acos.o)
 .rodata.str1.4
                0x00000000        0xc c:/develop/altera/11.1/nios2eds/bin/gnu/h-i686-mingw32/bin/../lib/gcc/nios2-elf/4.1.2/../../../../nios2-elf/lib\libm.a(lib_a-w_asin.o)
 .rodata.str1.4
                0x00000000        0x8 c:/develop/altera/11.1/nios2eds/bin/gnu/h-i686-mingw32/bin/../lib/gcc/nios2-elf/4.1.2/../../../../nios2-elf/lib\libm.a(lib_a-w_cosh.o)
 .rodata.str1.4
                0x00000000        0x4 c:/develop/altera/11.1/nios2eds/bin/gnu/h-i686-mingw32/bin/../lib/gcc/nios2-elf/4.1.2/../../../../nios2-elf/lib\libm.a(lib_a-w_exp.o)
 .rodata.str1.4
                0x00000000        0x8 c:/develop/altera/11.1/nios2eds/bin/gnu/h-i686-mingw32/bin/../lib/gcc/nios2-elf/4.1.2/../../../../nios2-elf/lib\libm.a(lib_a-w_fmod.o)
 .rodata.str1.4
                0x00000000        0x8 c:/develop/altera/11.1/nios2eds/bin/gnu/h-i686-mingw32/bin/../lib/gcc/nios2-elf/4.1.2/../../../../nios2-elf/lib\libm.a(lib_a-w_log.o)
 .rodata.str1.4
                0x00057a5c        0x6 c:/develop/altera/11.1/nios2eds/bin/gnu/h-i686-mingw32/bin/../lib/gcc/nios2-elf/4.1.2/../../../../nios2-elf/lib\libm.a(lib_a-w_log10.o)
                                  0xc (size before relaxing)
 .rodata.str1.4
                0x00000000        0x4 c:/develop/altera/11.1/nios2eds/bin/gnu/h-i686-mingw32/bin/../lib/gcc/nios2-elf/4.1.2/../../../../nios2-elf/lib\libm.a(lib_a-w_pow.o)
 .rodata.str1.4
                0x00000000        0x8 c:/develop/altera/11.1/nios2eds/bin/gnu/h-i686-mingw32/bin/../lib/gcc/nios2-elf/4.1.2/../../../../nios2-elf/lib\libm.a(lib_a-w_sinh.o)
 .rodata.str1.4
                0x00000000        0x8 c:/develop/altera/11.1/nios2eds/bin/gnu/h-i686-mingw32/bin/../lib/gcc/nios2-elf/4.1.2/../../../../nios2-elf/lib\libm.a(lib_a-w_sqrt.o)
 *fill*         0x00057a62        0x2 00
 .rodata        0x00057a64       0x30 c:/develop/altera/11.1/nios2eds/bin/gnu/h-i686-mingw32/bin/../lib/gcc/nios2-elf/4.1.2/../../../../nios2-elf/lib\libm.a(lib_a-e_exp.o)
 .rodata        0x00057a94       0x10 c:/develop/altera/11.1/nios2eds/bin/gnu/h-i686-mingw32/bin/../lib/gcc/nios2-elf/4.1.2/../../../../nios2-elf/lib\libm.a(lib_a-e_fmod.o)
 .rodata.str1.4
                0x00000000        0x4 c:/develop/altera/11.1/nios2eds/bin/gnu/h-i686-mingw32/bin/../lib/gcc/nios2-elf/4.1.2/../../../../nios2-elf/lib\libm.a(lib_a-e_pow.o)
 .rodata        0x00057aa4       0x30 c:/develop/altera/11.1/nios2eds/bin/gnu/h-i686-mingw32/bin/../lib/gcc/nios2-elf/4.1.2/../../../../nios2-elf/lib\libm.a(lib_a-e_pow.o)
 .rodata        0x00057ad4      0x188 c:/develop/altera/11.1/nios2eds/bin/gnu/h-i686-mingw32/bin/../lib/gcc/nios2-elf/4.1.2/../../../../nios2-elf/lib\libm.a(lib_a-e_rem_pio2.o)
 .rodata        0x00057c5c       0x50 c:/develop/altera/11.1/nios2eds/bin/gnu/h-i686-mingw32/bin/../lib/gcc/nios2-elf/4.1.2/../../../../nios2-elf/lib\libm.a(lib_a-k_rem_pio2.o)
 .rodata        0x00057cac       0x10 c:/develop/altera/11.1/nios2eds/bin/gnu/h-i686-mingw32/bin/../lib/gcc/nios2-elf/4.1.2/../../../../nios2-elf/lib\libm.a(lib_a-s_rint.o)
 .rodata        0x00057cbc       0x14 c:/develop/altera/11.1/nios2eds/bin/gnu/h-i686-mingw32/bin/../lib/gcc/nios2-elf/4.1.2\libgcc.a(_thenan_df.o)
                0x00057cbc                __thenan_df
 .rodata        0x00057cd0      0x100 c:/develop/altera/11.1/nios2eds/bin/gnu/h-i686-mingw32/bin/../lib/gcc/nios2-elf/4.1.2\libgcc.a(_clz.o)
                0x00057cd0                __clz_tab
 .rodata        0x00057dd0      0x281 c:/develop/altera/11.1/nios2eds/bin/gnu/h-i686-mingw32/bin/../lib/gcc/nios2-elf/4.1.2/../../../../nios2-elf/lib\libc.a(lib_a-ctype_.o)
                0x00057dd0                _ctype_
 .rodata.str1.4
                0x00000000        0x4 c:/develop/altera/11.1/nios2eds/bin/gnu/h-i686-mingw32/bin/../lib/gcc/nios2-elf/4.1.2/../../../../nios2-elf/lib\libc.a(lib_a-impure.o)
 *fill*         0x00058051        0x3 00
 .rodata.str1.4
                0x00058054        0xb c:/develop/altera/11.1/nios2eds/bin/gnu/h-i686-mingw32/bin/../lib/gcc/nios2-elf/4.1.2/../../../../nios2-elf/lib\libc.a(lib_a-locale.o)
                                 0x18 (size before relaxing)
 *fill*         0x0005805f        0x1 00
 .rodata        0x00058060       0x30 c:/develop/altera/11.1/nios2eds/bin/gnu/h-i686-mingw32/bin/../lib/gcc/nios2-elf/4.1.2/../../../../nios2-elf/lib\libc.a(lib_a-locale.o)
 .rodata        0x00058090       0x60 c:/develop/altera/11.1/nios2eds/bin/gnu/h-i686-mingw32/bin/../lib/gcc/nios2-elf/4.1.2/../../../../nios2-elf/lib\libc.a(lib_a-mktime.o)
 .rodata        0x000580f0       0x60 c:/develop/altera/11.1/nios2eds/bin/gnu/h-i686-mingw32/bin/../lib/gcc/nios2-elf/4.1.2/../../../../nios2-elf/lib\libc.a(lib_a-mktm_r.o)
 .rodata.str1.4
                0x00000000        0x4 c:/develop/altera/11.1/nios2eds/bin/gnu/h-i686-mingw32/bin/../lib/gcc/nios2-elf/4.1.2/../../../../nios2-elf/lib\libc.a(lib_a-puts.o)
 .rodata.str1.4
                0x00058150      0x7a2 c:/develop/altera/11.1/nios2eds/bin/gnu/h-i686-mingw32/bin/../lib/gcc/nios2-elf/4.1.2/../../../../nios2-elf/lib\libc.a(lib_a-strerror.o)
                                0x7a8 (size before relaxing)
 *fill*         0x000588f2        0x2 00
 .rodata.str1.4
                0x000588f4      0x13d c:/develop/altera/11.1/nios2eds/bin/gnu/h-i686-mingw32/bin/../lib/gcc/nios2-elf/4.1.2/../../../../nios2-elf/lib\libc.a(lib_a-strftime.o)
                                0x144 (size before relaxing)
 *fill*         0x00058a31        0x3 00
 .rodata        0x00058a34       0x98 c:/develop/altera/11.1/nios2eds/bin/gnu/h-i686-mingw32/bin/../lib/gcc/nios2-elf/4.1.2/../../../../nios2-elf/lib\libc.a(lib_a-strftime.o)
 .rodata.str1.4
                0x00058acc        0xf c:/develop/altera/11.1/nios2eds/bin/gnu/h-i686-mingw32/bin/../lib/gcc/nios2-elf/4.1.2/../../../../nios2-elf/lib\libc.a(lib_a-strtod.o)
                                 0x10 (size before relaxing)
 *fill*         0x00058adb        0x1 00
 .rodata        0x00058adc       0x28 c:/develop/altera/11.1/nios2eds/bin/gnu/h-i686-mingw32/bin/../lib/gcc/nios2-elf/4.1.2/../../../../nios2-elf/lib\libc.a(lib_a-strtod.o)
 .rodata.str1.4
                0x00058b04       0x1b c:/develop/altera/11.1/nios2eds/bin/gnu/h-i686-mingw32/bin/../lib/gcc/nios2-elf/4.1.2/../../../../nios2-elf/lib\libc.a(lib_a-tmpnam.o)
                                 0x24 (size before relaxing)
 *fill*         0x00058b1f        0x1 00
 .rodata.str1.4
                0x00058b20        0x4 c:/develop/altera/11.1/nios2eds/bin/gnu/h-i686-mingw32/bin/../lib/gcc/nios2-elf/4.1.2/../../../../nios2-elf/lib\libc.a(lib_a-tzvars.o)
 .rodata.str1.4
                0x00058b24       0x52 c:/develop/altera/11.1/nios2eds/bin/gnu/h-i686-mingw32/bin/../lib/gcc/nios2-elf/4.1.2/../../../../nios2-elf/lib\libc.a(lib_a-vfprintf.o)
                                 0x60 (size before relaxing)
 .rodata        0x00058b76       0x20 c:/develop/altera/11.1/nios2eds/bin/gnu/h-i686-mingw32/bin/../lib/gcc/nios2-elf/4.1.2/../../../../nios2-elf/lib\libc.a(lib_a-vfprintf.o)
 *fill*         0x00058b96        0x2 00
 .rodata.str1.4
                0x00058b98        0x5 c:/develop/altera/11.1/nios2eds/bin/gnu/h-i686-mingw32/bin/../lib/gcc/nios2-elf/4.1.2/../../../../nios2-elf/lib\libc.a(lib_a-vfscanf.o)
                                  0x8 (size before relaxing)
 *fill*         0x00058b9d        0x1 00
 .rodata        0x00058b9e       0x22 c:/develop/altera/11.1/nios2eds/bin/gnu/h-i686-mingw32/bin/../lib/gcc/nios2-elf/4.1.2/../../../../nios2-elf/lib\libc.a(lib_a-vfscanf.o)
 .rodata.str1.4
                0x00058bc0       0x10 c:/develop/altera/11.1/nios2eds/bin/gnu/h-i686-mingw32/bin/../lib/gcc/nios2-elf/4.1.2/../../../../nios2-elf/lib\libc.a(lib_a-dtoa.o)
                                 0x14 (size before relaxing)
 .rodata.str1.4
                0x00058bd0       0x1b c:/develop/altera/11.1/nios2eds/bin/gnu/h-i686-mingw32/bin/../lib/gcc/nios2-elf/4.1.2/../../../../nios2-elf/lib\libc.a(lib_a-gdtoa-gethex.o)
                                 0x1c (size before relaxing)
 .rodata.str1.4
                0x00000000        0x4 c:/develop/altera/11.1/nios2eds/bin/gnu/h-i686-mingw32/bin/../lib/gcc/nios2-elf/4.1.2/../../../../nios2-elf/lib\libc.a(lib_a-mbrtowc.o)
 *fill*         0x00058beb        0x1 00
 .rodata        0x00058bec      0x124 c:/develop/altera/11.1/nios2eds/bin/gnu/h-i686-mingw32/bin/../lib/gcc/nios2-elf/4.1.2/../../../../nios2-elf/lib\libc.a(lib_a-mprec.o)
                0x00058bec                __mprec_tens
                0x00058cb4                __mprec_bigtens
                0x00058cdc                __mprec_tinytens
 .rodata.str1.4
                0x00058d10        0xa ../Cineraria_DE0_HAL_bsp/\libhal_bsp.a(alt_dev.o)
                                  0xc (size before relaxing)
 *fill*         0x00058d1a        0x2 00
 .rodata.str1.4
                0x00058d1c        0xf ../Cineraria_DE0_HAL_bsp/\libhal_bsp.a(alt_main.o)
                                 0x10 (size before relaxing)
 *fill*         0x00058d2b        0x1 00
 .rodata.str1.4
                0x00058d2c       0x38 ../Cineraria_DE0_HAL_bsp/\libhal_bsp.a(alt_sys_init.o)
                                 0x48 (size before relaxing)
 *(.rodata1)
                0x00058d64                . = ALIGN (0x4)
                0x00058d64                PROVIDE (__ram_rodata_end, ABSOLUTE (.))
                0x00046388                PROVIDE (__flash_rodata_start, LOADADDR (.rodata))

.rwdata         0x00058d64     0x1dac
                0x00058d64                PROVIDE (__ram_rwdata_start, ABSOLUTE (.))
                0x00058d64                . = ALIGN (0x4)
 *(.got.plt)
 *(.got)
 *(.data1)
 *(.data .data.* .gnu.linkonce.d.*)
 .data          0x00058d64        0x0 ../Cineraria_DE0_HAL_bsp//obj/HAL/src/crt0.o
 .data          0x00058d64        0x0 obj/default/lua/lapi.o
 .data          0x00058d64        0x0 obj/default/lua/lauxlib.o
 .data          0x00058d64        0x0 obj/default/lua/lbaselib.o
 .data          0x00058d64        0x0 obj/default/lua/lbitlib.o
 .data          0x00058d64        0x0 obj/default/lua/lcode.o
 .data          0x00058d64        0x0 obj/default/lua/lcorolib.o
 .data          0x00058d64        0x0 obj/default/lua/lctype.o
 .data          0x00058d64        0x0 obj/default/lua/ldblib.o
 .data          0x00058d64        0x0 obj/default/lua/ldebug.o
 .data          0x00058d64        0x0 obj/default/lua/ldo.o
 .data          0x00058d64        0x0 obj/default/lua/ldump.o
 .data          0x00058d64        0x0 obj/default/lua/lfunc.o
 .data          0x00058d64        0x0 obj/default/lua/lgc.o
 .data          0x00058d64        0x0 obj/default/lua/linit.o
 .data          0x00058d64        0x0 obj/default/lua/liolib.o
 .data          0x00058d64        0x0 obj/default/lua/llex.o
 .data          0x00058d64        0x0 obj/default/lua/lmathlib.o
 .data          0x00058d64        0x0 obj/default/lua/lmem.o
 .data          0x00058d64        0x0 obj/default/lua/loadlib.o
 .data          0x00058d64        0x0 obj/default/lua/lobject.o
 .data          0x00058d64        0x0 obj/default/lua/lopcodes.o
 .data          0x00058d64        0x0 obj/default/lua/loslib.o
 .data          0x00058d64        0x0 obj/default/lua/lparser.o
 .data          0x00058d64        0x0 obj/default/lua/lstate.o
 .data          0x00058d64        0x0 obj/default/lua/lstring.o
 .data          0x00058d64        0x0 obj/default/lua/lstrlib.o
 .data          0x00058d64        0x0 obj/default/lua/ltable.o
 .data          0x00058d64        0x0 obj/default/lua/ltablib.o
 .data          0x00058d64        0x0 obj/default/lua/ltm.o
 .data          0x00058d64        0x0 obj/default/lua/lundump.o
 .data          0x00058d64        0x0 obj/default/lua/lvm.o
 .data          0x00058d64        0x0 obj/default/lua/lzio.o
 .data          0x00058d64        0x0 obj/default/min.o
 .data          0x00058d64        0x0 obj/default/mmcfs/fatfs/ff.o
 .data          0x00058d64        0x0 obj/default/mmcfs/fatfs/mmcbb.o
 .data          0x00058d64        0x0 obj/default/mmcfs/fatfs/option/cc932.o
 .data          0x00058d64        0x0 obj/default/mmcfs/gettime.o
 .data          0x00058d64        0x0 obj/default/mmcfs/mmc_spi.o
 .data          0x00058d64       0x28 obj/default/mmcfs/mmcfs.o
 .data          0x00058d8c        0x0 c:/develop/altera/11.1/nios2eds/bin/gnu/h-i686-mingw32/bin/../lib/gcc/nios2-elf/4.1.2/../../../../nios2-elf/lib\libm.a(lib_a-s_atan.o)
 .data          0x00058d8c        0x0 c:/develop/altera/11.1/nios2eds/bin/gnu/h-i686-mingw32/bin/../lib/gcc/nios2-elf/4.1.2/../../../../nios2-elf/lib\libm.a(lib_a-s_ceil.o)
 .data          0x00058d8c        0x0 c:/develop/altera/11.1/nios2eds/bin/gnu/h-i686-mingw32/bin/../lib/gcc/nios2-elf/4.1.2/../../../../nios2-elf/lib\libm.a(lib_a-s_cos.o)
 .data          0x00058d8c        0x0 c:/develop/altera/11.1/nios2eds/bin/gnu/h-i686-mingw32/bin/../lib/gcc/nios2-elf/4.1.2/../../../../nios2-elf/lib\libm.a(lib_a-s_fabs.o)
 .data          0x00058d8c        0x0 c:/develop/altera/11.1/nios2eds/bin/gnu/h-i686-mingw32/bin/../lib/gcc/nios2-elf/4.1.2/../../../../nios2-elf/lib\libm.a(lib_a-s_floor.o)
 .data          0x00058d8c        0x0 c:/develop/altera/11.1/nios2eds/bin/gnu/h-i686-mingw32/bin/../lib/gcc/nios2-elf/4.1.2/../../../../nios2-elf/lib\libm.a(lib_a-s_frexp.o)
 .data          0x00058d8c        0x0 c:/develop/altera/11.1/nios2eds/bin/gnu/h-i686-mingw32/bin/../lib/gcc/nios2-elf/4.1.2/../../../../nios2-elf/lib\libm.a(lib_a-s_ldexp.o)
 .data          0x00058d8c        0x0 c:/develop/altera/11.1/nios2eds/bin/gnu/h-i686-mingw32/bin/../lib/gcc/nios2-elf/4.1.2/../../../../nios2-elf/lib\libm.a(lib_a-s_modf.o)
 .data          0x00058d8c        0x0 c:/develop/altera/11.1/nios2eds/bin/gnu/h-i686-mingw32/bin/../lib/gcc/nios2-elf/4.1.2/../../../../nios2-elf/lib\libm.a(lib_a-s_scalbn.o)
 .data          0x00058d8c        0x0 c:/develop/altera/11.1/nios2eds/bin/gnu/h-i686-mingw32/bin/../lib/gcc/nios2-elf/4.1.2/../../../../nios2-elf/lib\libm.a(lib_a-s_sin.o)
 .data          0x00058d8c        0x0 c:/develop/altera/11.1/nios2eds/bin/gnu/h-i686-mingw32/bin/../lib/gcc/nios2-elf/4.1.2/../../../../nios2-elf/lib\libm.a(lib_a-s_tan.o)
 .data          0x00058d8c        0x0 c:/develop/altera/11.1/nios2eds/bin/gnu/h-i686-mingw32/bin/../lib/gcc/nios2-elf/4.1.2/../../../../nios2-elf/lib\libm.a(lib_a-s_tanh.o)
 .data          0x00058d8c        0x0 c:/develop/altera/11.1/nios2eds/bin/gnu/h-i686-mingw32/bin/../lib/gcc/nios2-elf/4.1.2/../../../../nios2-elf/lib\libm.a(lib_a-w_acos.o)
 .data          0x00058d8c        0x0 c:/develop/altera/11.1/nios2eds/bin/gnu/h-i686-mingw32/bin/../lib/gcc/nios2-elf/4.1.2/../../../../nios2-elf/lib\libm.a(lib_a-w_asin.o)
 .data          0x00058d8c        0x0 c:/develop/altera/11.1/nios2eds/bin/gnu/h-i686-mingw32/bin/../lib/gcc/nios2-elf/4.1.2/../../../../nios2-elf/lib\libm.a(lib_a-w_atan2.o)
 .data          0x00058d8c        0x0 c:/develop/altera/11.1/nios2eds/bin/gnu/h-i686-mingw32/bin/../lib/gcc/nios2-elf/4.1.2/../../../../nios2-elf/lib\libm.a(lib_a-w_cosh.o)
 .data          0x00058d8c        0x0 c:/develop/altera/11.1/nios2eds/bin/gnu/h-i686-mingw32/bin/../lib/gcc/nios2-elf/4.1.2/../../../../nios2-elf/lib\libm.a(lib_a-w_exp.o)
 .data          0x00058d8c        0x0 c:/develop/altera/11.1/nios2eds/bin/gnu/h-i686-mingw32/bin/../lib/gcc/nios2-elf/4.1.2/../../../../nios2-elf/lib\libm.a(lib_a-w_fmod.o)
 .data          0x00058d8c        0x0 c:/develop/altera/11.1/nios2eds/bin/gnu/h-i686-mingw32/bin/../lib/gcc/nios2-elf/4.1.2/../../../../nios2-elf/lib\libm.a(lib_a-w_log.o)
 .data          0x00058d8c        0x0 c:/develop/altera/11.1/nios2eds/bin/gnu/h-i686-mingw32/bin/../lib/gcc/nios2-elf/4.1.2/../../../../nios2-elf/lib\libm.a(lib_a-w_log10.o)
 .data          0x00058d8c        0x0 c:/develop/altera/11.1/nios2eds/bin/gnu/h-i686-mingw32/bin/../lib/gcc/nios2-elf/4.1.2/../../../../nios2-elf/lib\libm.a(lib_a-w_pow.o)
 .data          0x00058d8c        0x0 c:/develop/altera/11.1/nios2eds/bin/gnu/h-i686-mingw32/bin/../lib/gcc/nios2-elf/4.1.2/../../../../nios2-elf/lib\libm.a(lib_a-w_sinh.o)
 .data          0x00058d8c        0x0 c:/develop/altera/11.1/nios2eds/bin/gnu/h-i686-mingw32/bin/../lib/gcc/nios2-elf/4.1.2/../../../../nios2-elf/lib\libm.a(lib_a-w_sqrt.o)
 .data          0x00058d8c        0x0 c:/develop/altera/11.1/nios2eds/bin/gnu/h-i686-mingw32/bin/../lib/gcc/nios2-elf/4.1.2/../../../../nios2-elf/lib\libm.a(lib_a-e_acos.o)
 .data          0x00058d8c        0x0 c:/develop/altera/11.1/nios2eds/bin/gnu/h-i686-mingw32/bin/../lib/gcc/nios2-elf/4.1.2/../../../../nios2-elf/lib\libm.a(lib_a-e_asin.o)
 .data          0x00058d8c        0x0 c:/develop/altera/11.1/nios2eds/bin/gnu/h-i686-mingw32/bin/../lib/gcc/nios2-elf/4.1.2/../../../../nios2-elf/lib\libm.a(lib_a-e_atan2.o)
 .data          0x00058d8c        0x0 c:/develop/altera/11.1/nios2eds/bin/gnu/h-i686-mingw32/bin/../lib/gcc/nios2-elf/4.1.2/../../../../nios2-elf/lib\libm.a(lib_a-e_cosh.o)
 .data          0x00058d8c        0x0 c:/develop/altera/11.1/nios2eds/bin/gnu/h-i686-mingw32/bin/../lib/gcc/nios2-elf/4.1.2/../../../../nios2-elf/lib\libm.a(lib_a-e_exp.o)
 .data          0x00058d8c        0x0 c:/develop/altera/11.1/nios2eds/bin/gnu/h-i686-mingw32/bin/../lib/gcc/nios2-elf/4.1.2/../../../../nios2-elf/lib\libm.a(lib_a-e_fmod.o)
 .data          0x00058d8c        0x0 c:/develop/altera/11.1/nios2eds/bin/gnu/h-i686-mingw32/bin/../lib/gcc/nios2-elf/4.1.2/../../../../nios2-elf/lib\libm.a(lib_a-e_log.o)
 .data          0x00058d8c        0x0 c:/develop/altera/11.1/nios2eds/bin/gnu/h-i686-mingw32/bin/../lib/gcc/nios2-elf/4.1.2/../../../../nios2-elf/lib\libm.a(lib_a-e_log10.o)
 .data          0x00058d8c        0x0 c:/develop/altera/11.1/nios2eds/bin/gnu/h-i686-mingw32/bin/../lib/gcc/nios2-elf/4.1.2/../../../../nios2-elf/lib\libm.a(lib_a-e_pow.o)
 .data          0x00058d8c        0x0 c:/develop/altera/11.1/nios2eds/bin/gnu/h-i686-mingw32/bin/../lib/gcc/nios2-elf/4.1.2/../../../../nios2-elf/lib\libm.a(lib_a-e_rem_pio2.o)
 .data          0x00058d8c        0x0 c:/develop/altera/11.1/nios2eds/bin/gnu/h-i686-mingw32/bin/../lib/gcc/nios2-elf/4.1.2/../../../../nios2-elf/lib\libm.a(lib_a-e_sinh.o)
 .data          0x00058d8c        0x0 c:/develop/altera/11.1/nios2eds/bin/gnu/h-i686-mingw32/bin/../lib/gcc/nios2-elf/4.1.2/../../../../nios2-elf/lib\libm.a(lib_a-e_sqrt.o)
 .data          0x00058d8c        0x0 c:/develop/altera/11.1/nios2eds/bin/gnu/h-i686-mingw32/bin/../lib/gcc/nios2-elf/4.1.2/../../../../nios2-elf/lib\libm.a(lib_a-k_cos.o)
 .data          0x00058d8c        0x0 c:/develop/altera/11.1/nios2eds/bin/gnu/h-i686-mingw32/bin/../lib/gcc/nios2-elf/4.1.2/../../../../nios2-elf/lib\libm.a(lib_a-k_rem_pio2.o)
 .data          0x00058d8c        0x0 c:/develop/altera/11.1/nios2eds/bin/gnu/h-i686-mingw32/bin/../lib/gcc/nios2-elf/4.1.2/../../../../nios2-elf/lib\libm.a(lib_a-k_sin.o)
 .data          0x00058d8c        0x0 c:/develop/altera/11.1/nios2eds/bin/gnu/h-i686-mingw32/bin/../lib/gcc/nios2-elf/4.1.2/../../../../nios2-elf/lib\libm.a(lib_a-k_tan.o)
 .data          0x00058d8c        0x0 c:/develop/altera/11.1/nios2eds/bin/gnu/h-i686-mingw32/bin/../lib/gcc/nios2-elf/4.1.2/../../../../nios2-elf/lib\libm.a(lib_a-s_copysign.o)
 .data          0x00058d8c        0x0 c:/develop/altera/11.1/nios2eds/bin/gnu/h-i686-mingw32/bin/../lib/gcc/nios2-elf/4.1.2/../../../../nios2-elf/lib\libm.a(lib_a-s_expm1.o)
 .data          0x00058d8c        0x0 c:/develop/altera/11.1/nios2eds/bin/gnu/h-i686-mingw32/bin/../lib/gcc/nios2-elf/4.1.2/../../../../nios2-elf/lib\libm.a(lib_a-s_finite.o)
 .data          0x00058d8c        0x0 c:/develop/altera/11.1/nios2eds/bin/gnu/h-i686-mingw32/bin/../lib/gcc/nios2-elf/4.1.2/../../../../nios2-elf/lib\libm.a(lib_a-s_isnand.o)
 .data          0x00058d8c        0x0 c:/develop/altera/11.1/nios2eds/bin/gnu/h-i686-mingw32/bin/../lib/gcc/nios2-elf/4.1.2/../../../../nios2-elf/lib\libm.a(lib_a-s_lib_ver.o)
 .data          0x00058d8c        0x0 c:/develop/altera/11.1/nios2eds/bin/gnu/h-i686-mingw32/bin/../lib/gcc/nios2-elf/4.1.2/../../../../nios2-elf/lib\libm.a(lib_a-s_matherr.o)
 .data          0x00058d8c        0x0 c:/develop/altera/11.1/nios2eds/bin/gnu/h-i686-mingw32/bin/../lib/gcc/nios2-elf/4.1.2/../../../../nios2-elf/lib\libm.a(lib_a-s_nan.o)
 .data          0x00058d8c        0x0 c:/develop/altera/11.1/nios2eds/bin/gnu/h-i686-mingw32/bin/../lib/gcc/nios2-elf/4.1.2/../../../../nios2-elf/lib\libm.a(lib_a-s_rint.o)
 .data          0x00058d8c        0x0 c:/develop/altera/11.1/nios2eds/bin/gnu/h-i686-mingw32/bin/../lib/gcc/nios2-elf/4.1.2\libgcc.a(_fixunsdfsi.o)
 .data          0x00058d8c        0x0 c:/develop/altera/11.1/nios2eds/bin/gnu/h-i686-mingw32/bin/../lib/gcc/nios2-elf/4.1.2\libgcc.a(_addsub_df.o)
 .data          0x00058d8c        0x0 c:/develop/altera/11.1/nios2eds/bin/gnu/h-i686-mingw32/bin/../lib/gcc/nios2-elf/4.1.2\libgcc.a(_mul_df.o)
 .data          0x00058d8c        0x0 c:/develop/altera/11.1/nios2eds/bin/gnu/h-i686-mingw32/bin/../lib/gcc/nios2-elf/4.1.2\libgcc.a(_div_df.o)
 .data          0x00058d8c        0x0 c:/develop/altera/11.1/nios2eds/bin/gnu/h-i686-mingw32/bin/../lib/gcc/nios2-elf/4.1.2\libgcc.a(_eq_df.o)
 .data          0x00058d8c        0x0 c:/develop/altera/11.1/nios2eds/bin/gnu/h-i686-mingw32/bin/../lib/gcc/nios2-elf/4.1.2\libgcc.a(_ne_df.o)
 .data          0x00058d8c        0x0 c:/develop/altera/11.1/nios2eds/bin/gnu/h-i686-mingw32/bin/../lib/gcc/nios2-elf/4.1.2\libgcc.a(_gt_df.o)
 .data          0x00058d8c        0x0 c:/develop/altera/11.1/nios2eds/bin/gnu/h-i686-mingw32/bin/../lib/gcc/nios2-elf/4.1.2\libgcc.a(_ge_df.o)
 .data          0x00058d8c        0x0 c:/develop/altera/11.1/nios2eds/bin/gnu/h-i686-mingw32/bin/../lib/gcc/nios2-elf/4.1.2\libgcc.a(_lt_df.o)
 .data          0x00058d8c        0x0 c:/develop/altera/11.1/nios2eds/bin/gnu/h-i686-mingw32/bin/../lib/gcc/nios2-elf/4.1.2\libgcc.a(_le_df.o)
 .data          0x00058d8c        0x0 c:/develop/altera/11.1/nios2eds/bin/gnu/h-i686-mingw32/bin/../lib/gcc/nios2-elf/4.1.2\libgcc.a(_si_to_df.o)
 .data          0x00058d8c        0x0 c:/develop/altera/11.1/nios2eds/bin/gnu/h-i686-mingw32/bin/../lib/gcc/nios2-elf/4.1.2\libgcc.a(_df_to_si.o)
 .data          0x00058d8c        0x0 c:/develop/altera/11.1/nios2eds/bin/gnu/h-i686-mingw32/bin/../lib/gcc/nios2-elf/4.1.2\libgcc.a(_thenan_df.o)
 .data          0x00058d8c        0x0 c:/develop/altera/11.1/nios2eds/bin/gnu/h-i686-mingw32/bin/../lib/gcc/nios2-elf/4.1.2\libgcc.a(_usi_to_df.o)
 .data          0x00058d8c        0x0 c:/develop/altera/11.1/nios2eds/bin/gnu/h-i686-mingw32/bin/../lib/gcc/nios2-elf/4.1.2\libgcc.a(lib2-divmod.o)
 .data          0x00058d8c        0x0 c:/develop/altera/11.1/nios2eds/bin/gnu/h-i686-mingw32/bin/../lib/gcc/nios2-elf/4.1.2\libgcc.a(_muldi3.o)
 .data          0x00058d8c        0x0 c:/develop/altera/11.1/nios2eds/bin/gnu/h-i686-mingw32/bin/../lib/gcc/nios2-elf/4.1.2\libgcc.a(_clzsi2.o)
 .data          0x00058d8c        0x0 c:/develop/altera/11.1/nios2eds/bin/gnu/h-i686-mingw32/bin/../lib/gcc/nios2-elf/4.1.2\libgcc.a(_pack_df.o)
 .data          0x00058d8c        0x0 c:/develop/altera/11.1/nios2eds/bin/gnu/h-i686-mingw32/bin/../lib/gcc/nios2-elf/4.1.2\libgcc.a(_unpack_df.o)
 .data          0x00058d8c        0x0 c:/develop/altera/11.1/nios2eds/bin/gnu/h-i686-mingw32/bin/../lib/gcc/nios2-elf/4.1.2\libgcc.a(_fpcmp_parts_df.o)
 .data          0x00058d8c        0x0 c:/develop/altera/11.1/nios2eds/bin/gnu/h-i686-mingw32/bin/../lib/gcc/nios2-elf/4.1.2\libgcc.a(_clz.o)
 .data          0x00058d8c        0x0 c:/develop/altera/11.1/nios2eds/bin/gnu/h-i686-mingw32/bin/../lib/gcc/nios2-elf/4.1.2/../../../../nios2-elf/lib\libc.a(lib_a-abort.o)
 .data          0x00058d8c        0x0 c:/develop/altera/11.1/nios2eds/bin/gnu/h-i686-mingw32/bin/../lib/gcc/nios2-elf/4.1.2/../../../../nios2-elf/lib\libc.a(lib_a-clock.o)
 .data          0x00058d8c        0x0 c:/develop/altera/11.1/nios2eds/bin/gnu/h-i686-mingw32/bin/../lib/gcc/nios2-elf/4.1.2/../../../../nios2-elf/lib\libc.a(lib_a-ctype_.o)
 .data          0x00058d8c        0x0 c:/develop/altera/11.1/nios2eds/bin/gnu/h-i686-mingw32/bin/../lib/gcc/nios2-elf/4.1.2/../../../../nios2-elf/lib\libc.a(lib_a-difftime.o)
 .data          0x00058d8c        0x0 c:/develop/altera/11.1/nios2eds/bin/gnu/h-i686-mingw32/bin/../lib/gcc/nios2-elf/4.1.2/../../../../nios2-elf/lib\libc.a(lib_a-errno.o)
 .data          0x00058d8c        0x0 c:/develop/altera/11.1/nios2eds/bin/gnu/h-i686-mingw32/bin/../lib/gcc/nios2-elf/4.1.2/../../../../nios2-elf/lib\libc.a(lib_a-exit.o)
 .data          0x00058d8c        0x0 c:/develop/altera/11.1/nios2eds/bin/gnu/h-i686-mingw32/bin/../lib/gcc/nios2-elf/4.1.2/../../../../nios2-elf/lib\libc.a(lib_a-fclose.o)
 .data          0x00058d8c        0x0 c:/develop/altera/11.1/nios2eds/bin/gnu/h-i686-mingw32/bin/../lib/gcc/nios2-elf/4.1.2/../../../../nios2-elf/lib\libc.a(lib_a-fflush.o)
 .data          0x00058d8c        0x0 c:/develop/altera/11.1/nios2eds/bin/gnu/h-i686-mingw32/bin/../lib/gcc/nios2-elf/4.1.2/../../../../nios2-elf/lib\libc.a(lib_a-fgets.o)
 .data          0x00058d8c        0x0 c:/develop/altera/11.1/nios2eds/bin/gnu/h-i686-mingw32/bin/../lib/gcc/nios2-elf/4.1.2/../../../../nios2-elf/lib\libc.a(lib_a-findfp.o)
 .data          0x00058d8c        0x0 c:/develop/altera/11.1/nios2eds/bin/gnu/h-i686-mingw32/bin/../lib/gcc/nios2-elf/4.1.2/../../../../nios2-elf/lib\libc.a(lib_a-fopen.o)
 .data          0x00058d8c        0x0 c:/develop/altera/11.1/nios2eds/bin/gnu/h-i686-mingw32/bin/../lib/gcc/nios2-elf/4.1.2/../../../../nios2-elf/lib\libc.a(lib_a-fprintf.o)
 .data          0x00058d8c        0x0 c:/develop/altera/11.1/nios2eds/bin/gnu/h-i686-mingw32/bin/../lib/gcc/nios2-elf/4.1.2/../../../../nios2-elf/lib\libc.a(lib_a-fread.o)
 .data          0x00058d8c        0x0 c:/develop/altera/11.1/nios2eds/bin/gnu/h-i686-mingw32/bin/../lib/gcc/nios2-elf/4.1.2/../../../../nios2-elf/lib\libc.a(lib_a-freer.o)
 .data          0x00058d8c        0x0 c:/develop/altera/11.1/nios2eds/bin/gnu/h-i686-mingw32/bin/../lib/gcc/nios2-elf/4.1.2/../../../../nios2-elf/lib\libc.a(lib_a-freopen.o)
 .data          0x00058d8c        0x0 c:/develop/altera/11.1/nios2eds/bin/gnu/h-i686-mingw32/bin/../lib/gcc/nios2-elf/4.1.2/../../../../nios2-elf/lib\libc.a(lib_a-fscanf.o)
 .data          0x00058d8c        0x0 c:/develop/altera/11.1/nios2eds/bin/gnu/h-i686-mingw32/bin/../lib/gcc/nios2-elf/4.1.2/../../../../nios2-elf/lib\libc.a(lib_a-fseek.o)
 .data          0x00058d8c        0x0 c:/develop/altera/11.1/nios2eds/bin/gnu/h-i686-mingw32/bin/../lib/gcc/nios2-elf/4.1.2/../../../../nios2-elf/lib\libc.a(lib_a-fstatr.o)
 .data          0x00058d8c        0x0 c:/develop/altera/11.1/nios2eds/bin/gnu/h-i686-mingw32/bin/../lib/gcc/nios2-elf/4.1.2/../../../../nios2-elf/lib\libc.a(lib_a-ftell.o)
 .data          0x00058d8c        0x0 c:/develop/altera/11.1/nios2eds/bin/gnu/h-i686-mingw32/bin/../lib/gcc/nios2-elf/4.1.2/../../../../nios2-elf/lib\libc.a(lib_a-fwalk.o)
 .data          0x00058d8c        0x0 c:/develop/altera/11.1/nios2eds/bin/gnu/h-i686-mingw32/bin/../lib/gcc/nios2-elf/4.1.2/../../../../nios2-elf/lib\libc.a(lib_a-fwrite.o)
 .data          0x00058d8c        0x0 c:/develop/altera/11.1/nios2eds/bin/gnu/h-i686-mingw32/bin/../lib/gcc/nios2-elf/4.1.2/../../../../nios2-elf/lib\libc.a(lib_a-getc.o)
 .data          0x00058d8c        0x0 c:/develop/altera/11.1/nios2eds/bin/gnu/h-i686-mingw32/bin/../lib/gcc/nios2-elf/4.1.2/../../../../nios2-elf/lib\libc.a(lib_a-getenv.o)
 .data          0x00058d8c        0x0 c:/develop/altera/11.1/nios2eds/bin/gnu/h-i686-mingw32/bin/../lib/gcc/nios2-elf/4.1.2/../../../../nios2-elf/lib\libc.a(lib_a-getenv_r.o)
 .data          0x00058d8c        0x0 c:/develop/altera/11.1/nios2eds/bin/gnu/h-i686-mingw32/bin/../lib/gcc/nios2-elf/4.1.2/../../../../nios2-elf/lib\libc.a(lib_a-gmtime.o)
 .data          0x00058d8c        0x0 c:/develop/altera/11.1/nios2eds/bin/gnu/h-i686-mingw32/bin/../lib/gcc/nios2-elf/4.1.2/../../../../nios2-elf/lib\libc.a(lib_a-gmtime_r.o)
 .data          0x00058d8c      0x400 c:/develop/altera/11.1/nios2eds/bin/gnu/h-i686-mingw32/bin/../lib/gcc/nios2-elf/4.1.2/../../../../nios2-elf/lib\libc.a(lib_a-impure.o)
 .data          0x0005918c        0x0 c:/develop/altera/11.1/nios2eds/bin/gnu/h-i686-mingw32/bin/../lib/gcc/nios2-elf/4.1.2/../../../../nios2-elf/lib\libc.a(lib_a-int_errno.o)
 .data          0x0005918c        0x0 c:/develop/altera/11.1/nios2eds/bin/gnu/h-i686-mingw32/bin/../lib/gcc/nios2-elf/4.1.2/../../../../nios2-elf/lib\libc.a(lib_a-lcltime.o)
 .data          0x0005918c        0x0 c:/develop/altera/11.1/nios2eds/bin/gnu/h-i686-mingw32/bin/../lib/gcc/nios2-elf/4.1.2/../../../../nios2-elf/lib\libc.a(lib_a-lcltime_r.o)
 .data          0x0005918c        0xc c:/develop/altera/11.1/nios2eds/bin/gnu/h-i686-mingw32/bin/../lib/gcc/nios2-elf/4.1.2/../../../../nios2-elf/lib\libc.a(lib_a-locale.o)
                0x0005918c                __lc_ctype
 .data          0x00059198        0x0 c:/develop/altera/11.1/nios2eds/bin/gnu/h-i686-mingw32/bin/../lib/gcc/nios2-elf/4.1.2/../../../../nios2-elf/lib\libc.a(lib_a-makebuf.o)
 .data          0x00059198        0x0 c:/develop/altera/11.1/nios2eds/bin/gnu/h-i686-mingw32/bin/../lib/gcc/nios2-elf/4.1.2/../../../../nios2-elf/lib\libc.a(lib_a-malloc.o)
 .data          0x00059198      0x408 c:/develop/altera/11.1/nios2eds/bin/gnu/h-i686-mingw32/bin/../lib/gcc/nios2-elf/4.1.2/../../../../nios2-elf/lib\libc.a(lib_a-mallocr.o)
                0x00059198                __malloc_av_
 .data          0x000595a0        0x0 c:/develop/altera/11.1/nios2eds/bin/gnu/h-i686-mingw32/bin/../lib/gcc/nios2-elf/4.1.2/../../../../nios2-elf/lib\libc.a(lib_a-memchr.o)
 .data          0x000595a0        0x0 c:/develop/altera/11.1/nios2eds/bin/gnu/h-i686-mingw32/bin/../lib/gcc/nios2-elf/4.1.2/../../../../nios2-elf/lib\libc.a(lib_a-memcmp.o)
 .data          0x000595a0        0x0 c:/develop/altera/11.1/nios2eds/bin/gnu/h-i686-mingw32/bin/../lib/gcc/nios2-elf/4.1.2/../../../../nios2-elf/lib\libc.a(lib_a-memcpy.o)
 .data          0x000595a0        0x0 c:/develop/altera/11.1/nios2eds/bin/gnu/h-i686-mingw32/bin/../lib/gcc/nios2-elf/4.1.2/../../../../nios2-elf/lib\libc.a(lib_a-memset.o)
 .data          0x000595a0        0x0 c:/develop/altera/11.1/nios2eds/bin/gnu/h-i686-mingw32/bin/../lib/gcc/nios2-elf/4.1.2/../../../../nios2-elf/lib\libc.a(lib_a-mktime.o)
 .data          0x000595a0        0x0 c:/develop/altera/11.1/nios2eds/bin/gnu/h-i686-mingw32/bin/../lib/gcc/nios2-elf/4.1.2/../../../../nios2-elf/lib\libc.a(lib_a-mktm_r.o)
 .data          0x000595a0        0x0 c:/develop/altera/11.1/nios2eds/bin/gnu/h-i686-mingw32/bin/../lib/gcc/nios2-elf/4.1.2/../../../../nios2-elf/lib\libc.a(lib_a-openr.o)
 .data          0x000595a0        0x0 c:/develop/altera/11.1/nios2eds/bin/gnu/h-i686-mingw32/bin/../lib/gcc/nios2-elf/4.1.2/../../../../nios2-elf/lib\libc.a(lib_a-printf.o)
 .data          0x000595a0        0x0 c:/develop/altera/11.1/nios2eds/bin/gnu/h-i686-mingw32/bin/../lib/gcc/nios2-elf/4.1.2/../../../../nios2-elf/lib\libc.a(lib_a-putchar.o)
 .data          0x000595a0        0x0 c:/develop/altera/11.1/nios2eds/bin/gnu/h-i686-mingw32/bin/../lib/gcc/nios2-elf/4.1.2/../../../../nios2-elf/lib\libc.a(lib_a-puts.o)
 .data          0x000595a0        0x0 c:/develop/altera/11.1/nios2eds/bin/gnu/h-i686-mingw32/bin/../lib/gcc/nios2-elf/4.1.2/../../../../nios2-elf/lib\libc.a(lib_a-rand.o)
 .data          0x000595a0        0x0 c:/develop/altera/11.1/nios2eds/bin/gnu/h-i686-mingw32/bin/../lib/gcc/nios2-elf/4.1.2/../../../../nios2-elf/lib\libc.a(lib_a-realloc.o)
 .data          0x000595a0        0x0 c:/develop/altera/11.1/nios2eds/bin/gnu/h-i686-mingw32/bin/../lib/gcc/nios2-elf/4.1.2/../../../../nios2-elf/lib\libc.a(lib_a-reallocr.o)
 .data          0x000595a0        0x0 c:/develop/altera/11.1/nios2eds/bin/gnu/h-i686-mingw32/bin/../lib/gcc/nios2-elf/4.1.2/../../../../nios2-elf/lib\libc.a(lib_a-refill.o)
 .data          0x000595a0        0x0 c:/develop/altera/11.1/nios2eds/bin/gnu/h-i686-mingw32/bin/../lib/gcc/nios2-elf/4.1.2/../../../../nios2-elf/lib\libc.a(lib_a-rget.o)
 .data          0x000595a0        0x0 c:/develop/altera/11.1/nios2eds/bin/gnu/h-i686-mingw32/bin/../lib/gcc/nios2-elf/4.1.2/../../../../nios2-elf/lib\libc.a(lib_a-sbrkr.o)
 .data          0x000595a0        0x0 c:/develop/altera/11.1/nios2eds/bin/gnu/h-i686-mingw32/bin/../lib/gcc/nios2-elf/4.1.2/../../../../nios2-elf/lib\libc.a(lib_a-setjmp.o)
 .data          0x000595a0        0x0 c:/develop/altera/11.1/nios2eds/bin/gnu/h-i686-mingw32/bin/../lib/gcc/nios2-elf/4.1.2/../../../../nios2-elf/lib\libc.a(lib_a-setvbuf.o)
 .data          0x000595a0        0x0 c:/develop/altera/11.1/nios2eds/bin/gnu/h-i686-mingw32/bin/../lib/gcc/nios2-elf/4.1.2/../../../../nios2-elf/lib\libc.a(lib_a-signal.o)
 .data          0x000595a0        0x0 c:/develop/altera/11.1/nios2eds/bin/gnu/h-i686-mingw32/bin/../lib/gcc/nios2-elf/4.1.2/../../../../nios2-elf/lib\libc.a(lib_a-signalr.o)
 .data          0x000595a0        0x0 c:/develop/altera/11.1/nios2eds/bin/gnu/h-i686-mingw32/bin/../lib/gcc/nios2-elf/4.1.2/../../../../nios2-elf/lib\libc.a(lib_a-sprintf.o)
 .data          0x000595a0        0x0 c:/develop/altera/11.1/nios2eds/bin/gnu/h-i686-mingw32/bin/../lib/gcc/nios2-elf/4.1.2/../../../../nios2-elf/lib\libc.a(lib_a-stdio.o)
 .data          0x000595a0        0x0 c:/develop/altera/11.1/nios2eds/bin/gnu/h-i686-mingw32/bin/../lib/gcc/nios2-elf/4.1.2/../../../../nios2-elf/lib\libc.a(lib_a-strchr.o)
 .data          0x000595a0        0x0 c:/develop/altera/11.1/nios2eds/bin/gnu/h-i686-mingw32/bin/../lib/gcc/nios2-elf/4.1.2/../../../../nios2-elf/lib\libc.a(lib_a-strcmp.o)
 .data          0x000595a0        0x0 c:/develop/altera/11.1/nios2eds/bin/gnu/h-i686-mingw32/bin/../lib/gcc/nios2-elf/4.1.2/../../../../nios2-elf/lib\libc.a(lib_a-strcoll.o)
 .data          0x000595a0        0x0 c:/develop/altera/11.1/nios2eds/bin/gnu/h-i686-mingw32/bin/../lib/gcc/nios2-elf/4.1.2/../../../../nios2-elf/lib\libc.a(lib_a-strcpy.o)
 .data          0x000595a0        0x0 c:/develop/altera/11.1/nios2eds/bin/gnu/h-i686-mingw32/bin/../lib/gcc/nios2-elf/4.1.2/../../../../nios2-elf/lib\libc.a(lib_a-strerror.o)
 .data          0x000595a0        0x0 c:/develop/altera/11.1/nios2eds/bin/gnu/h-i686-mingw32/bin/../lib/gcc/nios2-elf/4.1.2/../../../../nios2-elf/lib\libc.a(lib_a-strftime.o)
 .data          0x000595a0        0x0 c:/develop/altera/11.1/nios2eds/bin/gnu/h-i686-mingw32/bin/../lib/gcc/nios2-elf/4.1.2/../../../../nios2-elf/lib\libc.a(lib_a-strlen.o)
 .data          0x000595a0        0x0 c:/develop/altera/11.1/nios2eds/bin/gnu/h-i686-mingw32/bin/../lib/gcc/nios2-elf/4.1.2/../../../../nios2-elf/lib\libc.a(lib_a-strncmp.o)
 .data          0x000595a0        0x0 c:/develop/altera/11.1/nios2eds/bin/gnu/h-i686-mingw32/bin/../lib/gcc/nios2-elf/4.1.2/../../../../nios2-elf/lib\libc.a(lib_a-strpbrk.o)
 .data          0x000595a0        0x0 c:/develop/altera/11.1/nios2eds/bin/gnu/h-i686-mingw32/bin/../lib/gcc/nios2-elf/4.1.2/../../../../nios2-elf/lib\libc.a(lib_a-strspn.o)
 .data          0x000595a0        0x0 c:/develop/altera/11.1/nios2eds/bin/gnu/h-i686-mingw32/bin/../lib/gcc/nios2-elf/4.1.2/../../../../nios2-elf/lib\libc.a(lib_a-strstr.o)
 .data          0x000595a0       0x28 c:/develop/altera/11.1/nios2eds/bin/gnu/h-i686-mingw32/bin/../lib/gcc/nios2-elf/4.1.2/../../../../nios2-elf/lib\libc.a(lib_a-strtod.o)
 .data          0x000595c8        0x0 c:/develop/altera/11.1/nios2eds/bin/gnu/h-i686-mingw32/bin/../lib/gcc/nios2-elf/4.1.2/../../../../nios2-elf/lib\libc.a(lib_a-time.o)
 .data          0x000595c8        0x0 c:/develop/altera/11.1/nios2eds/bin/gnu/h-i686-mingw32/bin/../lib/gcc/nios2-elf/4.1.2/../../../../nios2-elf/lib\libc.a(lib_a-timesr.o)
 .data          0x000595c8        0x0 c:/develop/altera/11.1/nios2eds/bin/gnu/h-i686-mingw32/bin/../lib/gcc/nios2-elf/4.1.2/../../../../nios2-elf/lib\libc.a(lib_a-tmpnam.o)
 .data          0x000595c8        0x0 c:/develop/altera/11.1/nios2eds/bin/gnu/h-i686-mingw32/bin/../lib/gcc/nios2-elf/4.1.2/../../../../nios2-elf/lib\libc.a(lib_a-tzlock.o)
 .data          0x000595c8        0x0 c:/develop/altera/11.1/nios2eds/bin/gnu/h-i686-mingw32/bin/../lib/gcc/nios2-elf/4.1.2/../../../../nios2-elf/lib\libc.a(lib_a-tzvars.o)
 .data          0x000595c8        0x0 c:/develop/altera/11.1/nios2eds/bin/gnu/h-i686-mingw32/bin/../lib/gcc/nios2-elf/4.1.2/../../../../nios2-elf/lib\libc.a(lib_a-u_strerr.o)
 .data          0x000595c8        0x0 c:/develop/altera/11.1/nios2eds/bin/gnu/h-i686-mingw32/bin/../lib/gcc/nios2-elf/4.1.2/../../../../nios2-elf/lib\libc.a(lib_a-ungetc.o)
 .data          0x000595c8        0x0 c:/develop/altera/11.1/nios2eds/bin/gnu/h-i686-mingw32/bin/../lib/gcc/nios2-elf/4.1.2/../../../../nios2-elf/lib\libc.a(lib_a-vfprintf.o)
 .data          0x000595c8        0x0 c:/develop/altera/11.1/nios2eds/bin/gnu/h-i686-mingw32/bin/../lib/gcc/nios2-elf/4.1.2/../../../../nios2-elf/lib\libc.a(lib_a-vfscanf.o)
 .data          0x000595c8        0x0 c:/develop/altera/11.1/nios2eds/bin/gnu/h-i686-mingw32/bin/../lib/gcc/nios2-elf/4.1.2/../../../../nios2-elf/lib\libc.a(lib_a-writer.o)
 .data          0x000595c8        0x0 c:/develop/altera/11.1/nios2eds/bin/gnu/h-i686-mingw32/bin/../lib/gcc/nios2-elf/4.1.2/../../../../nios2-elf/lib\libc.a(lib_a-wsetup.o)
 .data          0x000595c8        0x0 c:/develop/altera/11.1/nios2eds/bin/gnu/h-i686-mingw32/bin/../lib/gcc/nios2-elf/4.1.2/../../../../nios2-elf/lib\libc.a(lib_a-__call_atexit.o)
 .data          0x000595c8        0x0 c:/develop/altera/11.1/nios2eds/bin/gnu/h-i686-mingw32/bin/../lib/gcc/nios2-elf/4.1.2/../../../../nios2-elf/lib\libc.a(lib_a-abs.o)
 .data          0x000595c8        0x0 c:/develop/altera/11.1/nios2eds/bin/gnu/h-i686-mingw32/bin/../lib/gcc/nios2-elf/4.1.2/../../../../nios2-elf/lib\libc.a(lib_a-closer.o)
 .data          0x000595c8        0x0 c:/develop/altera/11.1/nios2eds/bin/gnu/h-i686-mingw32/bin/../lib/gcc/nios2-elf/4.1.2/../../../../nios2-elf/lib\libc.a(lib_a-div.o)
 .data          0x000595c8        0x0 c:/develop/altera/11.1/nios2eds/bin/gnu/h-i686-mingw32/bin/../lib/gcc/nios2-elf/4.1.2/../../../../nios2-elf/lib\libc.a(lib_a-dtoa.o)
 .data          0x000595c8        0x0 c:/develop/altera/11.1/nios2eds/bin/gnu/h-i686-mingw32/bin/../lib/gcc/nios2-elf/4.1.2/../../../../nios2-elf/lib\libc.a(lib_a-environ.o)
 .data          0x000595c8        0x0 c:/develop/altera/11.1/nios2eds/bin/gnu/h-i686-mingw32/bin/../lib/gcc/nios2-elf/4.1.2/../../../../nios2-elf/lib\libc.a(lib_a-flags.o)
 .data          0x000595c8        0x0 c:/develop/altera/11.1/nios2eds/bin/gnu/h-i686-mingw32/bin/../lib/gcc/nios2-elf/4.1.2/../../../../nios2-elf/lib\libc.a(lib_a-fvwrite.o)
 .data          0x000595c8        0x0 c:/develop/altera/11.1/nios2eds/bin/gnu/h-i686-mingw32/bin/../lib/gcc/nios2-elf/4.1.2/../../../../nios2-elf/lib\libc.a(lib_a-gdtoa-gethex.o)
 .data          0x000595c8        0x0 c:/develop/altera/11.1/nios2eds/bin/gnu/h-i686-mingw32/bin/../lib/gcc/nios2-elf/4.1.2/../../../../nios2-elf/lib\libc.a(lib_a-gdtoa-hexnan.o)
 .data          0x000595c8        0x0 c:/develop/altera/11.1/nios2eds/bin/gnu/h-i686-mingw32/bin/../lib/gcc/nios2-elf/4.1.2/../../../../nios2-elf/lib\libc.a(lib_a-gettimeofdayr.o)
 .data          0x000595c8       0x40 c:/develop/altera/11.1/nios2eds/bin/gnu/h-i686-mingw32/bin/../lib/gcc/nios2-elf/4.1.2/../../../../nios2-elf/lib\libc.a(lib_a-gettzinfo.o)
 .data          0x00059608        0x0 c:/develop/altera/11.1/nios2eds/bin/gnu/h-i686-mingw32/bin/../lib/gcc/nios2-elf/4.1.2/../../../../nios2-elf/lib\libc.a(lib_a-isattyr.o)
 .data          0x00059608        0x0 c:/develop/altera/11.1/nios2eds/bin/gnu/h-i686-mingw32/bin/../lib/gcc/nios2-elf/4.1.2/../../../../nios2-elf/lib\libc.a(lib_a-iswspace.o)
 .data          0x00059608        0x0 c:/develop/altera/11.1/nios2eds/bin/gnu/h-i686-mingw32/bin/../lib/gcc/nios2-elf/4.1.2/../../../../nios2-elf/lib\libc.a(lib_a-labs.o)
 .data          0x00059608        0x0 c:/develop/altera/11.1/nios2eds/bin/gnu/h-i686-mingw32/bin/../lib/gcc/nios2-elf/4.1.2/../../../../nios2-elf/lib\libc.a(lib_a-lseekr.o)
 .data          0x00059608        0x0 c:/develop/altera/11.1/nios2eds/bin/gnu/h-i686-mingw32/bin/../lib/gcc/nios2-elf/4.1.2/../../../../nios2-elf/lib\libc.a(lib_a-mbrtowc.o)
 .data          0x00059608        0x0 c:/develop/altera/11.1/nios2eds/bin/gnu/h-i686-mingw32/bin/../lib/gcc/nios2-elf/4.1.2/../../../../nios2-elf/lib\libc.a(lib_a-mbtowc_r.o)
 .data          0x00059608        0x0 c:/develop/altera/11.1/nios2eds/bin/gnu/h-i686-mingw32/bin/../lib/gcc/nios2-elf/4.1.2/../../../../nios2-elf/lib\libc.a(lib_a-memmove.o)
 .data          0x00059608        0x0 c:/develop/altera/11.1/nios2eds/bin/gnu/h-i686-mingw32/bin/../lib/gcc/nios2-elf/4.1.2/../../../../nios2-elf/lib\libc.a(lib_a-mprec.o)
 .data          0x00059608        0x0 c:/develop/altera/11.1/nios2eds/bin/gnu/h-i686-mingw32/bin/../lib/gcc/nios2-elf/4.1.2/../../../../nios2-elf/lib\libc.a(lib_a-putc.o)
 .data          0x00059608        0x0 c:/develop/altera/11.1/nios2eds/bin/gnu/h-i686-mingw32/bin/../lib/gcc/nios2-elf/4.1.2/../../../../nios2-elf/lib\libc.a(lib_a-readr.o)
 .data          0x00059608        0x0 c:/develop/altera/11.1/nios2eds/bin/gnu/h-i686-mingw32/bin/../lib/gcc/nios2-elf/4.1.2/../../../../nios2-elf/lib\libc.a(lib_a-s_isinfd.o)
 .data          0x00059608        0x0 c:/develop/altera/11.1/nios2eds/bin/gnu/h-i686-mingw32/bin/../lib/gcc/nios2-elf/4.1.2/../../../../nios2-elf/lib\libc.a(lib_a-sccl.o)
 .data          0x00059608        0x0 c:/develop/altera/11.1/nios2eds/bin/gnu/h-i686-mingw32/bin/../lib/gcc/nios2-elf/4.1.2/../../../../nios2-elf/lib\libc.a(lib_a-sf_nan.o)
 .data          0x00059608        0x0 c:/develop/altera/11.1/nios2eds/bin/gnu/h-i686-mingw32/bin/../lib/gcc/nios2-elf/4.1.2/../../../../nios2-elf/lib\libc.a(lib_a-snprintf.o)
 .data          0x00059608        0x0 c:/develop/altera/11.1/nios2eds/bin/gnu/h-i686-mingw32/bin/../lib/gcc/nios2-elf/4.1.2/../../../../nios2-elf/lib\libc.a(lib_a-strtol.o)
 .data          0x00059608        0x0 c:/develop/altera/11.1/nios2eds/bin/gnu/h-i686-mingw32/bin/../lib/gcc/nios2-elf/4.1.2/../../../../nios2-elf/lib\libc.a(lib_a-strtoll_r.o)
 .data          0x00059608        0x0 c:/develop/altera/11.1/nios2eds/bin/gnu/h-i686-mingw32/bin/../lib/gcc/nios2-elf/4.1.2/../../../../nios2-elf/lib\libc.a(lib_a-strtoul.o)
 .data          0x00059608        0x0 c:/develop/altera/11.1/nios2eds/bin/gnu/h-i686-mingw32/bin/../lib/gcc/nios2-elf/4.1.2/../../../../nios2-elf/lib\libc.a(lib_a-strtoull_r.o)
 .data          0x00059608        0x0 c:/develop/altera/11.1/nios2eds/bin/gnu/h-i686-mingw32/bin/../lib/gcc/nios2-elf/4.1.2/../../../../nios2-elf/lib\libc.a(lib_a-wbuf.o)
 .data          0x00059608        0x0 c:/develop/altera/11.1/nios2eds/bin/gnu/h-i686-mingw32/bin/../lib/gcc/nios2-elf/4.1.2/../../../../nios2-elf/lib\libc.a(lib_a-callocr.o)
 .data          0x00059608        0x0 c:/develop/altera/11.1/nios2eds/bin/gnu/h-i686-mingw32/bin/../lib/gcc/nios2-elf/4.1.2\libgcc.a(_udivdi3.o)
 .data          0x00059608        0x0 c:/develop/altera/11.1/nios2eds/bin/gnu/h-i686-mingw32/bin/../lib/gcc/nios2-elf/4.1.2\libgcc.a(_umoddi3.o)
 .data          0x00059608        0x0 c:/develop/altera/11.1/nios2eds/bin/gnu/h-i686-mingw32/bin/../lib/gcc/nios2-elf/4.1.2\libgcc.a(_ne_sf.o)
 .data          0x00059608        0x0 c:/develop/altera/11.1/nios2eds/bin/gnu/h-i686-mingw32/bin/../lib/gcc/nios2-elf/4.1.2\libgcc.a(_gt_sf.o)
 .data          0x00059608        0x0 c:/develop/altera/11.1/nios2eds/bin/gnu/h-i686-mingw32/bin/../lib/gcc/nios2-elf/4.1.2\libgcc.a(_lt_sf.o)
 .data          0x00059608        0x0 c:/develop/altera/11.1/nios2eds/bin/gnu/h-i686-mingw32/bin/../lib/gcc/nios2-elf/4.1.2\libgcc.a(_df_to_sf.o)
 .data          0x00059608        0x0 c:/develop/altera/11.1/nios2eds/bin/gnu/h-i686-mingw32/bin/../lib/gcc/nios2-elf/4.1.2\libgcc.a(_unpack_sf.o)
 .data          0x00059608        0x0 c:/develop/altera/11.1/nios2eds/bin/gnu/h-i686-mingw32/bin/../lib/gcc/nios2-elf/4.1.2\libgcc.a(_fpcmp_parts_sf.o)
 .data          0x00059608        0x0 c:/develop/altera/11.1/nios2eds/bin/gnu/h-i686-mingw32/bin/../lib/gcc/nios2-elf/4.1.2\libgcc.a(_make_sf.o)
 .data          0x00059608        0x0 c:/develop/altera/11.1/nios2eds/bin/gnu/h-i686-mingw32/bin/../lib/gcc/nios2-elf/4.1.2\libgcc.a(_pack_sf.o)
 .data          0x00059608        0x0 ../Cineraria_DE0_HAL_bsp/\libhal_bsp.a(alt_close.o)
 .data          0x00059608      0x1a8 ../Cineraria_DE0_HAL_bsp/\libhal_bsp.a(alt_dev.o)
                0x00059608                alt_dev_null
                0x00059630                alt_fd_list
 .data          0x000597b0        0x0 ../Cineraria_DE0_HAL_bsp/\libhal_bsp.a(alt_env_lock.o)
 .data          0x000597b0        0x0 ../Cineraria_DE0_HAL_bsp/\libhal_bsp.a(alt_errno.o)
 .data          0x000597b0        0x0 ../Cineraria_DE0_HAL_bsp/\libhal_bsp.a(alt_exit.o)
 .data          0x000597b0        0x0 ../Cineraria_DE0_HAL_bsp/\libhal_bsp.a(alt_fs_reg.o)
 .data          0x000597b0        0x0 ../Cineraria_DE0_HAL_bsp/\libhal_bsp.a(alt_fstat.o)
 .data          0x000597b0        0x0 ../Cineraria_DE0_HAL_bsp/\libhal_bsp.a(alt_getpid.o)
 .data          0x000597b0        0x0 ../Cineraria_DE0_HAL_bsp/\libhal_bsp.a(alt_gettod.o)
 .data          0x000597b0        0x0 ../Cineraria_DE0_HAL_bsp/\libhal_bsp.a(alt_isatty.o)
 .data          0x000597b0        0x0 ../Cineraria_DE0_HAL_bsp/\libhal_bsp.a(alt_kill.o)
 .data          0x000597b0        0x0 ../Cineraria_DE0_HAL_bsp/\libhal_bsp.a(alt_lseek.o)
 .data          0x000597b0        0x0 ../Cineraria_DE0_HAL_bsp/\libhal_bsp.a(alt_main.o)
 .data          0x000597b0        0x0 ../Cineraria_DE0_HAL_bsp/\libhal_bsp.a(alt_malloc_lock.o)
 .data          0x000597b0        0x0 ../Cineraria_DE0_HAL_bsp/\libhal_bsp.a(alt_open.o)
 .data          0x000597b0        0x0 ../Cineraria_DE0_HAL_bsp/\libhal_bsp.a(alt_read.o)
 .data          0x000597b0        0x0 ../Cineraria_DE0_HAL_bsp/\libhal_bsp.a(alt_release_fd.o)
 .data          0x000597b0        0x0 ../Cineraria_DE0_HAL_bsp/\libhal_bsp.a(alt_sbrk.o)
 .data          0x000597b0        0x0 ../Cineraria_DE0_HAL_bsp/\libhal_bsp.a(alt_tick.o)
 .data          0x000597b0        0x0 ../Cineraria_DE0_HAL_bsp/\libhal_bsp.a(alt_times.o)
 .data          0x000597b0        0x0 ../Cineraria_DE0_HAL_bsp/\libhal_bsp.a(alt_write.o)
 .data          0x000597b0     0x12c0 ../Cineraria_DE0_HAL_bsp/\libhal_bsp.a(alt_sys_init.o)
 .data          0x0005aa70        0x0 ../Cineraria_DE0_HAL_bsp/\libhal_bsp.a(altera_avalon_cfi_flash.o)
 .data          0x0005aa70        0x0 ../Cineraria_DE0_HAL_bsp/\libhal_bsp.a(altera_avalon_cfi_flash_table.o)
 .data          0x0005aa70        0x0 ../Cineraria_DE0_HAL_bsp/\libhal_bsp.a(altera_avalon_epcs_flash_controller.o)
 .data          0x0005aa70        0x0 ../Cineraria_DE0_HAL_bsp/\libhal_bsp.a(altera_avalon_jtag_uart_fd.o)
 .data          0x0005aa70        0x0 ../Cineraria_DE0_HAL_bsp/\libhal_bsp.a(altera_avalon_jtag_uart_init.o)
 .data          0x0005aa70        0x0 ../Cineraria_DE0_HAL_bsp/\libhal_bsp.a(altera_avalon_jtag_uart_ioctl.o)
 .data          0x0005aa70        0x0 ../Cineraria_DE0_HAL_bsp/\libhal_bsp.a(altera_avalon_jtag_uart_read.o)
 .data          0x0005aa70        0x0 ../Cineraria_DE0_HAL_bsp/\libhal_bsp.a(altera_avalon_jtag_uart_write.o)
 .data          0x0005aa70        0x0 ../Cineraria_DE0_HAL_bsp/\libhal_bsp.a(altera_avalon_timer_sc.o)
 .data          0x0005aa70        0x0 ../Cineraria_DE0_HAL_bsp/\libhal_bsp.a(altera_avalon_uart_fd.o)
 .data          0x0005aa70        0x0 ../Cineraria_DE0_HAL_bsp/\libhal_bsp.a(altera_avalon_uart_init.o)
 .data          0x0005aa70        0x0 ../Cineraria_DE0_HAL_bsp/\libhal_bsp.a(altera_avalon_uart_read.o)
 .data          0x0005aa70        0x0 ../Cineraria_DE0_HAL_bsp/\libhal_bsp.a(altera_avalon_uart_write.o)
 .data          0x0005aa70        0x0 ../Cineraria_DE0_HAL_bsp/\libhal_bsp.a(epcs_commands.o)
 .data          0x0005aa70        0x0 ../Cineraria_DE0_HAL_bsp/\libhal_bsp.a(alt_alarm_start.o)
 .data          0x0005aa70        0x0 ../Cineraria_DE0_HAL_bsp/\libhal_bsp.a(alt_dcache_flush.o)
 .data          0x0005aa70        0x0 ../Cineraria_DE0_HAL_bsp/\libhal_bsp.a(alt_dev_llist_insert.o)
 .data          0x0005aa70        0x0 ../Cineraria_DE0_HAL_bsp/\libhal_bsp.a(alt_do_ctors.o)
 .data          0x0005aa70        0x0 ../Cineraria_DE0_HAL_bsp/\libhal_bsp.a(alt_do_dtors.o)
 .data          0x0005aa70        0x0 ../Cineraria_DE0_HAL_bsp/\libhal_bsp.a(alt_find_dev.o)
 .data          0x0005aa70        0x0 ../Cineraria_DE0_HAL_bsp/\libhal_bsp.a(alt_find_file.o)
 .data          0x0005aa70        0x0 ../Cineraria_DE0_HAL_bsp/\libhal_bsp.a(alt_flash_dev.o)
 .data          0x0005aa70        0x0 ../Cineraria_DE0_HAL_bsp/\libhal_bsp.a(alt_get_fd.o)
 .data          0x0005aa70        0x0 ../Cineraria_DE0_HAL_bsp/\libhal_bsp.a(alt_iic.o)
 .data          0x0005aa70        0x0 ../Cineraria_DE0_HAL_bsp/\libhal_bsp.a(alt_iic_isr_register.o)
 .data          0x0005aa70        0x0 ../Cineraria_DE0_HAL_bsp/\libhal_bsp.a(alt_io_redirect.o)
 .data          0x0005aa70        0x0 ../Cineraria_DE0_HAL_bsp/\libhal_bsp.a(alt_irq_entry.o)
 .data          0x0005aa70        0x0 ../Cineraria_DE0_HAL_bsp/\libhal_bsp.a(alt_irq_handler.o)
 .data          0x0005aa70        0x0 ../Cineraria_DE0_HAL_bsp/\libhal_bsp.a(alt_irq_vars.o)
 .data          0x0005aa70        0x0 ../Cineraria_DE0_HAL_bsp/\libhal_bsp.a(altera_nios2_irq.o)
 .data          0x0005aa70        0x0 ../Cineraria_DE0_HAL_bsp/\libhal_bsp.a(altera_avalon_cfi_flash_amd.o)
 .data          0x0005aa70        0x0 ../Cineraria_DE0_HAL_bsp/\libhal_bsp.a(altera_avalon_cfi_flash_intel.o)
 .data          0x0005aa70        0x0 ../Cineraria_DE0_HAL_bsp/\libhal_bsp.a(altera_avalon_spi.o)
 .data          0x0005aa70        0x0 ../Cineraria_DE0_HAL_bsp/\libhal_bsp.a(alt_exception_entry.o)
 .data          0x0005aa70        0x0 ../Cineraria_DE0_HAL_bsp/\libhal_bsp.a(alt_usleep.o)
 .data          0x0005aa70        0x0 ../Cineraria_DE0_HAL_bsp/\libhal_bsp.a(alt_busy_sleep.o)
 .data          0x0005aa70        0x0 c:/develop/altera/11.1/nios2eds/bin/gnu/h-i686-mingw32/bin/../lib/gcc/nios2-elf/4.1.2/../../../../nios2-elf/lib\libc.a(lib_a-atexit.o)
 .data          0x0005aa70        0x0 c:/develop/altera/11.1/nios2eds/bin/gnu/h-i686-mingw32/bin/../lib/gcc/nios2-elf/4.1.2/../../../../nios2-elf/lib\libc.a(lib_a-__atexit.o)
                0x00062a70                _gp = ABSOLUTE ((. + 0x8000))
                0x00062a70                PROVIDE (gp, _gp)
 *(.rwdata .rwdata.*)
 *(.sdata .sdata.* .gnu.linkonce.s.*)
 .sdata         0x0005aa70       0x18 obj/default/lua/lapi.o
 .sdata         0x0005aa88        0x8 obj/default/lua/lcode.o
 .sdata         0x0005aa90        0x8 obj/default/lua/linit.o
 .sdata         0x0005aa98       0x10 obj/default/lua/ltable.o
 .sdata         0x0005aaa8        0x1 obj/default/mmcfs/fatfs/mmcbb.o
 *fill*         0x0005aaa9        0x3 00
 .sdata         0x0005aaac        0x4 c:/develop/altera/11.1/nios2eds/bin/gnu/h-i686-mingw32/bin/../lib/gcc/nios2-elf/4.1.2/../../../../nios2-elf/lib\libm.a(lib_a-s_lib_ver.o)
                0x0005aaac                __fdlib_version
 .sdata         0x0005aab0        0x4 c:/develop/altera/11.1/nios2eds/bin/gnu/h-i686-mingw32/bin/../lib/gcc/nios2-elf/4.1.2/../../../../nios2-elf/lib\libc.a(lib_a-ctype_.o)
                0x0005aab0                __ctype_ptr
 .sdata         0x0005aab4        0x8 c:/develop/altera/11.1/nios2eds/bin/gnu/h-i686-mingw32/bin/../lib/gcc/nios2-elf/4.1.2/../../../../nios2-elf/lib\libc.a(lib_a-impure.o)
                0x0005aab4                _impure_ptr
                0x0005aab8                _global_impure_ptr
 .sdata         0x0005aabc        0x8 c:/develop/altera/11.1/nios2eds/bin/gnu/h-i686-mingw32/bin/../lib/gcc/nios2-elf/4.1.2/../../../../nios2-elf/lib\libc.a(lib_a-locale.o)
                0x0005aabc                __mb_cur_max
 .sdata         0x0005aac4        0x8 c:/develop/altera/11.1/nios2eds/bin/gnu/h-i686-mingw32/bin/../lib/gcc/nios2-elf/4.1.2/../../../../nios2-elf/lib\libc.a(lib_a-mallocr.o)
                0x0005aac4                __malloc_trim_threshold
                0x0005aac8                __malloc_sbrk_base
 .sdata         0x0005aacc        0x8 c:/develop/altera/11.1/nios2eds/bin/gnu/h-i686-mingw32/bin/../lib/gcc/nios2-elf/4.1.2/../../../../nios2-elf/lib\libc.a(lib_a-mktm_r.o)
 .sdata         0x0005aad4        0x8 c:/develop/altera/11.1/nios2eds/bin/gnu/h-i686-mingw32/bin/../lib/gcc/nios2-elf/4.1.2/../../../../nios2-elf/lib\libc.a(lib_a-tzvars.o)
                0x0005aad4                _tzname
 .sdata         0x0005aadc        0x4 c:/develop/altera/11.1/nios2eds/bin/gnu/h-i686-mingw32/bin/../lib/gcc/nios2-elf/4.1.2/../../../../nios2-elf/lib\libc.a(lib_a-environ.o)
                0x0005aadc                environ
 .sdata         0x0005aae0       0x14 ../Cineraria_DE0_HAL_bsp/\libhal_bsp.a(alt_dev.o)
                0x0005aae0                alt_fs_list
                0x0005aae8                alt_dev_list
                0x0005aaf0                alt_max_fd
 .sdata         0x0005aaf4        0x4 ../Cineraria_DE0_HAL_bsp/\libhal_bsp.a(alt_errno.o)
                0x0005aaf4                alt_errno
 .sdata         0x0005aaf8        0x4 ../Cineraria_DE0_HAL_bsp/\libhal_bsp.a(alt_sbrk.o)
 .sdata         0x0005aafc        0x8 ../Cineraria_DE0_HAL_bsp/\libhal_bsp.a(alt_tick.o)
                0x0005aafc                alt_alarm_list
 .sdata         0x0005ab04        0x8 ../Cineraria_DE0_HAL_bsp/\libhal_bsp.a(alt_flash_dev.o)
                0x0005ab04                alt_flash_dev_list
 .sdata         0x0005ab0c        0x4 ../Cineraria_DE0_HAL_bsp/\libhal_bsp.a(alt_irq_vars.o)
                0x0005ab0c                alt_priority_mask
 *(.sdata2 .sdata2.* .gnu.linkonce.s2.*)
                0x0005ab10                . = ALIGN (0x4)
                0x0005ab10                _edata = ABSOLUTE (.)
                0x0005ab10                PROVIDE (edata, ABSOLUTE (.))
                0x0005ab10                PROVIDE (__ram_rwdata_end, ABSOLUTE (.))
                0x00058d64                PROVIDE (__flash_rwdata_start, LOADADDR (.rwdata))

.bss            0x0005ab10     0x2ad4
                0x0005ab10                __bss_start = ABSOLUTE (.)
                0x0005ab10                PROVIDE (__sbss_start, ABSOLUTE (.))
                0x0005ab10                PROVIDE (___sbss_start, ABSOLUTE (.))
 *(.dynsbss)
 *(.sbss .sbss.* .gnu.linkonce.sb.*)
 .sbss          0x0005ab10        0x4 obj/default/lua/lgc.o
 .sbss          0x0005ab14        0x8 obj/default/mmcfs/fatfs/ff.o
 .sbss          0x0005ab1c        0x1 obj/default/mmcfs/fatfs/mmcbb.o
 *fill*         0x0005ab1d        0x3 00
 .sbss          0x0005ab20        0x8 obj/default/mmcfs/mmc_spi.o
 .sbss          0x0005ab28        0x4 obj/default/mmcfs/mmcfs.o
 .sbss          0x0005ab2c        0x4 c:/develop/altera/11.1/nios2eds/bin/gnu/h-i686-mingw32/bin/../lib/gcc/nios2-elf/4.1.2/../../../../nios2-elf/lib\libc.a(lib_a-int_errno.o)
                0x0005ab2c                errno
 .sbss          0x0005ab30        0xc c:/develop/altera/11.1/nios2eds/bin/gnu/h-i686-mingw32/bin/../lib/gcc/nios2-elf/4.1.2/../../../../nios2-elf/lib\libc.a(lib_a-locale.o)
                0x0005ab30                __nlocale_changed
                0x0005ab34                __mlocale_changed
                0x0005ab38                _PathLocale
 .sbss          0x0005ab3c        0xc c:/develop/altera/11.1/nios2eds/bin/gnu/h-i686-mingw32/bin/../lib/gcc/nios2-elf/4.1.2/../../../../nios2-elf/lib\libc.a(lib_a-mallocr.o)
                0x0005ab3c                __malloc_top_pad
                0x0005ab40                __malloc_max_sbrked_mem
                0x0005ab44                __malloc_max_total_mem
 .sbss          0x0005ab48        0x8 c:/develop/altera/11.1/nios2eds/bin/gnu/h-i686-mingw32/bin/../lib/gcc/nios2-elf/4.1.2/../../../../nios2-elf/lib\libc.a(lib_a-tzvars.o)
                0x0005ab48                _daylight
                0x0005ab4c                _timezone
 .sbss          0x0005ab50        0x4 c:/develop/altera/11.1/nios2eds/bin/gnu/h-i686-mingw32/bin/../lib/gcc/nios2-elf/4.1.2/../../../../nios2-elf/lib\libc.a(lib_a-environ.o)
 .sbss          0x0005ab54       0x10 ../Cineraria_DE0_HAL_bsp/\libhal_bsp.a(alt_gettod.o)
                0x0005ab54                alt_timezone
                0x0005ab5c                alt_resettime
 .sbss          0x0005ab64        0xc ../Cineraria_DE0_HAL_bsp/\libhal_bsp.a(alt_main.o)
                0x0005ab64                alt_argc
                0x0005ab68                alt_argv
                0x0005ab6c                alt_envp
 .sbss          0x0005ab70        0x8 ../Cineraria_DE0_HAL_bsp/\libhal_bsp.a(alt_tick.o)
                0x0005ab70                _alt_tick_rate
                0x0005ab74                _alt_nticks
 .sbss          0x0005ab78        0x4 ../Cineraria_DE0_HAL_bsp/\libhal_bsp.a(alt_irq_vars.o)
                0x0005ab78                alt_irq_active
 *(.sbss2 .sbss2.* .gnu.linkonce.sb2.*)
 *(.scommon)
                0x0005ab7c                PROVIDE (__sbss_end, ABSOLUTE (.))
                0x0005ab7c                PROVIDE (___sbss_end, ABSOLUTE (.))
 *(.dynbss)
 *(.bss .bss.* .gnu.linkonce.b.*)
 .bss           0x0005ab7c        0x0 ../Cineraria_DE0_HAL_bsp//obj/HAL/src/crt0.o
 .bss           0x0005ab7c        0x0 obj/default/lua/lapi.o
 .bss           0x0005ab7c        0x0 obj/default/lua/lauxlib.o
 .bss           0x0005ab7c        0x0 obj/default/lua/lbaselib.o
 .bss           0x0005ab7c        0x0 obj/default/lua/lbitlib.o
 .bss           0x0005ab7c        0x0 obj/default/lua/lcode.o
 .bss           0x0005ab7c        0x0 obj/default/lua/lcorolib.o
 .bss           0x0005ab7c        0x0 obj/default/lua/lctype.o
 .bss           0x0005ab7c        0x0 obj/default/lua/ldblib.o
 .bss           0x0005ab7c        0x0 obj/default/lua/ldebug.o
 .bss           0x0005ab7c        0x0 obj/default/lua/ldo.o
 .bss           0x0005ab7c        0x0 obj/default/lua/ldump.o
 .bss           0x0005ab7c        0x0 obj/default/lua/lfunc.o
 .bss           0x0005ab7c        0x0 obj/default/lua/lgc.o
 .bss           0x0005ab7c        0x0 obj/default/lua/linit.o
 .bss           0x0005ab7c        0x0 obj/default/lua/liolib.o
 .bss           0x0005ab7c        0x0 obj/default/lua/llex.o
 .bss           0x0005ab7c        0x0 obj/default/lua/lmathlib.o
 .bss           0x0005ab7c        0x0 obj/default/lua/lmem.o
 .bss           0x0005ab7c        0x0 obj/default/lua/loadlib.o
 .bss           0x0005ab7c        0x0 obj/default/lua/lobject.o
 .bss           0x0005ab7c        0x0 obj/default/lua/lopcodes.o
 .bss           0x0005ab7c        0x0 obj/default/lua/loslib.o
 .bss           0x0005ab7c        0x0 obj/default/lua/lparser.o
 .bss           0x0005ab7c        0x0 obj/default/lua/lstate.o
 .bss           0x0005ab7c        0x0 obj/default/lua/lstring.o
 .bss           0x0005ab7c        0x0 obj/default/lua/lstrlib.o
 .bss           0x0005ab7c        0x0 obj/default/lua/ltable.o
 .bss           0x0005ab7c        0x0 obj/default/lua/ltablib.o
 .bss           0x0005ab7c        0x0 obj/default/lua/ltm.o
 .bss           0x0005ab7c        0x0 obj/default/lua/lundump.o
 .bss           0x0005ab7c        0x0 obj/default/lua/lvm.o
 .bss           0x0005ab7c        0x0 obj/default/lua/lzio.o
 .bss           0x0005ab7c        0x0 obj/default/min.o
 .bss           0x0005ab7c      0x200 obj/default/mmcfs/fatfs/ff.o
 .bss           0x0005ad7c        0x0 obj/default/mmcfs/fatfs/mmcbb.o
 .bss           0x0005ad7c        0x0 obj/default/mmcfs/fatfs/option/cc932.o
 .bss           0x0005ad7c        0x0 obj/default/mmcfs/gettime.o
 .bss           0x0005ad7c        0x0 obj/default/mmcfs/mmc_spi.o
 .bss           0x0005ad7c     0x24b0 obj/default/mmcfs/mmcfs.o
 .bss           0x0005d22c        0x0 c:/develop/altera/11.1/nios2eds/bin/gnu/h-i686-mingw32/bin/../lib/gcc/nios2-elf/4.1.2/../../../../nios2-elf/lib\libm.a(lib_a-s_atan.o)
 .bss           0x0005d22c        0x0 c:/develop/altera/11.1/nios2eds/bin/gnu/h-i686-mingw32/bin/../lib/gcc/nios2-elf/4.1.2/../../../../nios2-elf/lib\libm.a(lib_a-s_ceil.o)
 .bss           0x0005d22c        0x0 c:/develop/altera/11.1/nios2eds/bin/gnu/h-i686-mingw32/bin/../lib/gcc/nios2-elf/4.1.2/../../../../nios2-elf/lib\libm.a(lib_a-s_cos.o)
 .bss           0x0005d22c        0x0 c:/develop/altera/11.1/nios2eds/bin/gnu/h-i686-mingw32/bin/../lib/gcc/nios2-elf/4.1.2/../../../../nios2-elf/lib\libm.a(lib_a-s_fabs.o)
 .bss           0x0005d22c        0x0 c:/develop/altera/11.1/nios2eds/bin/gnu/h-i686-mingw32/bin/../lib/gcc/nios2-elf/4.1.2/../../../../nios2-elf/lib\libm.a(lib_a-s_floor.o)
 .bss           0x0005d22c        0x0 c:/develop/altera/11.1/nios2eds/bin/gnu/h-i686-mingw32/bin/../lib/gcc/nios2-elf/4.1.2/../../../../nios2-elf/lib\libm.a(lib_a-s_frexp.o)
 .bss           0x0005d22c        0x0 c:/develop/altera/11.1/nios2eds/bin/gnu/h-i686-mingw32/bin/../lib/gcc/nios2-elf/4.1.2/../../../../nios2-elf/lib\libm.a(lib_a-s_ldexp.o)
 .bss           0x0005d22c        0x0 c:/develop/altera/11.1/nios2eds/bin/gnu/h-i686-mingw32/bin/../lib/gcc/nios2-elf/4.1.2/../../../../nios2-elf/lib\libm.a(lib_a-s_modf.o)
 .bss           0x0005d22c        0x0 c:/develop/altera/11.1/nios2eds/bin/gnu/h-i686-mingw32/bin/../lib/gcc/nios2-elf/4.1.2/../../../../nios2-elf/lib\libm.a(lib_a-s_scalbn.o)
 .bss           0x0005d22c        0x0 c:/develop/altera/11.1/nios2eds/bin/gnu/h-i686-mingw32/bin/../lib/gcc/nios2-elf/4.1.2/../../../../nios2-elf/lib\libm.a(lib_a-s_sin.o)
 .bss           0x0005d22c        0x0 c:/develop/altera/11.1/nios2eds/bin/gnu/h-i686-mingw32/bin/../lib/gcc/nios2-elf/4.1.2/../../../../nios2-elf/lib\libm.a(lib_a-s_tan.o)
 .bss           0x0005d22c        0x0 c:/develop/altera/11.1/nios2eds/bin/gnu/h-i686-mingw32/bin/../lib/gcc/nios2-elf/4.1.2/../../../../nios2-elf/lib\libm.a(lib_a-s_tanh.o)
 .bss           0x0005d22c        0x0 c:/develop/altera/11.1/nios2eds/bin/gnu/h-i686-mingw32/bin/../lib/gcc/nios2-elf/4.1.2/../../../../nios2-elf/lib\libm.a(lib_a-w_acos.o)
 .bss           0x0005d22c        0x0 c:/develop/altera/11.1/nios2eds/bin/gnu/h-i686-mingw32/bin/../lib/gcc/nios2-elf/4.1.2/../../../../nios2-elf/lib\libm.a(lib_a-w_asin.o)
 .bss           0x0005d22c        0x0 c:/develop/altera/11.1/nios2eds/bin/gnu/h-i686-mingw32/bin/../lib/gcc/nios2-elf/4.1.2/../../../../nios2-elf/lib\libm.a(lib_a-w_atan2.o)
 .bss           0x0005d22c        0x0 c:/develop/altera/11.1/nios2eds/bin/gnu/h-i686-mingw32/bin/../lib/gcc/nios2-elf/4.1.2/../../../../nios2-elf/lib\libm.a(lib_a-w_cosh.o)
 .bss           0x0005d22c        0x0 c:/develop/altera/11.1/nios2eds/bin/gnu/h-i686-mingw32/bin/../lib/gcc/nios2-elf/4.1.2/../../../../nios2-elf/lib\libm.a(lib_a-w_exp.o)
 .bss           0x0005d22c        0x0 c:/develop/altera/11.1/nios2eds/bin/gnu/h-i686-mingw32/bin/../lib/gcc/nios2-elf/4.1.2/../../../../nios2-elf/lib\libm.a(lib_a-w_fmod.o)
 .bss           0x0005d22c        0x0 c:/develop/altera/11.1/nios2eds/bin/gnu/h-i686-mingw32/bin/../lib/gcc/nios2-elf/4.1.2/../../../../nios2-elf/lib\libm.a(lib_a-w_log.o)
 .bss           0x0005d22c        0x0 c:/develop/altera/11.1/nios2eds/bin/gnu/h-i686-mingw32/bin/../lib/gcc/nios2-elf/4.1.2/../../../../nios2-elf/lib\libm.a(lib_a-w_log10.o)
 .bss           0x0005d22c        0x0 c:/develop/altera/11.1/nios2eds/bin/gnu/h-i686-mingw32/bin/../lib/gcc/nios2-elf/4.1.2/../../../../nios2-elf/lib\libm.a(lib_a-w_pow.o)
 .bss           0x0005d22c        0x0 c:/develop/altera/11.1/nios2eds/bin/gnu/h-i686-mingw32/bin/../lib/gcc/nios2-elf/4.1.2/../../../../nios2-elf/lib\libm.a(lib_a-w_sinh.o)
 .bss           0x0005d22c        0x0 c:/develop/altera/11.1/nios2eds/bin/gnu/h-i686-mingw32/bin/../lib/gcc/nios2-elf/4.1.2/../../../../nios2-elf/lib\libm.a(lib_a-w_sqrt.o)
 .bss           0x0005d22c        0x0 c:/develop/altera/11.1/nios2eds/bin/gnu/h-i686-mingw32/bin/../lib/gcc/nios2-elf/4.1.2/../../../../nios2-elf/lib\libm.a(lib_a-e_acos.o)
 .bss           0x0005d22c        0x0 c:/develop/altera/11.1/nios2eds/bin/gnu/h-i686-mingw32/bin/../lib/gcc/nios2-elf/4.1.2/../../../../nios2-elf/lib\libm.a(lib_a-e_asin.o)
 .bss           0x0005d22c        0x0 c:/develop/altera/11.1/nios2eds/bin/gnu/h-i686-mingw32/bin/../lib/gcc/nios2-elf/4.1.2/../../../../nios2-elf/lib\libm.a(lib_a-e_atan2.o)
 .bss           0x0005d22c        0x0 c:/develop/altera/11.1/nios2eds/bin/gnu/h-i686-mingw32/bin/../lib/gcc/nios2-elf/4.1.2/../../../../nios2-elf/lib\libm.a(lib_a-e_cosh.o)
 .bss           0x0005d22c        0x0 c:/develop/altera/11.1/nios2eds/bin/gnu/h-i686-mingw32/bin/../lib/gcc/nios2-elf/4.1.2/../../../../nios2-elf/lib\libm.a(lib_a-e_exp.o)
 .bss           0x0005d22c        0x0 c:/develop/altera/11.1/nios2eds/bin/gnu/h-i686-mingw32/bin/../lib/gcc/nios2-elf/4.1.2/../../../../nios2-elf/lib\libm.a(lib_a-e_fmod.o)
 .bss           0x0005d22c        0x0 c:/develop/altera/11.1/nios2eds/bin/gnu/h-i686-mingw32/bin/../lib/gcc/nios2-elf/4.1.2/../../../../nios2-elf/lib\libm.a(lib_a-e_log.o)
 .bss           0x0005d22c        0x0 c:/develop/altera/11.1/nios2eds/bin/gnu/h-i686-mingw32/bin/../lib/gcc/nios2-elf/4.1.2/../../../../nios2-elf/lib\libm.a(lib_a-e_log10.o)
 .bss           0x0005d22c        0x0 c:/develop/altera/11.1/nios2eds/bin/gnu/h-i686-mingw32/bin/../lib/gcc/nios2-elf/4.1.2/../../../../nios2-elf/lib\libm.a(lib_a-e_pow.o)
 .bss           0x0005d22c        0x0 c:/develop/altera/11.1/nios2eds/bin/gnu/h-i686-mingw32/bin/../lib/gcc/nios2-elf/4.1.2/../../../../nios2-elf/lib\libm.a(lib_a-e_rem_pio2.o)
 .bss           0x0005d22c        0x0 c:/develop/altera/11.1/nios2eds/bin/gnu/h-i686-mingw32/bin/../lib/gcc/nios2-elf/4.1.2/../../../../nios2-elf/lib\libm.a(lib_a-e_sinh.o)
 .bss           0x0005d22c        0x0 c:/develop/altera/11.1/nios2eds/bin/gnu/h-i686-mingw32/bin/../lib/gcc/nios2-elf/4.1.2/../../../../nios2-elf/lib\libm.a(lib_a-e_sqrt.o)
 .bss           0x0005d22c        0x0 c:/develop/altera/11.1/nios2eds/bin/gnu/h-i686-mingw32/bin/../lib/gcc/nios2-elf/4.1.2/../../../../nios2-elf/lib\libm.a(lib_a-k_cos.o)
 .bss           0x0005d22c        0x0 c:/develop/altera/11.1/nios2eds/bin/gnu/h-i686-mingw32/bin/../lib/gcc/nios2-elf/4.1.2/../../../../nios2-elf/lib\libm.a(lib_a-k_rem_pio2.o)
 .bss           0x0005d22c        0x0 c:/develop/altera/11.1/nios2eds/bin/gnu/h-i686-mingw32/bin/../lib/gcc/nios2-elf/4.1.2/../../../../nios2-elf/lib\libm.a(lib_a-k_sin.o)
 .bss           0x0005d22c        0x0 c:/develop/altera/11.1/nios2eds/bin/gnu/h-i686-mingw32/bin/../lib/gcc/nios2-elf/4.1.2/../../../../nios2-elf/lib\libm.a(lib_a-k_tan.o)
 .bss           0x0005d22c        0x0 c:/develop/altera/11.1/nios2eds/bin/gnu/h-i686-mingw32/bin/../lib/gcc/nios2-elf/4.1.2/../../../../nios2-elf/lib\libm.a(lib_a-s_copysign.o)
 .bss           0x0005d22c        0x0 c:/develop/altera/11.1/nios2eds/bin/gnu/h-i686-mingw32/bin/../lib/gcc/nios2-elf/4.1.2/../../../../nios2-elf/lib\libm.a(lib_a-s_expm1.o)
 .bss           0x0005d22c        0x0 c:/develop/altera/11.1/nios2eds/bin/gnu/h-i686-mingw32/bin/../lib/gcc/nios2-elf/4.1.2/../../../../nios2-elf/lib\libm.a(lib_a-s_finite.o)
 .bss           0x0005d22c        0x0 c:/develop/altera/11.1/nios2eds/bin/gnu/h-i686-mingw32/bin/../lib/gcc/nios2-elf/4.1.2/../../../../nios2-elf/lib\libm.a(lib_a-s_isnand.o)
 .bss           0x0005d22c        0x0 c:/develop/altera/11.1/nios2eds/bin/gnu/h-i686-mingw32/bin/../lib/gcc/nios2-elf/4.1.2/../../../../nios2-elf/lib\libm.a(lib_a-s_lib_ver.o)
 .bss           0x0005d22c        0x0 c:/develop/altera/11.1/nios2eds/bin/gnu/h-i686-mingw32/bin/../lib/gcc/nios2-elf/4.1.2/../../../../nios2-elf/lib\libm.a(lib_a-s_matherr.o)
 .bss           0x0005d22c        0x0 c:/develop/altera/11.1/nios2eds/bin/gnu/h-i686-mingw32/bin/../lib/gcc/nios2-elf/4.1.2/../../../../nios2-elf/lib\libm.a(lib_a-s_nan.o)
 .bss           0x0005d22c        0x0 c:/develop/altera/11.1/nios2eds/bin/gnu/h-i686-mingw32/bin/../lib/gcc/nios2-elf/4.1.2/../../../../nios2-elf/lib\libm.a(lib_a-s_rint.o)
 .bss           0x0005d22c        0x0 c:/develop/altera/11.1/nios2eds/bin/gnu/h-i686-mingw32/bin/../lib/gcc/nios2-elf/4.1.2\libgcc.a(_fixunsdfsi.o)
 .bss           0x0005d22c        0x0 c:/develop/altera/11.1/nios2eds/bin/gnu/h-i686-mingw32/bin/../lib/gcc/nios2-elf/4.1.2\libgcc.a(_addsub_df.o)
 .bss           0x0005d22c        0x0 c:/develop/altera/11.1/nios2eds/bin/gnu/h-i686-mingw32/bin/../lib/gcc/nios2-elf/4.1.2\libgcc.a(_mul_df.o)
 .bss           0x0005d22c        0x0 c:/develop/altera/11.1/nios2eds/bin/gnu/h-i686-mingw32/bin/../lib/gcc/nios2-elf/4.1.2\libgcc.a(_div_df.o)
 .bss           0x0005d22c        0x0 c:/develop/altera/11.1/nios2eds/bin/gnu/h-i686-mingw32/bin/../lib/gcc/nios2-elf/4.1.2\libgcc.a(_eq_df.o)
 .bss           0x0005d22c        0x0 c:/develop/altera/11.1/nios2eds/bin/gnu/h-i686-mingw32/bin/../lib/gcc/nios2-elf/4.1.2\libgcc.a(_ne_df.o)
 .bss           0x0005d22c        0x0 c:/develop/altera/11.1/nios2eds/bin/gnu/h-i686-mingw32/bin/../lib/gcc/nios2-elf/4.1.2\libgcc.a(_gt_df.o)
 .bss           0x0005d22c        0x0 c:/develop/altera/11.1/nios2eds/bin/gnu/h-i686-mingw32/bin/../lib/gcc/nios2-elf/4.1.2\libgcc.a(_ge_df.o)
 .bss           0x0005d22c        0x0 c:/develop/altera/11.1/nios2eds/bin/gnu/h-i686-mingw32/bin/../lib/gcc/nios2-elf/4.1.2\libgcc.a(_lt_df.o)
 .bss           0x0005d22c        0x0 c:/develop/altera/11.1/nios2eds/bin/gnu/h-i686-mingw32/bin/../lib/gcc/nios2-elf/4.1.2\libgcc.a(_le_df.o)
 .bss           0x0005d22c        0x0 c:/develop/altera/11.1/nios2eds/bin/gnu/h-i686-mingw32/bin/../lib/gcc/nios2-elf/4.1.2\libgcc.a(_si_to_df.o)
 .bss           0x0005d22c        0x0 c:/develop/altera/11.1/nios2eds/bin/gnu/h-i686-mingw32/bin/../lib/gcc/nios2-elf/4.1.2\libgcc.a(_df_to_si.o)
 .bss           0x0005d22c        0x0 c:/develop/altera/11.1/nios2eds/bin/gnu/h-i686-mingw32/bin/../lib/gcc/nios2-elf/4.1.2\libgcc.a(_thenan_df.o)
 .bss           0x0005d22c        0x0 c:/develop/altera/11.1/nios2eds/bin/gnu/h-i686-mingw32/bin/../lib/gcc/nios2-elf/4.1.2\libgcc.a(_usi_to_df.o)
 .bss           0x0005d22c        0x0 c:/develop/altera/11.1/nios2eds/bin/gnu/h-i686-mingw32/bin/../lib/gcc/nios2-elf/4.1.2\libgcc.a(lib2-divmod.o)
 .bss           0x0005d22c        0x0 c:/develop/altera/11.1/nios2eds/bin/gnu/h-i686-mingw32/bin/../lib/gcc/nios2-elf/4.1.2\libgcc.a(_muldi3.o)
 .bss           0x0005d22c        0x0 c:/develop/altera/11.1/nios2eds/bin/gnu/h-i686-mingw32/bin/../lib/gcc/nios2-elf/4.1.2\libgcc.a(_clzsi2.o)
 .bss           0x0005d22c        0x0 c:/develop/altera/11.1/nios2eds/bin/gnu/h-i686-mingw32/bin/../lib/gcc/nios2-elf/4.1.2\libgcc.a(_pack_df.o)
 .bss           0x0005d22c        0x0 c:/develop/altera/11.1/nios2eds/bin/gnu/h-i686-mingw32/bin/../lib/gcc/nios2-elf/4.1.2\libgcc.a(_unpack_df.o)
 .bss           0x0005d22c        0x0 c:/develop/altera/11.1/nios2eds/bin/gnu/h-i686-mingw32/bin/../lib/gcc/nios2-elf/4.1.2\libgcc.a(_fpcmp_parts_df.o)
 .bss           0x0005d22c        0x0 c:/develop/altera/11.1/nios2eds/bin/gnu/h-i686-mingw32/bin/../lib/gcc/nios2-elf/4.1.2\libgcc.a(_clz.o)
 .bss           0x0005d22c        0x0 c:/develop/altera/11.1/nios2eds/bin/gnu/h-i686-mingw32/bin/../lib/gcc/nios2-elf/4.1.2/../../../../nios2-elf/lib\libc.a(lib_a-abort.o)
 .bss           0x0005d22c        0x0 c:/develop/altera/11.1/nios2eds/bin/gnu/h-i686-mingw32/bin/../lib/gcc/nios2-elf/4.1.2/../../../../nios2-elf/lib\libc.a(lib_a-clock.o)
 .bss           0x0005d22c        0x0 c:/develop/altera/11.1/nios2eds/bin/gnu/h-i686-mingw32/bin/../lib/gcc/nios2-elf/4.1.2/../../../../nios2-elf/lib\libc.a(lib_a-ctype_.o)
 .bss           0x0005d22c        0x0 c:/develop/altera/11.1/nios2eds/bin/gnu/h-i686-mingw32/bin/../lib/gcc/nios2-elf/4.1.2/../../../../nios2-elf/lib\libc.a(lib_a-difftime.o)
 .bss           0x0005d22c        0x0 c:/develop/altera/11.1/nios2eds/bin/gnu/h-i686-mingw32/bin/../lib/gcc/nios2-elf/4.1.2/../../../../nios2-elf/lib\libc.a(lib_a-errno.o)
 .bss           0x0005d22c        0x0 c:/develop/altera/11.1/nios2eds/bin/gnu/h-i686-mingw32/bin/../lib/gcc/nios2-elf/4.1.2/../../../../nios2-elf/lib\libc.a(lib_a-exit.o)
 .bss           0x0005d22c        0x0 c:/develop/altera/11.1/nios2eds/bin/gnu/h-i686-mingw32/bin/../lib/gcc/nios2-elf/4.1.2/../../../../nios2-elf/lib\libc.a(lib_a-fclose.o)
 .bss           0x0005d22c        0x0 c:/develop/altera/11.1/nios2eds/bin/gnu/h-i686-mingw32/bin/../lib/gcc/nios2-elf/4.1.2/../../../../nios2-elf/lib\libc.a(lib_a-fflush.o)
 .bss           0x0005d22c        0x0 c:/develop/altera/11.1/nios2eds/bin/gnu/h-i686-mingw32/bin/../lib/gcc/nios2-elf/4.1.2/../../../../nios2-elf/lib\libc.a(lib_a-fgets.o)
 .bss           0x0005d22c        0x0 c:/develop/altera/11.1/nios2eds/bin/gnu/h-i686-mingw32/bin/../lib/gcc/nios2-elf/4.1.2/../../../../nios2-elf/lib\libc.a(lib_a-findfp.o)
 .bss           0x0005d22c        0x0 c:/develop/altera/11.1/nios2eds/bin/gnu/h-i686-mingw32/bin/../lib/gcc/nios2-elf/4.1.2/../../../../nios2-elf/lib\libc.a(lib_a-fopen.o)
 .bss           0x0005d22c        0x0 c:/develop/altera/11.1/nios2eds/bin/gnu/h-i686-mingw32/bin/../lib/gcc/nios2-elf/4.1.2/../../../../nios2-elf/lib\libc.a(lib_a-fprintf.o)
 .bss           0x0005d22c        0x0 c:/develop/altera/11.1/nios2eds/bin/gnu/h-i686-mingw32/bin/../lib/gcc/nios2-elf/4.1.2/../../../../nios2-elf/lib\libc.a(lib_a-fread.o)
 .bss           0x0005d22c        0x0 c:/develop/altera/11.1/nios2eds/bin/gnu/h-i686-mingw32/bin/../lib/gcc/nios2-elf/4.1.2/../../../../nios2-elf/lib\libc.a(lib_a-freer.o)
 .bss           0x0005d22c        0x0 c:/develop/altera/11.1/nios2eds/bin/gnu/h-i686-mingw32/bin/../lib/gcc/nios2-elf/4.1.2/../../../../nios2-elf/lib\libc.a(lib_a-freopen.o)
 .bss           0x0005d22c        0x0 c:/develop/altera/11.1/nios2eds/bin/gnu/h-i686-mingw32/bin/../lib/gcc/nios2-elf/4.1.2/../../../../nios2-elf/lib\libc.a(lib_a-fscanf.o)
 .bss           0x0005d22c        0x0 c:/develop/altera/11.1/nios2eds/bin/gnu/h-i686-mingw32/bin/../lib/gcc/nios2-elf/4.1.2/../../../../nios2-elf/lib\libc.a(lib_a-fseek.o)
 .bss           0x0005d22c        0x0 c:/develop/altera/11.1/nios2eds/bin/gnu/h-i686-mingw32/bin/../lib/gcc/nios2-elf/4.1.2/../../../../nios2-elf/lib\libc.a(lib_a-fstatr.o)
 .bss           0x0005d22c        0x0 c:/develop/altera/11.1/nios2eds/bin/gnu/h-i686-mingw32/bin/../lib/gcc/nios2-elf/4.1.2/../../../../nios2-elf/lib\libc.a(lib_a-ftell.o)
 .bss           0x0005d22c        0x0 c:/develop/altera/11.1/nios2eds/bin/gnu/h-i686-mingw32/bin/../lib/gcc/nios2-elf/4.1.2/../../../../nios2-elf/lib\libc.a(lib_a-fwalk.o)
 .bss           0x0005d22c        0x0 c:/develop/altera/11.1/nios2eds/bin/gnu/h-i686-mingw32/bin/../lib/gcc/nios2-elf/4.1.2/../../../../nios2-elf/lib\libc.a(lib_a-fwrite.o)
 .bss           0x0005d22c        0x0 c:/develop/altera/11.1/nios2eds/bin/gnu/h-i686-mingw32/bin/../lib/gcc/nios2-elf/4.1.2/../../../../nios2-elf/lib\libc.a(lib_a-getc.o)
 .bss           0x0005d22c        0x0 c:/develop/altera/11.1/nios2eds/bin/gnu/h-i686-mingw32/bin/../lib/gcc/nios2-elf/4.1.2/../../../../nios2-elf/lib\libc.a(lib_a-getenv.o)
 .bss           0x0005d22c        0x0 c:/develop/altera/11.1/nios2eds/bin/gnu/h-i686-mingw32/bin/../lib/gcc/nios2-elf/4.1.2/../../../../nios2-elf/lib\libc.a(lib_a-getenv_r.o)
 .bss           0x0005d22c        0x0 c:/develop/altera/11.1/nios2eds/bin/gnu/h-i686-mingw32/bin/../lib/gcc/nios2-elf/4.1.2/../../../../nios2-elf/lib\libc.a(lib_a-gmtime.o)
 .bss           0x0005d22c        0x0 c:/develop/altera/11.1/nios2eds/bin/gnu/h-i686-mingw32/bin/../lib/gcc/nios2-elf/4.1.2/../../../../nios2-elf/lib\libc.a(lib_a-gmtime_r.o)
 .bss           0x0005d22c        0x0 c:/develop/altera/11.1/nios2eds/bin/gnu/h-i686-mingw32/bin/../lib/gcc/nios2-elf/4.1.2/../../../../nios2-elf/lib\libc.a(lib_a-impure.o)
 .bss           0x0005d22c        0x0 c:/develop/altera/11.1/nios2eds/bin/gnu/h-i686-mingw32/bin/../lib/gcc/nios2-elf/4.1.2/../../../../nios2-elf/lib\libc.a(lib_a-int_errno.o)
 .bss           0x0005d22c        0x0 c:/develop/altera/11.1/nios2eds/bin/gnu/h-i686-mingw32/bin/../lib/gcc/nios2-elf/4.1.2/../../../../nios2-elf/lib\libc.a(lib_a-lcltime.o)
 .bss           0x0005d22c        0x0 c:/develop/altera/11.1/nios2eds/bin/gnu/h-i686-mingw32/bin/../lib/gcc/nios2-elf/4.1.2/../../../../nios2-elf/lib\libc.a(lib_a-lcltime_r.o)
 .bss           0x0005d22c        0x0 c:/develop/altera/11.1/nios2eds/bin/gnu/h-i686-mingw32/bin/../lib/gcc/nios2-elf/4.1.2/../../../../nios2-elf/lib\libc.a(lib_a-locale.o)
 .bss           0x0005d22c        0x0 c:/develop/altera/11.1/nios2eds/bin/gnu/h-i686-mingw32/bin/../lib/gcc/nios2-elf/4.1.2/../../../../nios2-elf/lib\libc.a(lib_a-makebuf.o)
 .bss           0x0005d22c        0x0 c:/develop/altera/11.1/nios2eds/bin/gnu/h-i686-mingw32/bin/../lib/gcc/nios2-elf/4.1.2/../../../../nios2-elf/lib\libc.a(lib_a-malloc.o)
 .bss           0x0005d22c       0x28 c:/develop/altera/11.1/nios2eds/bin/gnu/h-i686-mingw32/bin/../lib/gcc/nios2-elf/4.1.2/../../../../nios2-elf/lib\libc.a(lib_a-mallocr.o)
                0x0005d22c                __malloc_current_mallinfo
 .bss           0x0005d254        0x0 c:/develop/altera/11.1/nios2eds/bin/gnu/h-i686-mingw32/bin/../lib/gcc/nios2-elf/4.1.2/../../../../nios2-elf/lib\libc.a(lib_a-memchr.o)
 .bss           0x0005d254        0x0 c:/develop/altera/11.1/nios2eds/bin/gnu/h-i686-mingw32/bin/../lib/gcc/nios2-elf/4.1.2/../../../../nios2-elf/lib\libc.a(lib_a-memcmp.o)
 .bss           0x0005d254        0x0 c:/develop/altera/11.1/nios2eds/bin/gnu/h-i686-mingw32/bin/../lib/gcc/nios2-elf/4.1.2/../../../../nios2-elf/lib\libc.a(lib_a-memcpy.o)
 .bss           0x0005d254        0x0 c:/develop/altera/11.1/nios2eds/bin/gnu/h-i686-mingw32/bin/../lib/gcc/nios2-elf/4.1.2/../../../../nios2-elf/lib\libc.a(lib_a-memset.o)
 .bss           0x0005d254        0x0 c:/develop/altera/11.1/nios2eds/bin/gnu/h-i686-mingw32/bin/../lib/gcc/nios2-elf/4.1.2/../../../../nios2-elf/lib\libc.a(lib_a-mktime.o)
 .bss           0x0005d254        0x0 c:/develop/altera/11.1/nios2eds/bin/gnu/h-i686-mingw32/bin/../lib/gcc/nios2-elf/4.1.2/../../../../nios2-elf/lib\libc.a(lib_a-mktm_r.o)
 .bss           0x0005d254        0x0 c:/develop/altera/11.1/nios2eds/bin/gnu/h-i686-mingw32/bin/../lib/gcc/nios2-elf/4.1.2/../../../../nios2-elf/lib\libc.a(lib_a-openr.o)
 .bss           0x0005d254        0x0 c:/develop/altera/11.1/nios2eds/bin/gnu/h-i686-mingw32/bin/../lib/gcc/nios2-elf/4.1.2/../../../../nios2-elf/lib\libc.a(lib_a-printf.o)
 .bss           0x0005d254        0x0 c:/develop/altera/11.1/nios2eds/bin/gnu/h-i686-mingw32/bin/../lib/gcc/nios2-elf/4.1.2/../../../../nios2-elf/lib\libc.a(lib_a-putchar.o)
 .bss           0x0005d254        0x0 c:/develop/altera/11.1/nios2eds/bin/gnu/h-i686-mingw32/bin/../lib/gcc/nios2-elf/4.1.2/../../../../nios2-elf/lib\libc.a(lib_a-puts.o)
 .bss           0x0005d254        0x0 c:/develop/altera/11.1/nios2eds/bin/gnu/h-i686-mingw32/bin/../lib/gcc/nios2-elf/4.1.2/../../../../nios2-elf/lib\libc.a(lib_a-rand.o)
 .bss           0x0005d254        0x0 c:/develop/altera/11.1/nios2eds/bin/gnu/h-i686-mingw32/bin/../lib/gcc/nios2-elf/4.1.2/../../../../nios2-elf/lib\libc.a(lib_a-realloc.o)
 .bss           0x0005d254        0x0 c:/develop/altera/11.1/nios2eds/bin/gnu/h-i686-mingw32/bin/../lib/gcc/nios2-elf/4.1.2/../../../../nios2-elf/lib\libc.a(lib_a-reallocr.o)
 .bss           0x0005d254        0x0 c:/develop/altera/11.1/nios2eds/bin/gnu/h-i686-mingw32/bin/../lib/gcc/nios2-elf/4.1.2/../../../../nios2-elf/lib\libc.a(lib_a-refill.o)
 .bss           0x0005d254        0x0 c:/develop/altera/11.1/nios2eds/bin/gnu/h-i686-mingw32/bin/../lib/gcc/nios2-elf/4.1.2/../../../../nios2-elf/lib\libc.a(lib_a-rget.o)
 .bss           0x0005d254        0x0 c:/develop/altera/11.1/nios2eds/bin/gnu/h-i686-mingw32/bin/../lib/gcc/nios2-elf/4.1.2/../../../../nios2-elf/lib\libc.a(lib_a-sbrkr.o)
 .bss           0x0005d254        0x0 c:/develop/altera/11.1/nios2eds/bin/gnu/h-i686-mingw32/bin/../lib/gcc/nios2-elf/4.1.2/../../../../nios2-elf/lib\libc.a(lib_a-setjmp.o)
 .bss           0x0005d254        0x0 c:/develop/altera/11.1/nios2eds/bin/gnu/h-i686-mingw32/bin/../lib/gcc/nios2-elf/4.1.2/../../../../nios2-elf/lib\libc.a(lib_a-setvbuf.o)
 .bss           0x0005d254        0x0 c:/develop/altera/11.1/nios2eds/bin/gnu/h-i686-mingw32/bin/../lib/gcc/nios2-elf/4.1.2/../../../../nios2-elf/lib\libc.a(lib_a-signal.o)
 .bss           0x0005d254        0x0 c:/develop/altera/11.1/nios2eds/bin/gnu/h-i686-mingw32/bin/../lib/gcc/nios2-elf/4.1.2/../../../../nios2-elf/lib\libc.a(lib_a-signalr.o)
 .bss           0x0005d254        0x0 c:/develop/altera/11.1/nios2eds/bin/gnu/h-i686-mingw32/bin/../lib/gcc/nios2-elf/4.1.2/../../../../nios2-elf/lib\libc.a(lib_a-sprintf.o)
 .bss           0x0005d254        0x0 c:/develop/altera/11.1/nios2eds/bin/gnu/h-i686-mingw32/bin/../lib/gcc/nios2-elf/4.1.2/../../../../nios2-elf/lib\libc.a(lib_a-stdio.o)
 .bss           0x0005d254        0x0 c:/develop/altera/11.1/nios2eds/bin/gnu/h-i686-mingw32/bin/../lib/gcc/nios2-elf/4.1.2/../../../../nios2-elf/lib\libc.a(lib_a-strchr.o)
 .bss           0x0005d254        0x0 c:/develop/altera/11.1/nios2eds/bin/gnu/h-i686-mingw32/bin/../lib/gcc/nios2-elf/4.1.2/../../../../nios2-elf/lib\libc.a(lib_a-strcmp.o)
 .bss           0x0005d254        0x0 c:/develop/altera/11.1/nios2eds/bin/gnu/h-i686-mingw32/bin/../lib/gcc/nios2-elf/4.1.2/../../../../nios2-elf/lib\libc.a(lib_a-strcoll.o)
 .bss           0x0005d254        0x0 c:/develop/altera/11.1/nios2eds/bin/gnu/h-i686-mingw32/bin/../lib/gcc/nios2-elf/4.1.2/../../../../nios2-elf/lib\libc.a(lib_a-strcpy.o)
 .bss           0x0005d254        0x0 c:/develop/altera/11.1/nios2eds/bin/gnu/h-i686-mingw32/bin/../lib/gcc/nios2-elf/4.1.2/../../../../nios2-elf/lib\libc.a(lib_a-strerror.o)
 .bss           0x0005d254        0x0 c:/develop/altera/11.1/nios2eds/bin/gnu/h-i686-mingw32/bin/../lib/gcc/nios2-elf/4.1.2/../../../../nios2-elf/lib\libc.a(lib_a-strftime.o)
 .bss           0x0005d254        0x0 c:/develop/altera/11.1/nios2eds/bin/gnu/h-i686-mingw32/bin/../lib/gcc/nios2-elf/4.1.2/../../../../nios2-elf/lib\libc.a(lib_a-strlen.o)
 .bss           0x0005d254        0x0 c:/develop/altera/11.1/nios2eds/bin/gnu/h-i686-mingw32/bin/../lib/gcc/nios2-elf/4.1.2/../../../../nios2-elf/lib\libc.a(lib_a-strncmp.o)
 .bss           0x0005d254        0x0 c:/develop/altera/11.1/nios2eds/bin/gnu/h-i686-mingw32/bin/../lib/gcc/nios2-elf/4.1.2/../../../../nios2-elf/lib\libc.a(lib_a-strpbrk.o)
 .bss           0x0005d254        0x0 c:/develop/altera/11.1/nios2eds/bin/gnu/h-i686-mingw32/bin/../lib/gcc/nios2-elf/4.1.2/../../../../nios2-elf/lib\libc.a(lib_a-strspn.o)
 .bss           0x0005d254        0x0 c:/develop/altera/11.1/nios2eds/bin/gnu/h-i686-mingw32/bin/../lib/gcc/nios2-elf/4.1.2/../../../../nios2-elf/lib\libc.a(lib_a-strstr.o)
 .bss           0x0005d254        0x0 c:/develop/altera/11.1/nios2eds/bin/gnu/h-i686-mingw32/bin/../lib/gcc/nios2-elf/4.1.2/../../../../nios2-elf/lib\libc.a(lib_a-strtod.o)
 .bss           0x0005d254        0x0 c:/develop/altera/11.1/nios2eds/bin/gnu/h-i686-mingw32/bin/../lib/gcc/nios2-elf/4.1.2/../../../../nios2-elf/lib\libc.a(lib_a-time.o)
 .bss           0x0005d254        0x0 c:/develop/altera/11.1/nios2eds/bin/gnu/h-i686-mingw32/bin/../lib/gcc/nios2-elf/4.1.2/../../../../nios2-elf/lib\libc.a(lib_a-timesr.o)
 .bss           0x0005d254        0x0 c:/develop/altera/11.1/nios2eds/bin/gnu/h-i686-mingw32/bin/../lib/gcc/nios2-elf/4.1.2/../../../../nios2-elf/lib\libc.a(lib_a-tmpnam.o)
 .bss           0x0005d254        0x0 c:/develop/altera/11.1/nios2eds/bin/gnu/h-i686-mingw32/bin/../lib/gcc/nios2-elf/4.1.2/../../../../nios2-elf/lib\libc.a(lib_a-tzlock.o)
 .bss           0x0005d254        0x0 c:/develop/altera/11.1/nios2eds/bin/gnu/h-i686-mingw32/bin/../lib/gcc/nios2-elf/4.1.2/../../../../nios2-elf/lib\libc.a(lib_a-tzvars.o)
 .bss           0x0005d254        0x0 c:/develop/altera/11.1/nios2eds/bin/gnu/h-i686-mingw32/bin/../lib/gcc/nios2-elf/4.1.2/../../../../nios2-elf/lib\libc.a(lib_a-u_strerr.o)
 .bss           0x0005d254        0x0 c:/develop/altera/11.1/nios2eds/bin/gnu/h-i686-mingw32/bin/../lib/gcc/nios2-elf/4.1.2/../../../../nios2-elf/lib\libc.a(lib_a-ungetc.o)
 .bss           0x0005d254        0x0 c:/develop/altera/11.1/nios2eds/bin/gnu/h-i686-mingw32/bin/../lib/gcc/nios2-elf/4.1.2/../../../../nios2-elf/lib\libc.a(lib_a-vfprintf.o)
 .bss           0x0005d254        0x0 c:/develop/altera/11.1/nios2eds/bin/gnu/h-i686-mingw32/bin/../lib/gcc/nios2-elf/4.1.2/../../../../nios2-elf/lib\libc.a(lib_a-vfscanf.o)
 .bss           0x0005d254        0x0 c:/develop/altera/11.1/nios2eds/bin/gnu/h-i686-mingw32/bin/../lib/gcc/nios2-elf/4.1.2/../../../../nios2-elf/lib\libc.a(lib_a-writer.o)
 .bss           0x0005d254        0x0 c:/develop/altera/11.1/nios2eds/bin/gnu/h-i686-mingw32/bin/../lib/gcc/nios2-elf/4.1.2/../../../../nios2-elf/lib\libc.a(lib_a-wsetup.o)
 .bss           0x0005d254        0x0 c:/develop/altera/11.1/nios2eds/bin/gnu/h-i686-mingw32/bin/../lib/gcc/nios2-elf/4.1.2/../../../../nios2-elf/lib\libc.a(lib_a-__call_atexit.o)
 .bss           0x0005d254        0x0 c:/develop/altera/11.1/nios2eds/bin/gnu/h-i686-mingw32/bin/../lib/gcc/nios2-elf/4.1.2/../../../../nios2-elf/lib\libc.a(lib_a-abs.o)
 .bss           0x0005d254        0x0 c:/develop/altera/11.1/nios2eds/bin/gnu/h-i686-mingw32/bin/../lib/gcc/nios2-elf/4.1.2/../../../../nios2-elf/lib\libc.a(lib_a-closer.o)
 .bss           0x0005d254        0x0 c:/develop/altera/11.1/nios2eds/bin/gnu/h-i686-mingw32/bin/../lib/gcc/nios2-elf/4.1.2/../../../../nios2-elf/lib\libc.a(lib_a-div.o)
 .bss           0x0005d254        0x0 c:/develop/altera/11.1/nios2eds/bin/gnu/h-i686-mingw32/bin/../lib/gcc/nios2-elf/4.1.2/../../../../nios2-elf/lib\libc.a(lib_a-dtoa.o)
 .bss           0x0005d254        0x0 c:/develop/altera/11.1/nios2eds/bin/gnu/h-i686-mingw32/bin/../lib/gcc/nios2-elf/4.1.2/../../../../nios2-elf/lib\libc.a(lib_a-environ.o)
 .bss           0x0005d254        0x0 c:/develop/altera/11.1/nios2eds/bin/gnu/h-i686-mingw32/bin/../lib/gcc/nios2-elf/4.1.2/../../../../nios2-elf/lib\libc.a(lib_a-flags.o)
 .bss           0x0005d254        0x0 c:/develop/altera/11.1/nios2eds/bin/gnu/h-i686-mingw32/bin/../lib/gcc/nios2-elf/4.1.2/../../../../nios2-elf/lib\libc.a(lib_a-fvwrite.o)
 .bss           0x0005d254        0x0 c:/develop/altera/11.1/nios2eds/bin/gnu/h-i686-mingw32/bin/../lib/gcc/nios2-elf/4.1.2/../../../../nios2-elf/lib\libc.a(lib_a-gdtoa-gethex.o)
 .bss           0x0005d254        0x0 c:/develop/altera/11.1/nios2eds/bin/gnu/h-i686-mingw32/bin/../lib/gcc/nios2-elf/4.1.2/../../../../nios2-elf/lib\libc.a(lib_a-gdtoa-hexnan.o)
 .bss           0x0005d254        0x0 c:/develop/altera/11.1/nios2eds/bin/gnu/h-i686-mingw32/bin/../lib/gcc/nios2-elf/4.1.2/../../../../nios2-elf/lib\libc.a(lib_a-gettimeofdayr.o)
 .bss           0x0005d254        0x0 c:/develop/altera/11.1/nios2eds/bin/gnu/h-i686-mingw32/bin/../lib/gcc/nios2-elf/4.1.2/../../../../nios2-elf/lib\libc.a(lib_a-gettzinfo.o)
 .bss           0x0005d254        0x0 c:/develop/altera/11.1/nios2eds/bin/gnu/h-i686-mingw32/bin/../lib/gcc/nios2-elf/4.1.2/../../../../nios2-elf/lib\libc.a(lib_a-isattyr.o)
 .bss           0x0005d254        0x0 c:/develop/altera/11.1/nios2eds/bin/gnu/h-i686-mingw32/bin/../lib/gcc/nios2-elf/4.1.2/../../../../nios2-elf/lib\libc.a(lib_a-iswspace.o)
 .bss           0x0005d254        0x0 c:/develop/altera/11.1/nios2eds/bin/gnu/h-i686-mingw32/bin/../lib/gcc/nios2-elf/4.1.2/../../../../nios2-elf/lib\libc.a(lib_a-labs.o)
 .bss           0x0005d254        0x0 c:/develop/altera/11.1/nios2eds/bin/gnu/h-i686-mingw32/bin/../lib/gcc/nios2-elf/4.1.2/../../../../nios2-elf/lib\libc.a(lib_a-lseekr.o)
 .bss           0x0005d254        0x0 c:/develop/altera/11.1/nios2eds/bin/gnu/h-i686-mingw32/bin/../lib/gcc/nios2-elf/4.1.2/../../../../nios2-elf/lib\libc.a(lib_a-mbrtowc.o)
 .bss           0x0005d254        0x0 c:/develop/altera/11.1/nios2eds/bin/gnu/h-i686-mingw32/bin/../lib/gcc/nios2-elf/4.1.2/../../../../nios2-elf/lib\libc.a(lib_a-mbtowc_r.o)
 .bss           0x0005d254        0x0 c:/develop/altera/11.1/nios2eds/bin/gnu/h-i686-mingw32/bin/../lib/gcc/nios2-elf/4.1.2/../../../../nios2-elf/lib\libc.a(lib_a-memmove.o)
 .bss           0x0005d254        0x0 c:/develop/altera/11.1/nios2eds/bin/gnu/h-i686-mingw32/bin/../lib/gcc/nios2-elf/4.1.2/../../../../nios2-elf/lib\libc.a(lib_a-mprec.o)
 .bss           0x0005d254        0x0 c:/develop/altera/11.1/nios2eds/bin/gnu/h-i686-mingw32/bin/../lib/gcc/nios2-elf/4.1.2/../../../../nios2-elf/lib\libc.a(lib_a-putc.o)
 .bss           0x0005d254        0x0 c:/develop/altera/11.1/nios2eds/bin/gnu/h-i686-mingw32/bin/../lib/gcc/nios2-elf/4.1.2/../../../../nios2-elf/lib\libc.a(lib_a-readr.o)
 .bss           0x0005d254        0x0 c:/develop/altera/11.1/nios2eds/bin/gnu/h-i686-mingw32/bin/../lib/gcc/nios2-elf/4.1.2/../../../../nios2-elf/lib\libc.a(lib_a-s_isinfd.o)
 .bss           0x0005d254        0x0 c:/develop/altera/11.1/nios2eds/bin/gnu/h-i686-mingw32/bin/../lib/gcc/nios2-elf/4.1.2/../../../../nios2-elf/lib\libc.a(lib_a-sccl.o)
 .bss           0x0005d254        0x0 c:/develop/altera/11.1/nios2eds/bin/gnu/h-i686-mingw32/bin/../lib/gcc/nios2-elf/4.1.2/../../../../nios2-elf/lib\libc.a(lib_a-sf_nan.o)
 .bss           0x0005d254        0x0 c:/develop/altera/11.1/nios2eds/bin/gnu/h-i686-mingw32/bin/../lib/gcc/nios2-elf/4.1.2/../../../../nios2-elf/lib\libc.a(lib_a-snprintf.o)
 .bss           0x0005d254        0x0 c:/develop/altera/11.1/nios2eds/bin/gnu/h-i686-mingw32/bin/../lib/gcc/nios2-elf/4.1.2/../../../../nios2-elf/lib\libc.a(lib_a-strtol.o)
 .bss           0x0005d254        0x0 c:/develop/altera/11.1/nios2eds/bin/gnu/h-i686-mingw32/bin/../lib/gcc/nios2-elf/4.1.2/../../../../nios2-elf/lib\libc.a(lib_a-strtoll_r.o)
 .bss           0x0005d254        0x0 c:/develop/altera/11.1/nios2eds/bin/gnu/h-i686-mingw32/bin/../lib/gcc/nios2-elf/4.1.2/../../../../nios2-elf/lib\libc.a(lib_a-strtoul.o)
 .bss           0x0005d254        0x0 c:/develop/altera/11.1/nios2eds/bin/gnu/h-i686-mingw32/bin/../lib/gcc/nios2-elf/4.1.2/../../../../nios2-elf/lib\libc.a(lib_a-strtoull_r.o)
 .bss           0x0005d254        0x0 c:/develop/altera/11.1/nios2eds/bin/gnu/h-i686-mingw32/bin/../lib/gcc/nios2-elf/4.1.2/../../../../nios2-elf/lib\libc.a(lib_a-wbuf.o)
 .bss           0x0005d254        0x0 c:/develop/altera/11.1/nios2eds/bin/gnu/h-i686-mingw32/bin/../lib/gcc/nios2-elf/4.1.2/../../../../nios2-elf/lib\libc.a(lib_a-callocr.o)
 .bss           0x0005d254        0x0 c:/develop/altera/11.1/nios2eds/bin/gnu/h-i686-mingw32/bin/../lib/gcc/nios2-elf/4.1.2\libgcc.a(_udivdi3.o)
 .bss           0x0005d254        0x0 c:/develop/altera/11.1/nios2eds/bin/gnu/h-i686-mingw32/bin/../lib/gcc/nios2-elf/4.1.2\libgcc.a(_umoddi3.o)
 .bss           0x0005d254        0x0 c:/develop/altera/11.1/nios2eds/bin/gnu/h-i686-mingw32/bin/../lib/gcc/nios2-elf/4.1.2\libgcc.a(_ne_sf.o)
 .bss           0x0005d254        0x0 c:/develop/altera/11.1/nios2eds/bin/gnu/h-i686-mingw32/bin/../lib/gcc/nios2-elf/4.1.2\libgcc.a(_gt_sf.o)
 .bss           0x0005d254        0x0 c:/develop/altera/11.1/nios2eds/bin/gnu/h-i686-mingw32/bin/../lib/gcc/nios2-elf/4.1.2\libgcc.a(_lt_sf.o)
 .bss           0x0005d254        0x0 c:/develop/altera/11.1/nios2eds/bin/gnu/h-i686-mingw32/bin/../lib/gcc/nios2-elf/4.1.2\libgcc.a(_df_to_sf.o)
 .bss           0x0005d254        0x0 c:/develop/altera/11.1/nios2eds/bin/gnu/h-i686-mingw32/bin/../lib/gcc/nios2-elf/4.1.2\libgcc.a(_unpack_sf.o)
 .bss           0x0005d254        0x0 c:/develop/altera/11.1/nios2eds/bin/gnu/h-i686-mingw32/bin/../lib/gcc/nios2-elf/4.1.2\libgcc.a(_fpcmp_parts_sf.o)
 .bss           0x0005d254        0x0 c:/develop/altera/11.1/nios2eds/bin/gnu/h-i686-mingw32/bin/../lib/gcc/nios2-elf/4.1.2\libgcc.a(_make_sf.o)
 .bss           0x0005d254        0x0 c:/develop/altera/11.1/nios2eds/bin/gnu/h-i686-mingw32/bin/../lib/gcc/nios2-elf/4.1.2\libgcc.a(_pack_sf.o)
 .bss           0x0005d254        0x0 ../Cineraria_DE0_HAL_bsp/\libhal_bsp.a(alt_close.o)
 .bss           0x0005d254        0x0 ../Cineraria_DE0_HAL_bsp/\libhal_bsp.a(alt_dev.o)
 .bss           0x0005d254        0x0 ../Cineraria_DE0_HAL_bsp/\libhal_bsp.a(alt_env_lock.o)
 .bss           0x0005d254        0x0 ../Cineraria_DE0_HAL_bsp/\libhal_bsp.a(alt_errno.o)
 .bss           0x0005d254        0x0 ../Cineraria_DE0_HAL_bsp/\libhal_bsp.a(alt_exit.o)
 .bss           0x0005d254        0x0 ../Cineraria_DE0_HAL_bsp/\libhal_bsp.a(alt_fs_reg.o)
 .bss           0x0005d254        0x0 ../Cineraria_DE0_HAL_bsp/\libhal_bsp.a(alt_fstat.o)
 .bss           0x0005d254        0x0 ../Cineraria_DE0_HAL_bsp/\libhal_bsp.a(alt_getpid.o)
 .bss           0x0005d254        0x0 ../Cineraria_DE0_HAL_bsp/\libhal_bsp.a(alt_gettod.o)
 .bss           0x0005d254        0x0 ../Cineraria_DE0_HAL_bsp/\libhal_bsp.a(alt_isatty.o)
 .bss           0x0005d254        0x0 ../Cineraria_DE0_HAL_bsp/\libhal_bsp.a(alt_kill.o)
 .bss           0x0005d254        0x0 ../Cineraria_DE0_HAL_bsp/\libhal_bsp.a(alt_lseek.o)
 .bss           0x0005d254        0x0 ../Cineraria_DE0_HAL_bsp/\libhal_bsp.a(alt_main.o)
 .bss           0x0005d254        0x0 ../Cineraria_DE0_HAL_bsp/\libhal_bsp.a(alt_malloc_lock.o)
 .bss           0x0005d254        0x0 ../Cineraria_DE0_HAL_bsp/\libhal_bsp.a(alt_open.o)
 .bss           0x0005d254        0x0 ../Cineraria_DE0_HAL_bsp/\libhal_bsp.a(alt_read.o)
 .bss           0x0005d254        0x0 ../Cineraria_DE0_HAL_bsp/\libhal_bsp.a(alt_release_fd.o)
 .bss           0x0005d254        0x0 ../Cineraria_DE0_HAL_bsp/\libhal_bsp.a(alt_sbrk.o)
 .bss           0x0005d254        0x0 ../Cineraria_DE0_HAL_bsp/\libhal_bsp.a(alt_tick.o)
 .bss           0x0005d254        0x0 ../Cineraria_DE0_HAL_bsp/\libhal_bsp.a(alt_times.o)
 .bss           0x0005d254        0x0 ../Cineraria_DE0_HAL_bsp/\libhal_bsp.a(alt_write.o)
 .bss           0x0005d254        0x0 ../Cineraria_DE0_HAL_bsp/\libhal_bsp.a(alt_sys_init.o)
 .bss           0x0005d254        0x0 ../Cineraria_DE0_HAL_bsp/\libhal_bsp.a(altera_avalon_cfi_flash.o)
 .bss           0x0005d254        0x0 ../Cineraria_DE0_HAL_bsp/\libhal_bsp.a(altera_avalon_cfi_flash_table.o)
 .bss           0x0005d254        0x0 ../Cineraria_DE0_HAL_bsp/\libhal_bsp.a(altera_avalon_epcs_flash_controller.o)
 .bss           0x0005d254        0x0 ../Cineraria_DE0_HAL_bsp/\libhal_bsp.a(altera_avalon_jtag_uart_fd.o)
 .bss           0x0005d254        0x0 ../Cineraria_DE0_HAL_bsp/\libhal_bsp.a(altera_avalon_jtag_uart_init.o)
 .bss           0x0005d254        0x0 ../Cineraria_DE0_HAL_bsp/\libhal_bsp.a(altera_avalon_jtag_uart_ioctl.o)
 .bss           0x0005d254        0x0 ../Cineraria_DE0_HAL_bsp/\libhal_bsp.a(altera_avalon_jtag_uart_read.o)
 .bss           0x0005d254        0x0 ../Cineraria_DE0_HAL_bsp/\libhal_bsp.a(altera_avalon_jtag_uart_write.o)
 .bss           0x0005d254        0x0 ../Cineraria_DE0_HAL_bsp/\libhal_bsp.a(altera_avalon_timer_sc.o)
 .bss           0x0005d254        0x0 ../Cineraria_DE0_HAL_bsp/\libhal_bsp.a(altera_avalon_uart_fd.o)
 .bss           0x0005d254        0x0 ../Cineraria_DE0_HAL_bsp/\libhal_bsp.a(altera_avalon_uart_init.o)
 .bss           0x0005d254        0x0 ../Cineraria_DE0_HAL_bsp/\libhal_bsp.a(altera_avalon_uart_read.o)
 .bss           0x0005d254        0x0 ../Cineraria_DE0_HAL_bsp/\libhal_bsp.a(altera_avalon_uart_write.o)
 .bss           0x0005d254        0x0 ../Cineraria_DE0_HAL_bsp/\libhal_bsp.a(epcs_commands.o)
 .bss           0x0005d254        0x0 ../Cineraria_DE0_HAL_bsp/\libhal_bsp.a(alt_alarm_start.o)
 .bss           0x0005d254        0x0 ../Cineraria_DE0_HAL_bsp/\libhal_bsp.a(alt_dcache_flush.o)
 .bss           0x0005d254        0x0 ../Cineraria_DE0_HAL_bsp/\libhal_bsp.a(alt_dev_llist_insert.o)
 .bss           0x0005d254        0x0 ../Cineraria_DE0_HAL_bsp/\libhal_bsp.a(alt_do_ctors.o)
 .bss           0x0005d254        0x0 ../Cineraria_DE0_HAL_bsp/\libhal_bsp.a(alt_do_dtors.o)
 .bss           0x0005d254        0x0 ../Cineraria_DE0_HAL_bsp/\libhal_bsp.a(alt_find_dev.o)
 .bss           0x0005d254        0x0 ../Cineraria_DE0_HAL_bsp/\libhal_bsp.a(alt_find_file.o)
 .bss           0x0005d254        0x0 ../Cineraria_DE0_HAL_bsp/\libhal_bsp.a(alt_flash_dev.o)
 .bss           0x0005d254        0x0 ../Cineraria_DE0_HAL_bsp/\libhal_bsp.a(alt_get_fd.o)
 .bss           0x0005d254        0x0 ../Cineraria_DE0_HAL_bsp/\libhal_bsp.a(alt_iic.o)
 .bss           0x0005d254        0x0 ../Cineraria_DE0_HAL_bsp/\libhal_bsp.a(alt_iic_isr_register.o)
 .bss           0x0005d254        0x0 ../Cineraria_DE0_HAL_bsp/\libhal_bsp.a(alt_io_redirect.o)
 .bss           0x0005d254        0x0 ../Cineraria_DE0_HAL_bsp/\libhal_bsp.a(alt_irq_entry.o)
 .bss           0x0005d254        0x0 ../Cineraria_DE0_HAL_bsp/\libhal_bsp.a(alt_irq_handler.o)
 .bss           0x0005d254        0x0 ../Cineraria_DE0_HAL_bsp/\libhal_bsp.a(alt_irq_vars.o)
 .bss           0x0005d254        0x0 ../Cineraria_DE0_HAL_bsp/\libhal_bsp.a(altera_nios2_irq.o)
 .bss           0x0005d254        0x0 ../Cineraria_DE0_HAL_bsp/\libhal_bsp.a(altera_avalon_cfi_flash_amd.o)
 .bss           0x0005d254        0x0 ../Cineraria_DE0_HAL_bsp/\libhal_bsp.a(altera_avalon_cfi_flash_intel.o)
 .bss           0x0005d254        0x0 ../Cineraria_DE0_HAL_bsp/\libhal_bsp.a(altera_avalon_spi.o)
 .bss           0x0005d254        0x0 ../Cineraria_DE0_HAL_bsp/\libhal_bsp.a(alt_exception_entry.o)
 .bss           0x0005d254        0x0 ../Cineraria_DE0_HAL_bsp/\libhal_bsp.a(alt_usleep.o)
 .bss           0x0005d254        0x0 ../Cineraria_DE0_HAL_bsp/\libhal_bsp.a(alt_busy_sleep.o)
 .bss           0x0005d254        0x0 c:/develop/altera/11.1/nios2eds/bin/gnu/h-i686-mingw32/bin/../lib/gcc/nios2-elf/4.1.2/../../../../nios2-elf/lib\libc.a(lib_a-atexit.o)
 .bss           0x0005d254        0x0 c:/develop/altera/11.1/nios2eds/bin/gnu/h-i686-mingw32/bin/../lib/gcc/nios2-elf/4.1.2/../../../../nios2-elf/lib\libc.a(lib_a-__atexit.o)
 *(COMMON)
 COMMON         0x0005d254      0x100 c:/develop/altera/11.1/nios2eds/bin/gnu/h-i686-mingw32/bin/../lib/gcc/nios2-elf/4.1.2/../../../../nios2-elf/lib\libc.a(lib_a-gdtoa-gethex.o)
                0x0005d254                __hexdig
 COMMON         0x0005d354      0x100 ../Cineraria_DE0_HAL_bsp/\libhal_bsp.a(alt_irq_handler.o)
                0x0005d354                alt_irq
 COMMON         0x0005d454      0x190 c:/develop/altera/11.1/nios2eds/bin/gnu/h-i686-mingw32/bin/../lib/gcc/nios2-elf/4.1.2/../../../../nios2-elf/lib\libc.a(lib_a-atexit.o)
                0x0005d454                _atexit0
                0x0005d5e4                . = ALIGN (0x4)
                0x0005d5e4                __bss_end = ABSOLUTE (.)

.sdram          0x0005d5e4        0x0
                0x0005d5e4                PROVIDE (_alt_partition_sdram_start, ABSOLUTE (.))
 *(.sdram. sdram.*)
                0x0005d5e4                . = ALIGN (0x4)
                0x0005d5e4                PROVIDE (_alt_partition_sdram_end, ABSOLUTE (.))
                0x0005d5e4                _end = ABSOLUTE (.)
                0x0005d5e4                end = ABSOLUTE (.)
                0x0005d5e4                __alt_stack_base = ABSOLUTE (.)
                0x0005d5e4                PROVIDE (_alt_partition_sdram_load_addr, LOADADDR (.sdram))

.ext_flash      0x04000000        0x0
                0x04000000                PROVIDE (_alt_partition_ext_flash_start, ABSOLUTE (.))
 *(.ext_flash. ext_flash.*)
                0x04000000                . = ALIGN (0x4)
                0x04000000                PROVIDE (_alt_partition_ext_flash_end, ABSOLUTE (.))
                0x04000000                PROVIDE (_alt_partition_ext_flash_load_addr, LOADADDR (.ext_flash))

.epcs_controller
                0x0f000020        0x0
                0x0f000020                PROVIDE (_alt_partition_epcs_controller_start, ABSOLUTE (.))
 *(.epcs_controller. epcs_controller.*)
                0x0f000020                . = ALIGN (0x4)
                0x0f000020                PROVIDE (_alt_partition_epcs_controller_end, ABSOLUTE (.))
                0x0f000020                PROVIDE (_alt_partition_epcs_controller_load_addr, LOADADDR (.epcs_controller))

.stab
 *(.stab)

.stabstr
 *(.stabstr)

.stab.excl
 *(.stab.excl)

.stab.exclstr
 *(.stab.exclstr)

.stab.index
 *(.stab.index)

.stab.indexstr
 *(.stab.indexstr)

.comment        0x00000000       0x26
 *(.comment)
 .comment       0x00000000       0x26 obj/default/lua/lapi.o
                                 0x27 (size before relaxing)
 .comment       0x00000000       0x27 obj/default/lua/lauxlib.o
 .comment       0x00000000       0x27 obj/default/lua/lbaselib.o
 .comment       0x00000000       0x27 obj/default/lua/lbitlib.o
 .comment       0x00000000       0x27 obj/default/lua/lcode.o
 .comment       0x00000000       0x27 obj/default/lua/lcorolib.o
 .comment       0x00000000       0x27 obj/default/lua/lctype.o
 .comment       0x00000000       0x27 obj/default/lua/ldblib.o
 .comment       0x00000000       0x27 obj/default/lua/ldebug.o
 .comment       0x00000000       0x27 obj/default/lua/ldo.o
 .comment       0x00000000       0x27 obj/default/lua/ldump.o
 .comment       0x00000000       0x27 obj/default/lua/lfunc.o
 .comment       0x00000000       0x27 obj/default/lua/lgc.o
 .comment       0x00000000       0x27 obj/default/lua/linit.o
 .comment       0x00000000       0x27 obj/default/lua/liolib.o
 .comment       0x00000000       0x27 obj/default/lua/llex.o
 .comment       0x00000000       0x27 obj/default/lua/lmathlib.o
 .comment       0x00000000       0x27 obj/default/lua/lmem.o
 .comment       0x00000000       0x27 obj/default/lua/loadlib.o
 .comment       0x00000000       0x27 obj/default/lua/lobject.o
 .comment       0x00000000       0x27 obj/default/lua/lopcodes.o
 .comment       0x00000000       0x27 obj/default/lua/loslib.o
 .comment       0x00000000       0x27 obj/default/lua/lparser.o
 .comment       0x00000000       0x27 obj/default/lua/lstate.o
 .comment       0x00000000       0x27 obj/default/lua/lstring.o
 .comment       0x00000000       0x27 obj/default/lua/lstrlib.o
 .comment       0x00000000       0x27 obj/default/lua/ltable.o
 .comment       0x00000000       0x27 obj/default/lua/ltablib.o
 .comment       0x00000000       0x27 obj/default/lua/ltm.o
 .comment       0x00000000       0x27 obj/default/lua/lundump.o
 .comment       0x00000000       0x27 obj/default/lua/lvm.o
 .comment       0x00000000       0x27 obj/default/lua/lzio.o
 .comment       0x00000000       0x27 obj/default/min.o
 .comment       0x00000000       0x27 obj/default/mmcfs/fatfs/ff.o
 .comment       0x00000000       0x27 obj/default/mmcfs/fatfs/mmcbb.o
 .comment       0x00000000       0x27 obj/default/mmcfs/fatfs/option/cc932.o
 .comment       0x00000000       0x27 obj/default/mmcfs/gettime.o
 .comment       0x00000000       0x27 obj/default/mmcfs/mmc_spi.o
 .comment       0x00000000       0x27 obj/default/mmcfs/mmcfs.o
 .comment       0x00000000       0x27 c:/develop/altera/11.1/nios2eds/bin/gnu/h-i686-mingw32/bin/../lib/gcc/nios2-elf/4.1.2/../../../../nios2-elf/lib\libm.a(lib_a-s_atan.o)
 .comment       0x00000000       0x27 c:/develop/altera/11.1/nios2eds/bin/gnu/h-i686-mingw32/bin/../lib/gcc/nios2-elf/4.1.2/../../../../nios2-elf/lib\libm.a(lib_a-s_ceil.o)
 .comment       0x00000000       0x27 c:/develop/altera/11.1/nios2eds/bin/gnu/h-i686-mingw32/bin/../lib/gcc/nios2-elf/4.1.2/../../../../nios2-elf/lib\libm.a(lib_a-s_cos.o)
 .comment       0x00000000       0x27 c:/develop/altera/11.1/nios2eds/bin/gnu/h-i686-mingw32/bin/../lib/gcc/nios2-elf/4.1.2/../../../../nios2-elf/lib\libm.a(lib_a-s_fabs.o)
 .comment       0x00000000       0x27 c:/develop/altera/11.1/nios2eds/bin/gnu/h-i686-mingw32/bin/../lib/gcc/nios2-elf/4.1.2/../../../../nios2-elf/lib\libm.a(lib_a-s_floor.o)
 .comment       0x00000000       0x27 c:/develop/altera/11.1/nios2eds/bin/gnu/h-i686-mingw32/bin/../lib/gcc/nios2-elf/4.1.2/../../../../nios2-elf/lib\libm.a(lib_a-s_frexp.o)
 .comment       0x00000000       0x27 c:/develop/altera/11.1/nios2eds/bin/gnu/h-i686-mingw32/bin/../lib/gcc/nios2-elf/4.1.2/../../../../nios2-elf/lib\libm.a(lib_a-s_ldexp.o)
 .comment       0x00000000       0x27 c:/develop/altera/11.1/nios2eds/bin/gnu/h-i686-mingw32/bin/../lib/gcc/nios2-elf/4.1.2/../../../../nios2-elf/lib\libm.a(lib_a-s_modf.o)
 .comment       0x00000000       0x27 c:/develop/altera/11.1/nios2eds/bin/gnu/h-i686-mingw32/bin/../lib/gcc/nios2-elf/4.1.2/../../../../nios2-elf/lib\libm.a(lib_a-s_scalbn.o)
 .comment       0x00000000       0x27 c:/develop/altera/11.1/nios2eds/bin/gnu/h-i686-mingw32/bin/../lib/gcc/nios2-elf/4.1.2/../../../../nios2-elf/lib\libm.a(lib_a-s_sin.o)
 .comment       0x00000000       0x27 c:/develop/altera/11.1/nios2eds/bin/gnu/h-i686-mingw32/bin/../lib/gcc/nios2-elf/4.1.2/../../../../nios2-elf/lib\libm.a(lib_a-s_tan.o)
 .comment       0x00000000       0x27 c:/develop/altera/11.1/nios2eds/bin/gnu/h-i686-mingw32/bin/../lib/gcc/nios2-elf/4.1.2/../../../../nios2-elf/lib\libm.a(lib_a-s_tanh.o)
 .comment       0x00000000       0x27 c:/develop/altera/11.1/nios2eds/bin/gnu/h-i686-mingw32/bin/../lib/gcc/nios2-elf/4.1.2/../../../../nios2-elf/lib\libm.a(lib_a-w_acos.o)
 .comment       0x00000000       0x27 c:/develop/altera/11.1/nios2eds/bin/gnu/h-i686-mingw32/bin/../lib/gcc/nios2-elf/4.1.2/../../../../nios2-elf/lib\libm.a(lib_a-w_asin.o)
 .comment       0x00000000       0x27 c:/develop/altera/11.1/nios2eds/bin/gnu/h-i686-mingw32/bin/../lib/gcc/nios2-elf/4.1.2/../../../../nios2-elf/lib\libm.a(lib_a-w_atan2.o)
 .comment       0x00000000       0x27 c:/develop/altera/11.1/nios2eds/bin/gnu/h-i686-mingw32/bin/../lib/gcc/nios2-elf/4.1.2/../../../../nios2-elf/lib\libm.a(lib_a-w_cosh.o)
 .comment       0x00000000       0x27 c:/develop/altera/11.1/nios2eds/bin/gnu/h-i686-mingw32/bin/../lib/gcc/nios2-elf/4.1.2/../../../../nios2-elf/lib\libm.a(lib_a-w_exp.o)
 .comment       0x00000000       0x27 c:/develop/altera/11.1/nios2eds/bin/gnu/h-i686-mingw32/bin/../lib/gcc/nios2-elf/4.1.2/../../../../nios2-elf/lib\libm.a(lib_a-w_fmod.o)
 .comment       0x00000000       0x27 c:/develop/altera/11.1/nios2eds/bin/gnu/h-i686-mingw32/bin/../lib/gcc/nios2-elf/4.1.2/../../../../nios2-elf/lib\libm.a(lib_a-w_log.o)
 .comment       0x00000000       0x27 c:/develop/altera/11.1/nios2eds/bin/gnu/h-i686-mingw32/bin/../lib/gcc/nios2-elf/4.1.2/../../../../nios2-elf/lib\libm.a(lib_a-w_log10.o)
 .comment       0x00000000       0x27 c:/develop/altera/11.1/nios2eds/bin/gnu/h-i686-mingw32/bin/../lib/gcc/nios2-elf/4.1.2/../../../../nios2-elf/lib\libm.a(lib_a-w_pow.o)
 .comment       0x00000000       0x27 c:/develop/altera/11.1/nios2eds/bin/gnu/h-i686-mingw32/bin/../lib/gcc/nios2-elf/4.1.2/../../../../nios2-elf/lib\libm.a(lib_a-w_sinh.o)
 .comment       0x00000000       0x27 c:/develop/altera/11.1/nios2eds/bin/gnu/h-i686-mingw32/bin/../lib/gcc/nios2-elf/4.1.2/../../../../nios2-elf/lib\libm.a(lib_a-w_sqrt.o)
 .comment       0x00000000       0x27 c:/develop/altera/11.1/nios2eds/bin/gnu/h-i686-mingw32/bin/../lib/gcc/nios2-elf/4.1.2/../../../../nios2-elf/lib\libm.a(lib_a-e_acos.o)
 .comment       0x00000000       0x27 c:/develop/altera/11.1/nios2eds/bin/gnu/h-i686-mingw32/bin/../lib/gcc/nios2-elf/4.1.2/../../../../nios2-elf/lib\libm.a(lib_a-e_asin.o)
 .comment       0x00000000       0x27 c:/develop/altera/11.1/nios2eds/bin/gnu/h-i686-mingw32/bin/../lib/gcc/nios2-elf/4.1.2/../../../../nios2-elf/lib\libm.a(lib_a-e_atan2.o)
 .comment       0x00000000       0x27 c:/develop/altera/11.1/nios2eds/bin/gnu/h-i686-mingw32/bin/../lib/gcc/nios2-elf/4.1.2/../../../../nios2-elf/lib\libm.a(lib_a-e_cosh.o)
 .comment       0x00000000       0x27 c:/develop/altera/11.1/nios2eds/bin/gnu/h-i686-mingw32/bin/../lib/gcc/nios2-elf/4.1.2/../../../../nios2-elf/lib\libm.a(lib_a-e_exp.o)
 .comment       0x00000000       0x27 c:/develop/altera/11.1/nios2eds/bin/gnu/h-i686-mingw32/bin/../lib/gcc/nios2-elf/4.1.2/../../../../nios2-elf/lib\libm.a(lib_a-e_fmod.o)
 .comment       0x00000000       0x27 c:/develop/altera/11.1/nios2eds/bin/gnu/h-i686-mingw32/bin/../lib/gcc/nios2-elf/4.1.2/../../../../nios2-elf/lib\libm.a(lib_a-e_log.o)
 .comment       0x00000000       0x27 c:/develop/altera/11.1/nios2eds/bin/gnu/h-i686-mingw32/bin/../lib/gcc/nios2-elf/4.1.2/../../../../nios2-elf/lib\libm.a(lib_a-e_log10.o)
 .comment       0x00000000       0x27 c:/develop/altera/11.1/nios2eds/bin/gnu/h-i686-mingw32/bin/../lib/gcc/nios2-elf/4.1.2/../../../../nios2-elf/lib\libm.a(lib_a-e_pow.o)
 .comment       0x00000000       0x27 c:/develop/altera/11.1/nios2eds/bin/gnu/h-i686-mingw32/bin/../lib/gcc/nios2-elf/4.1.2/../../../../nios2-elf/lib\libm.a(lib_a-e_rem_pio2.o)
 .comment       0x00000000       0x27 c:/develop/altera/11.1/nios2eds/bin/gnu/h-i686-mingw32/bin/../lib/gcc/nios2-elf/4.1.2/../../../../nios2-elf/lib\libm.a(lib_a-e_sinh.o)
 .comment       0x00000000       0x27 c:/develop/altera/11.1/nios2eds/bin/gnu/h-i686-mingw32/bin/../lib/gcc/nios2-elf/4.1.2/../../../../nios2-elf/lib\libm.a(lib_a-e_sqrt.o)
 .comment       0x00000000       0x27 c:/develop/altera/11.1/nios2eds/bin/gnu/h-i686-mingw32/bin/../lib/gcc/nios2-elf/4.1.2/../../../../nios2-elf/lib\libm.a(lib_a-k_cos.o)
 .comment       0x00000000       0x27 c:/develop/altera/11.1/nios2eds/bin/gnu/h-i686-mingw32/bin/../lib/gcc/nios2-elf/4.1.2/../../../../nios2-elf/lib\libm.a(lib_a-k_rem_pio2.o)
 .comment       0x00000000       0x27 c:/develop/altera/11.1/nios2eds/bin/gnu/h-i686-mingw32/bin/../lib/gcc/nios2-elf/4.1.2/../../../../nios2-elf/lib\libm.a(lib_a-k_sin.o)
 .comment       0x00000000       0x27 c:/develop/altera/11.1/nios2eds/bin/gnu/h-i686-mingw32/bin/../lib/gcc/nios2-elf/4.1.2/../../../../nios2-elf/lib\libm.a(lib_a-k_tan.o)
 .comment       0x00000000       0x27 c:/develop/altera/11.1/nios2eds/bin/gnu/h-i686-mingw32/bin/../lib/gcc/nios2-elf/4.1.2/../../../../nios2-elf/lib\libm.a(lib_a-s_copysign.o)
 .comment       0x00000000       0x27 c:/develop/altera/11.1/nios2eds/bin/gnu/h-i686-mingw32/bin/../lib/gcc/nios2-elf/4.1.2/../../../../nios2-elf/lib\libm.a(lib_a-s_expm1.o)
 .comment       0x00000000       0x27 c:/develop/altera/11.1/nios2eds/bin/gnu/h-i686-mingw32/bin/../lib/gcc/nios2-elf/4.1.2/../../../../nios2-elf/lib\libm.a(lib_a-s_finite.o)
 .comment       0x00000000       0x27 c:/develop/altera/11.1/nios2eds/bin/gnu/h-i686-mingw32/bin/../lib/gcc/nios2-elf/4.1.2/../../../../nios2-elf/lib\libm.a(lib_a-s_isnand.o)
 .comment       0x00000000       0x27 c:/develop/altera/11.1/nios2eds/bin/gnu/h-i686-mingw32/bin/../lib/gcc/nios2-elf/4.1.2/../../../../nios2-elf/lib\libm.a(lib_a-s_lib_ver.o)
 .comment       0x00000000       0x27 c:/develop/altera/11.1/nios2eds/bin/gnu/h-i686-mingw32/bin/../lib/gcc/nios2-elf/4.1.2/../../../../nios2-elf/lib\libm.a(lib_a-s_matherr.o)
 .comment       0x00000000       0x27 c:/develop/altera/11.1/nios2eds/bin/gnu/h-i686-mingw32/bin/../lib/gcc/nios2-elf/4.1.2/../../../../nios2-elf/lib\libm.a(lib_a-s_nan.o)
 .comment       0x00000000       0x27 c:/develop/altera/11.1/nios2eds/bin/gnu/h-i686-mingw32/bin/../lib/gcc/nios2-elf/4.1.2/../../../../nios2-elf/lib\libm.a(lib_a-s_rint.o)
 .comment       0x00000000       0x27 c:/develop/altera/11.1/nios2eds/bin/gnu/h-i686-mingw32/bin/../lib/gcc/nios2-elf/4.1.2\libgcc.a(_fixunsdfsi.o)
 .comment       0x00000000       0x27 c:/develop/altera/11.1/nios2eds/bin/gnu/h-i686-mingw32/bin/../lib/gcc/nios2-elf/4.1.2\libgcc.a(_addsub_df.o)
 .comment       0x00000000       0x27 c:/develop/altera/11.1/nios2eds/bin/gnu/h-i686-mingw32/bin/../lib/gcc/nios2-elf/4.1.2\libgcc.a(_mul_df.o)
 .comment       0x00000000       0x27 c:/develop/altera/11.1/nios2eds/bin/gnu/h-i686-mingw32/bin/../lib/gcc/nios2-elf/4.1.2\libgcc.a(_div_df.o)
 .comment       0x00000000       0x27 c:/develop/altera/11.1/nios2eds/bin/gnu/h-i686-mingw32/bin/../lib/gcc/nios2-elf/4.1.2\libgcc.a(_eq_df.o)
 .comment       0x00000000       0x27 c:/develop/altera/11.1/nios2eds/bin/gnu/h-i686-mingw32/bin/../lib/gcc/nios2-elf/4.1.2\libgcc.a(_ne_df.o)
 .comment       0x00000000       0x27 c:/develop/altera/11.1/nios2eds/bin/gnu/h-i686-mingw32/bin/../lib/gcc/nios2-elf/4.1.2\libgcc.a(_gt_df.o)
 .comment       0x00000000       0x27 c:/develop/altera/11.1/nios2eds/bin/gnu/h-i686-mingw32/bin/../lib/gcc/nios2-elf/4.1.2\libgcc.a(_ge_df.o)
 .comment       0x00000000       0x27 c:/develop/altera/11.1/nios2eds/bin/gnu/h-i686-mingw32/bin/../lib/gcc/nios2-elf/4.1.2\libgcc.a(_lt_df.o)
 .comment       0x00000000       0x27 c:/develop/altera/11.1/nios2eds/bin/gnu/h-i686-mingw32/bin/../lib/gcc/nios2-elf/4.1.2\libgcc.a(_le_df.o)
 .comment       0x00000000       0x27 c:/develop/altera/11.1/nios2eds/bin/gnu/h-i686-mingw32/bin/../lib/gcc/nios2-elf/4.1.2\libgcc.a(_si_to_df.o)
 .comment       0x00000000       0x27 c:/develop/altera/11.1/nios2eds/bin/gnu/h-i686-mingw32/bin/../lib/gcc/nios2-elf/4.1.2\libgcc.a(_df_to_si.o)
 .comment       0x00000000       0x27 c:/develop/altera/11.1/nios2eds/bin/gnu/h-i686-mingw32/bin/../lib/gcc/nios2-elf/4.1.2\libgcc.a(_thenan_df.o)
 .comment       0x00000000       0x27 c:/develop/altera/11.1/nios2eds/bin/gnu/h-i686-mingw32/bin/../lib/gcc/nios2-elf/4.1.2\libgcc.a(_usi_to_df.o)
 .comment       0x00000000       0x27 c:/develop/altera/11.1/nios2eds/bin/gnu/h-i686-mingw32/bin/../lib/gcc/nios2-elf/4.1.2\libgcc.a(lib2-divmod.o)
 .comment       0x00000000       0x27 c:/develop/altera/11.1/nios2eds/bin/gnu/h-i686-mingw32/bin/../lib/gcc/nios2-elf/4.1.2\libgcc.a(_muldi3.o)
 .comment       0x00000000       0x27 c:/develop/altera/11.1/nios2eds/bin/gnu/h-i686-mingw32/bin/../lib/gcc/nios2-elf/4.1.2\libgcc.a(_clzsi2.o)
 .comment       0x00000000       0x27 c:/develop/altera/11.1/nios2eds/bin/gnu/h-i686-mingw32/bin/../lib/gcc/nios2-elf/4.1.2\libgcc.a(_pack_df.o)
 .comment       0x00000000       0x27 c:/develop/altera/11.1/nios2eds/bin/gnu/h-i686-mingw32/bin/../lib/gcc/nios2-elf/4.1.2\libgcc.a(_unpack_df.o)
 .comment       0x00000000       0x27 c:/develop/altera/11.1/nios2eds/bin/gnu/h-i686-mingw32/bin/../lib/gcc/nios2-elf/4.1.2\libgcc.a(_fpcmp_parts_df.o)
 .comment       0x00000000       0x27 c:/develop/altera/11.1/nios2eds/bin/gnu/h-i686-mingw32/bin/../lib/gcc/nios2-elf/4.1.2\libgcc.a(_clz.o)
 .comment       0x00000000       0x27 c:/develop/altera/11.1/nios2eds/bin/gnu/h-i686-mingw32/bin/../lib/gcc/nios2-elf/4.1.2/../../../../nios2-elf/lib\libc.a(lib_a-abort.o)
 .comment       0x00000000       0x27 c:/develop/altera/11.1/nios2eds/bin/gnu/h-i686-mingw32/bin/../lib/gcc/nios2-elf/4.1.2/../../../../nios2-elf/lib\libc.a(lib_a-clock.o)
 .comment       0x00000000       0x27 c:/develop/altera/11.1/nios2eds/bin/gnu/h-i686-mingw32/bin/../lib/gcc/nios2-elf/4.1.2/../../../../nios2-elf/lib\libc.a(lib_a-ctype_.o)
 .comment       0x00000000       0x27 c:/develop/altera/11.1/nios2eds/bin/gnu/h-i686-mingw32/bin/../lib/gcc/nios2-elf/4.1.2/../../../../nios2-elf/lib\libc.a(lib_a-difftime.o)
 .comment       0x00000000       0x27 c:/develop/altera/11.1/nios2eds/bin/gnu/h-i686-mingw32/bin/../lib/gcc/nios2-elf/4.1.2/../../../../nios2-elf/lib\libc.a(lib_a-errno.o)
 .comment       0x00000000       0x27 c:/develop/altera/11.1/nios2eds/bin/gnu/h-i686-mingw32/bin/../lib/gcc/nios2-elf/4.1.2/../../../../nios2-elf/lib\libc.a(lib_a-exit.o)
 .comment       0x00000000       0x27 c:/develop/altera/11.1/nios2eds/bin/gnu/h-i686-mingw32/bin/../lib/gcc/nios2-elf/4.1.2/../../../../nios2-elf/lib\libc.a(lib_a-fclose.o)
 .comment       0x00000000       0x27 c:/develop/altera/11.1/nios2eds/bin/gnu/h-i686-mingw32/bin/../lib/gcc/nios2-elf/4.1.2/../../../../nios2-elf/lib\libc.a(lib_a-fflush.o)
 .comment       0x00000000       0x27 c:/develop/altera/11.1/nios2eds/bin/gnu/h-i686-mingw32/bin/../lib/gcc/nios2-elf/4.1.2/../../../../nios2-elf/lib\libc.a(lib_a-fgets.o)
 .comment       0x00000000       0x27 c:/develop/altera/11.1/nios2eds/bin/gnu/h-i686-mingw32/bin/../lib/gcc/nios2-elf/4.1.2/../../../../nios2-elf/lib\libc.a(lib_a-findfp.o)
 .comment       0x00000000       0x27 c:/develop/altera/11.1/nios2eds/bin/gnu/h-i686-mingw32/bin/../lib/gcc/nios2-elf/4.1.2/../../../../nios2-elf/lib\libc.a(lib_a-fopen.o)
 .comment       0x00000000       0x27 c:/develop/altera/11.1/nios2eds/bin/gnu/h-i686-mingw32/bin/../lib/gcc/nios2-elf/4.1.2/../../../../nios2-elf/lib\libc.a(lib_a-fprintf.o)
 .comment       0x00000000       0x27 c:/develop/altera/11.1/nios2eds/bin/gnu/h-i686-mingw32/bin/../lib/gcc/nios2-elf/4.1.2/../../../../nios2-elf/lib\libc.a(lib_a-fread.o)
 .comment       0x00000000       0x27 c:/develop/altera/11.1/nios2eds/bin/gnu/h-i686-mingw32/bin/../lib/gcc/nios2-elf/4.1.2/../../../../nios2-elf/lib\libc.a(lib_a-freer.o)
 .comment       0x00000000       0x27 c:/develop/altera/11.1/nios2eds/bin/gnu/h-i686-mingw32/bin/../lib/gcc/nios2-elf/4.1.2/../../../../nios2-elf/lib\libc.a(lib_a-freopen.o)
 .comment       0x00000000       0x27 c:/develop/altera/11.1/nios2eds/bin/gnu/h-i686-mingw32/bin/../lib/gcc/nios2-elf/4.1.2/../../../../nios2-elf/lib\libc.a(lib_a-fscanf.o)
 .comment       0x00000000       0x27 c:/develop/altera/11.1/nios2eds/bin/gnu/h-i686-mingw32/bin/../lib/gcc/nios2-elf/4.1.2/../../../../nios2-elf/lib\libc.a(lib_a-fseek.o)
 .comment       0x00000000       0x27 c:/develop/altera/11.1/nios2eds/bin/gnu/h-i686-mingw32/bin/../lib/gcc/nios2-elf/4.1.2/../../../../nios2-elf/lib\libc.a(lib_a-fstatr.o)
 .comment       0x00000000       0x27 c:/develop/altera/11.1/nios2eds/bin/gnu/h-i686-mingw32/bin/../lib/gcc/nios2-elf/4.1.2/../../../../nios2-elf/lib\libc.a(lib_a-ftell.o)
 .comment       0x00000000       0x27 c:/develop/altera/11.1/nios2eds/bin/gnu/h-i686-mingw32/bin/../lib/gcc/nios2-elf/4.1.2/../../../../nios2-elf/lib\libc.a(lib_a-fwalk.o)
 .comment       0x00000000       0x27 c:/develop/altera/11.1/nios2eds/bin/gnu/h-i686-mingw32/bin/../lib/gcc/nios2-elf/4.1.2/../../../../nios2-elf/lib\libc.a(lib_a-fwrite.o)
 .comment       0x00000000       0x27 c:/develop/altera/11.1/nios2eds/bin/gnu/h-i686-mingw32/bin/../lib/gcc/nios2-elf/4.1.2/../../../../nios2-elf/lib\libc.a(lib_a-getc.o)
 .comment       0x00000000       0x27 c:/develop/altera/11.1/nios2eds/bin/gnu/h-i686-mingw32/bin/../lib/gcc/nios2-elf/4.1.2/../../../../nios2-elf/lib\libc.a(lib_a-getenv.o)
 .comment       0x00000000       0x27 c:/develop/altera/11.1/nios2eds/bin/gnu/h-i686-mingw32/bin/../lib/gcc/nios2-elf/4.1.2/../../../../nios2-elf/lib\libc.a(lib_a-getenv_r.o)
 .comment       0x00000000       0x27 c:/develop/altera/11.1/nios2eds/bin/gnu/h-i686-mingw32/bin/../lib/gcc/nios2-elf/4.1.2/../../../../nios2-elf/lib\libc.a(lib_a-gmtime.o)
 .comment       0x00000000       0x27 c:/develop/altera/11.1/nios2eds/bin/gnu/h-i686-mingw32/bin/../lib/gcc/nios2-elf/4.1.2/../../../../nios2-elf/lib\libc.a(lib_a-gmtime_r.o)
 .comment       0x00000000       0x27 c:/develop/altera/11.1/nios2eds/bin/gnu/h-i686-mingw32/bin/../lib/gcc/nios2-elf/4.1.2/../../../../nios2-elf/lib\libc.a(lib_a-impure.o)
 .comment       0x00000000       0x27 c:/develop/altera/11.1/nios2eds/bin/gnu/h-i686-mingw32/bin/../lib/gcc/nios2-elf/4.1.2/../../../../nios2-elf/lib\libc.a(lib_a-int_errno.o)
 .comment       0x00000000       0x27 c:/develop/altera/11.1/nios2eds/bin/gnu/h-i686-mingw32/bin/../lib/gcc/nios2-elf/4.1.2/../../../../nios2-elf/lib\libc.a(lib_a-lcltime.o)
 .comment       0x00000000       0x27 c:/develop/altera/11.1/nios2eds/bin/gnu/h-i686-mingw32/bin/../lib/gcc/nios2-elf/4.1.2/../../../../nios2-elf/lib\libc.a(lib_a-lcltime_r.o)
 .comment       0x00000000       0x27 c:/develop/altera/11.1/nios2eds/bin/gnu/h-i686-mingw32/bin/../lib/gcc/nios2-elf/4.1.2/../../../../nios2-elf/lib\libc.a(lib_a-locale.o)
 .comment       0x00000000       0x27 c:/develop/altera/11.1/nios2eds/bin/gnu/h-i686-mingw32/bin/../lib/gcc/nios2-elf/4.1.2/../../../../nios2-elf/lib\libc.a(lib_a-makebuf.o)
 .comment       0x00000000       0x27 c:/develop/altera/11.1/nios2eds/bin/gnu/h-i686-mingw32/bin/../lib/gcc/nios2-elf/4.1.2/../../../../nios2-elf/lib\libc.a(lib_a-malloc.o)
 .comment       0x00000000       0x27 c:/develop/altera/11.1/nios2eds/bin/gnu/h-i686-mingw32/bin/../lib/gcc/nios2-elf/4.1.2/../../../../nios2-elf/lib\libc.a(lib_a-mallocr.o)
 .comment       0x00000000       0x27 c:/develop/altera/11.1/nios2eds/bin/gnu/h-i686-mingw32/bin/../lib/gcc/nios2-elf/4.1.2/../../../../nios2-elf/lib\libc.a(lib_a-memchr.o)
 .comment       0x00000000       0x27 c:/develop/altera/11.1/nios2eds/bin/gnu/h-i686-mingw32/bin/../lib/gcc/nios2-elf/4.1.2/../../../../nios2-elf/lib\libc.a(lib_a-memcmp.o)
 .comment       0x00000000       0x27 c:/develop/altera/11.1/nios2eds/bin/gnu/h-i686-mingw32/bin/../lib/gcc/nios2-elf/4.1.2/../../../../nios2-elf/lib\libc.a(lib_a-memcpy.o)
 .comment       0x00000000       0x27 c:/develop/altera/11.1/nios2eds/bin/gnu/h-i686-mingw32/bin/../lib/gcc/nios2-elf/4.1.2/../../../../nios2-elf/lib\libc.a(lib_a-memset.o)
 .comment       0x00000000       0x27 c:/develop/altera/11.1/nios2eds/bin/gnu/h-i686-mingw32/bin/../lib/gcc/nios2-elf/4.1.2/../../../../nios2-elf/lib\libc.a(lib_a-mktime.o)
 .comment       0x00000000       0x27 c:/develop/altera/11.1/nios2eds/bin/gnu/h-i686-mingw32/bin/../lib/gcc/nios2-elf/4.1.2/../../../../nios2-elf/lib\libc.a(lib_a-mktm_r.o)
 .comment       0x00000000       0x27 c:/develop/altera/11.1/nios2eds/bin/gnu/h-i686-mingw32/bin/../lib/gcc/nios2-elf/4.1.2/../../../../nios2-elf/lib\libc.a(lib_a-openr.o)
 .comment       0x00000000       0x27 c:/develop/altera/11.1/nios2eds/bin/gnu/h-i686-mingw32/bin/../lib/gcc/nios2-elf/4.1.2/../../../../nios2-elf/lib\libc.a(lib_a-printf.o)
 .comment       0x00000000       0x27 c:/develop/altera/11.1/nios2eds/bin/gnu/h-i686-mingw32/bin/../lib/gcc/nios2-elf/4.1.2/../../../../nios2-elf/lib\libc.a(lib_a-putchar.o)
 .comment       0x00000000       0x27 c:/develop/altera/11.1/nios2eds/bin/gnu/h-i686-mingw32/bin/../lib/gcc/nios2-elf/4.1.2/../../../../nios2-elf/lib\libc.a(lib_a-puts.o)
 .comment       0x00000000       0x27 c:/develop/altera/11.1/nios2eds/bin/gnu/h-i686-mingw32/bin/../lib/gcc/nios2-elf/4.1.2/../../../../nios2-elf/lib\libc.a(lib_a-rand.o)
 .comment       0x00000000       0x27 c:/develop/altera/11.1/nios2eds/bin/gnu/h-i686-mingw32/bin/../lib/gcc/nios2-elf/4.1.2/../../../../nios2-elf/lib\libc.a(lib_a-realloc.o)
 .comment       0x00000000       0x27 c:/develop/altera/11.1/nios2eds/bin/gnu/h-i686-mingw32/bin/../lib/gcc/nios2-elf/4.1.2/../../../../nios2-elf/lib\libc.a(lib_a-reallocr.o)
 .comment       0x00000000       0x27 c:/develop/altera/11.1/nios2eds/bin/gnu/h-i686-mingw32/bin/../lib/gcc/nios2-elf/4.1.2/../../../../nios2-elf/lib\libc.a(lib_a-refill.o)
 .comment       0x00000000       0x27 c:/develop/altera/11.1/nios2eds/bin/gnu/h-i686-mingw32/bin/../lib/gcc/nios2-elf/4.1.2/../../../../nios2-elf/lib\libc.a(lib_a-rget.o)
 .comment       0x00000000       0x27 c:/develop/altera/11.1/nios2eds/bin/gnu/h-i686-mingw32/bin/../lib/gcc/nios2-elf/4.1.2/../../../../nios2-elf/lib\libc.a(lib_a-sbrkr.o)
 .comment       0x00000000       0x27 c:/develop/altera/11.1/nios2eds/bin/gnu/h-i686-mingw32/bin/../lib/gcc/nios2-elf/4.1.2/../../../../nios2-elf/lib\libc.a(lib_a-setvbuf.o)
 .comment       0x00000000       0x27 c:/develop/altera/11.1/nios2eds/bin/gnu/h-i686-mingw32/bin/../lib/gcc/nios2-elf/4.1.2/../../../../nios2-elf/lib\libc.a(lib_a-signal.o)
 .comment       0x00000000       0x27 c:/develop/altera/11.1/nios2eds/bin/gnu/h-i686-mingw32/bin/../lib/gcc/nios2-elf/4.1.2/../../../../nios2-elf/lib\libc.a(lib_a-signalr.o)
 .comment       0x00000000       0x27 c:/develop/altera/11.1/nios2eds/bin/gnu/h-i686-mingw32/bin/../lib/gcc/nios2-elf/4.1.2/../../../../nios2-elf/lib\libc.a(lib_a-sprintf.o)
 .comment       0x00000000       0x27 c:/develop/altera/11.1/nios2eds/bin/gnu/h-i686-mingw32/bin/../lib/gcc/nios2-elf/4.1.2/../../../../nios2-elf/lib\libc.a(lib_a-stdio.o)
 .comment       0x00000000       0x27 c:/develop/altera/11.1/nios2eds/bin/gnu/h-i686-mingw32/bin/../lib/gcc/nios2-elf/4.1.2/../../../../nios2-elf/lib\libc.a(lib_a-strchr.o)
 .comment       0x00000000       0x27 c:/develop/altera/11.1/nios2eds/bin/gnu/h-i686-mingw32/bin/../lib/gcc/nios2-elf/4.1.2/../../../../nios2-elf/lib\libc.a(lib_a-strcmp.o)
 .comment       0x00000000       0x27 c:/develop/altera/11.1/nios2eds/bin/gnu/h-i686-mingw32/bin/../lib/gcc/nios2-elf/4.1.2/../../../../nios2-elf/lib\libc.a(lib_a-strcoll.o)
 .comment       0x00000000       0x27 c:/develop/altera/11.1/nios2eds/bin/gnu/h-i686-mingw32/bin/../lib/gcc/nios2-elf/4.1.2/../../../../nios2-elf/lib\libc.a(lib_a-strcpy.o)
 .comment       0x00000000       0x27 c:/develop/altera/11.1/nios2eds/bin/gnu/h-i686-mingw32/bin/../lib/gcc/nios2-elf/4.1.2/../../../../nios2-elf/lib\libc.a(lib_a-strerror.o)
 .comment       0x00000000       0x27 c:/develop/altera/11.1/nios2eds/bin/gnu/h-i686-mingw32/bin/../lib/gcc/nios2-elf/4.1.2/../../../../nios2-elf/lib\libc.a(lib_a-strftime.o)
 .comment       0x00000000       0x27 c:/develop/altera/11.1/nios2eds/bin/gnu/h-i686-mingw32/bin/../lib/gcc/nios2-elf/4.1.2/../../../../nios2-elf/lib\libc.a(lib_a-strlen.o)
 .comment       0x00000000       0x27 c:/develop/altera/11.1/nios2eds/bin/gnu/h-i686-mingw32/bin/../lib/gcc/nios2-elf/4.1.2/../../../../nios2-elf/lib\libc.a(lib_a-strncmp.o)
 .comment       0x00000000       0x27 c:/develop/altera/11.1/nios2eds/bin/gnu/h-i686-mingw32/bin/../lib/gcc/nios2-elf/4.1.2/../../../../nios2-elf/lib\libc.a(lib_a-strpbrk.o)
 .comment       0x00000000       0x27 c:/develop/altera/11.1/nios2eds/bin/gnu/h-i686-mingw32/bin/../lib/gcc/nios2-elf/4.1.2/../../../../nios2-elf/lib\libc.a(lib_a-strspn.o)
 .comment       0x00000000       0x27 c:/develop/altera/11.1/nios2eds/bin/gnu/h-i686-mingw32/bin/../lib/gcc/nios2-elf/4.1.2/../../../../nios2-elf/lib\libc.a(lib_a-strstr.o)
 .comment       0x00000000       0x27 c:/develop/altera/11.1/nios2eds/bin/gnu/h-i686-mingw32/bin/../lib/gcc/nios2-elf/4.1.2/../../../../nios2-elf/lib\libc.a(lib_a-strtod.o)
 .comment       0x00000000       0x27 c:/develop/altera/11.1/nios2eds/bin/gnu/h-i686-mingw32/bin/../lib/gcc/nios2-elf/4.1.2/../../../../nios2-elf/lib\libc.a(lib_a-time.o)
 .comment       0x00000000       0x27 c:/develop/altera/11.1/nios2eds/bin/gnu/h-i686-mingw32/bin/../lib/gcc/nios2-elf/4.1.2/../../../../nios2-elf/lib\libc.a(lib_a-timesr.o)
 .comment       0x00000000       0x27 c:/develop/altera/11.1/nios2eds/bin/gnu/h-i686-mingw32/bin/../lib/gcc/nios2-elf/4.1.2/../../../../nios2-elf/lib\libc.a(lib_a-tmpnam.o)
 .comment       0x00000000       0x27 c:/develop/altera/11.1/nios2eds/bin/gnu/h-i686-mingw32/bin/../lib/gcc/nios2-elf/4.1.2/../../../../nios2-elf/lib\libc.a(lib_a-tzlock.o)
 .comment       0x00000000       0x27 c:/develop/altera/11.1/nios2eds/bin/gnu/h-i686-mingw32/bin/../lib/gcc/nios2-elf/4.1.2/../../../../nios2-elf/lib\libc.a(lib_a-tzvars.o)
 .comment       0x00000000       0x27 c:/develop/altera/11.1/nios2eds/bin/gnu/h-i686-mingw32/bin/../lib/gcc/nios2-elf/4.1.2/../../../../nios2-elf/lib\libc.a(lib_a-u_strerr.o)
 .comment       0x00000000       0x27 c:/develop/altera/11.1/nios2eds/bin/gnu/h-i686-mingw32/bin/../lib/gcc/nios2-elf/4.1.2/../../../../nios2-elf/lib\libc.a(lib_a-ungetc.o)
 .comment       0x00000000       0x27 c:/develop/altera/11.1/nios2eds/bin/gnu/h-i686-mingw32/bin/../lib/gcc/nios2-elf/4.1.2/../../../../nios2-elf/lib\libc.a(lib_a-vfprintf.o)
 .comment       0x00000000       0x27 c:/develop/altera/11.1/nios2eds/bin/gnu/h-i686-mingw32/bin/../lib/gcc/nios2-elf/4.1.2/../../../../nios2-elf/lib\libc.a(lib_a-vfscanf.o)
 .comment       0x00000000       0x27 c:/develop/altera/11.1/nios2eds/bin/gnu/h-i686-mingw32/bin/../lib/gcc/nios2-elf/4.1.2/../../../../nios2-elf/lib\libc.a(lib_a-writer.o)
 .comment       0x00000000       0x27 c:/develop/altera/11.1/nios2eds/bin/gnu/h-i686-mingw32/bin/../lib/gcc/nios2-elf/4.1.2/../../../../nios2-elf/lib\libc.a(lib_a-wsetup.o)
 .comment       0x00000000       0x27 c:/develop/altera/11.1/nios2eds/bin/gnu/h-i686-mingw32/bin/../lib/gcc/nios2-elf/4.1.2/../../../../nios2-elf/lib\libc.a(lib_a-__call_atexit.o)
 .comment       0x00000000       0x27 c:/develop/altera/11.1/nios2eds/bin/gnu/h-i686-mingw32/bin/../lib/gcc/nios2-elf/4.1.2/../../../../nios2-elf/lib\libc.a(lib_a-abs.o)
 .comment       0x00000000       0x27 c:/develop/altera/11.1/nios2eds/bin/gnu/h-i686-mingw32/bin/../lib/gcc/nios2-elf/4.1.2/../../../../nios2-elf/lib\libc.a(lib_a-closer.o)
 .comment       0x00000000       0x27 c:/develop/altera/11.1/nios2eds/bin/gnu/h-i686-mingw32/bin/../lib/gcc/nios2-elf/4.1.2/../../../../nios2-elf/lib\libc.a(lib_a-div.o)
 .comment       0x00000000       0x27 c:/develop/altera/11.1/nios2eds/bin/gnu/h-i686-mingw32/bin/../lib/gcc/nios2-elf/4.1.2/../../../../nios2-elf/lib\libc.a(lib_a-dtoa.o)
 .comment       0x00000000       0x27 c:/develop/altera/11.1/nios2eds/bin/gnu/h-i686-mingw32/bin/../lib/gcc/nios2-elf/4.1.2/../../../../nios2-elf/lib\libc.a(lib_a-environ.o)
 .comment       0x00000000       0x27 c:/develop/altera/11.1/nios2eds/bin/gnu/h-i686-mingw32/bin/../lib/gcc/nios2-elf/4.1.2/../../../../nios2-elf/lib\libc.a(lib_a-flags.o)
 .comment       0x00000000       0x27 c:/develop/altera/11.1/nios2eds/bin/gnu/h-i686-mingw32/bin/../lib/gcc/nios2-elf/4.1.2/../../../../nios2-elf/lib\libc.a(lib_a-fvwrite.o)
 .comment       0x00000000       0x27 c:/develop/altera/11.1/nios2eds/bin/gnu/h-i686-mingw32/bin/../lib/gcc/nios2-elf/4.1.2/../../../../nios2-elf/lib\libc.a(lib_a-gdtoa-gethex.o)
 .comment       0x00000000       0x27 c:/develop/altera/11.1/nios2eds/bin/gnu/h-i686-mingw32/bin/../lib/gcc/nios2-elf/4.1.2/../../../../nios2-elf/lib\libc.a(lib_a-gdtoa-hexnan.o)
 .comment       0x00000000       0x27 c:/develop/altera/11.1/nios2eds/bin/gnu/h-i686-mingw32/bin/../lib/gcc/nios2-elf/4.1.2/../../../../nios2-elf/lib\libc.a(lib_a-gettimeofdayr.o)
 .comment       0x00000000       0x27 c:/develop/altera/11.1/nios2eds/bin/gnu/h-i686-mingw32/bin/../lib/gcc/nios2-elf/4.1.2/../../../../nios2-elf/lib\libc.a(lib_a-gettzinfo.o)
 .comment       0x00000000       0x27 c:/develop/altera/11.1/nios2eds/bin/gnu/h-i686-mingw32/bin/../lib/gcc/nios2-elf/4.1.2/../../../../nios2-elf/lib\libc.a(lib_a-isattyr.o)
 .comment       0x00000000       0x27 c:/develop/altera/11.1/nios2eds/bin/gnu/h-i686-mingw32/bin/../lib/gcc/nios2-elf/4.1.2/../../../../nios2-elf/lib\libc.a(lib_a-iswspace.o)
 .comment       0x00000000       0x27 c:/develop/altera/11.1/nios2eds/bin/gnu/h-i686-mingw32/bin/../lib/gcc/nios2-elf/4.1.2/../../../../nios2-elf/lib\libc.a(lib_a-labs.o)
 .comment       0x00000000       0x27 c:/develop/altera/11.1/nios2eds/bin/gnu/h-i686-mingw32/bin/../lib/gcc/nios2-elf/4.1.2/../../../../nios2-elf/lib\libc.a(lib_a-lseekr.o)
 .comment       0x00000000       0x27 c:/develop/altera/11.1/nios2eds/bin/gnu/h-i686-mingw32/bin/../lib/gcc/nios2-elf/4.1.2/../../../../nios2-elf/lib\libc.a(lib_a-mbrtowc.o)
 .comment       0x00000000       0x27 c:/develop/altera/11.1/nios2eds/bin/gnu/h-i686-mingw32/bin/../lib/gcc/nios2-elf/4.1.2/../../../../nios2-elf/lib\libc.a(lib_a-mbtowc_r.o)
 .comment       0x00000000       0x27 c:/develop/altera/11.1/nios2eds/bin/gnu/h-i686-mingw32/bin/../lib/gcc/nios2-elf/4.1.2/../../../../nios2-elf/lib\libc.a(lib_a-memmove.o)
 .comment       0x00000000       0x27 c:/develop/altera/11.1/nios2eds/bin/gnu/h-i686-mingw32/bin/../lib/gcc/nios2-elf/4.1.2/../../../../nios2-elf/lib\libc.a(lib_a-mprec.o)
 .comment       0x00000000       0x27 c:/develop/altera/11.1/nios2eds/bin/gnu/h-i686-mingw32/bin/../lib/gcc/nios2-elf/4.1.2/../../../../nios2-elf/lib\libc.a(lib_a-putc.o)
 .comment       0x00000000       0x27 c:/develop/altera/11.1/nios2eds/bin/gnu/h-i686-mingw32/bin/../lib/gcc/nios2-elf/4.1.2/../../../../nios2-elf/lib\libc.a(lib_a-readr.o)
 .comment       0x00000000       0x27 c:/develop/altera/11.1/nios2eds/bin/gnu/h-i686-mingw32/bin/../lib/gcc/nios2-elf/4.1.2/../../../../nios2-elf/lib\libc.a(lib_a-s_isinfd.o)
 .comment       0x00000000       0x27 c:/develop/altera/11.1/nios2eds/bin/gnu/h-i686-mingw32/bin/../lib/gcc/nios2-elf/4.1.2/../../../../nios2-elf/lib\libc.a(lib_a-sccl.o)
 .comment       0x00000000       0x27 c:/develop/altera/11.1/nios2eds/bin/gnu/h-i686-mingw32/bin/../lib/gcc/nios2-elf/4.1.2/../../../../nios2-elf/lib\libc.a(lib_a-sf_nan.o)
 .comment       0x00000000       0x27 c:/develop/altera/11.1/nios2eds/bin/gnu/h-i686-mingw32/bin/../lib/gcc/nios2-elf/4.1.2/../../../../nios2-elf/lib\libc.a(lib_a-snprintf.o)
 .comment       0x00000000       0x27 c:/develop/altera/11.1/nios2eds/bin/gnu/h-i686-mingw32/bin/../lib/gcc/nios2-elf/4.1.2/../../../../nios2-elf/lib\libc.a(lib_a-strtol.o)
 .comment       0x00000000       0x27 c:/develop/altera/11.1/nios2eds/bin/gnu/h-i686-mingw32/bin/../lib/gcc/nios2-elf/4.1.2/../../../../nios2-elf/lib\libc.a(lib_a-strtoll_r.o)
 .comment       0x00000000       0x27 c:/develop/altera/11.1/nios2eds/bin/gnu/h-i686-mingw32/bin/../lib/gcc/nios2-elf/4.1.2/../../../../nios2-elf/lib\libc.a(lib_a-strtoul.o)
 .comment       0x00000000       0x27 c:/develop/altera/11.1/nios2eds/bin/gnu/h-i686-mingw32/bin/../lib/gcc/nios2-elf/4.1.2/../../../../nios2-elf/lib\libc.a(lib_a-strtoull_r.o)
 .comment       0x00000000       0x27 c:/develop/altera/11.1/nios2eds/bin/gnu/h-i686-mingw32/bin/../lib/gcc/nios2-elf/4.1.2/../../../../nios2-elf/lib\libc.a(lib_a-wbuf.o)
 .comment       0x00000000       0x27 c:/develop/altera/11.1/nios2eds/bin/gnu/h-i686-mingw32/bin/../lib/gcc/nios2-elf/4.1.2/../../../../nios2-elf/lib\libc.a(lib_a-callocr.o)
 .comment       0x00000000       0x27 c:/develop/altera/11.1/nios2eds/bin/gnu/h-i686-mingw32/bin/../lib/gcc/nios2-elf/4.1.2\libgcc.a(_udivdi3.o)
 .comment       0x00000000       0x27 c:/develop/altera/11.1/nios2eds/bin/gnu/h-i686-mingw32/bin/../lib/gcc/nios2-elf/4.1.2\libgcc.a(_umoddi3.o)
 .comment       0x00000000       0x27 c:/develop/altera/11.1/nios2eds/bin/gnu/h-i686-mingw32/bin/../lib/gcc/nios2-elf/4.1.2\libgcc.a(_ne_sf.o)
 .comment       0x00000000       0x27 c:/develop/altera/11.1/nios2eds/bin/gnu/h-i686-mingw32/bin/../lib/gcc/nios2-elf/4.1.2\libgcc.a(_gt_sf.o)
 .comment       0x00000000       0x27 c:/develop/altera/11.1/nios2eds/bin/gnu/h-i686-mingw32/bin/../lib/gcc/nios2-elf/4.1.2\libgcc.a(_lt_sf.o)
 .comment       0x00000000       0x27 c:/develop/altera/11.1/nios2eds/bin/gnu/h-i686-mingw32/bin/../lib/gcc/nios2-elf/4.1.2\libgcc.a(_df_to_sf.o)
 .comment       0x00000000       0x27 c:/develop/altera/11.1/nios2eds/bin/gnu/h-i686-mingw32/bin/../lib/gcc/nios2-elf/4.1.2\libgcc.a(_unpack_sf.o)
 .comment       0x00000000       0x27 c:/develop/altera/11.1/nios2eds/bin/gnu/h-i686-mingw32/bin/../lib/gcc/nios2-elf/4.1.2\libgcc.a(_fpcmp_parts_sf.o)
 .comment       0x00000000       0x27 c:/develop/altera/11.1/nios2eds/bin/gnu/h-i686-mingw32/bin/../lib/gcc/nios2-elf/4.1.2\libgcc.a(_make_sf.o)
 .comment       0x00000000       0x27 c:/develop/altera/11.1/nios2eds/bin/gnu/h-i686-mingw32/bin/../lib/gcc/nios2-elf/4.1.2\libgcc.a(_pack_sf.o)
 .comment       0x00000000       0x27 ../Cineraria_DE0_HAL_bsp/\libhal_bsp.a(alt_close.o)
 .comment       0x00000000       0x27 ../Cineraria_DE0_HAL_bsp/\libhal_bsp.a(alt_dev.o)
 .comment       0x00000000       0x27 ../Cineraria_DE0_HAL_bsp/\libhal_bsp.a(alt_env_lock.o)
 .comment       0x00000000       0x27 ../Cineraria_DE0_HAL_bsp/\libhal_bsp.a(alt_errno.o)
 .comment       0x00000000       0x27 ../Cineraria_DE0_HAL_bsp/\libhal_bsp.a(alt_exit.o)
 .comment       0x00000000       0x27 ../Cineraria_DE0_HAL_bsp/\libhal_bsp.a(alt_fs_reg.o)
 .comment       0x00000000       0x27 ../Cineraria_DE0_HAL_bsp/\libhal_bsp.a(alt_fstat.o)
 .comment       0x00000000       0x27 ../Cineraria_DE0_HAL_bsp/\libhal_bsp.a(alt_getpid.o)
 .comment       0x00000000       0x27 ../Cineraria_DE0_HAL_bsp/\libhal_bsp.a(alt_gettod.o)
 .comment       0x00000000       0x27 ../Cineraria_DE0_HAL_bsp/\libhal_bsp.a(alt_isatty.o)
 .comment       0x00000000       0x27 ../Cineraria_DE0_HAL_bsp/\libhal_bsp.a(alt_kill.o)
 .comment       0x00000000       0x27 ../Cineraria_DE0_HAL_bsp/\libhal_bsp.a(alt_lseek.o)
 .comment       0x00000000       0x27 ../Cineraria_DE0_HAL_bsp/\libhal_bsp.a(alt_main.o)
 .comment       0x00000000       0x27 ../Cineraria_DE0_HAL_bsp/\libhal_bsp.a(alt_malloc_lock.o)
 .comment       0x00000000       0x27 ../Cineraria_DE0_HAL_bsp/\libhal_bsp.a(alt_open.o)
 .comment       0x00000000       0x27 ../Cineraria_DE0_HAL_bsp/\libhal_bsp.a(alt_read.o)
 .comment       0x00000000       0x27 ../Cineraria_DE0_HAL_bsp/\libhal_bsp.a(alt_release_fd.o)
 .comment       0x00000000       0x27 ../Cineraria_DE0_HAL_bsp/\libhal_bsp.a(alt_sbrk.o)
 .comment       0x00000000       0x27 ../Cineraria_DE0_HAL_bsp/\libhal_bsp.a(alt_tick.o)
 .comment       0x00000000       0x27 ../Cineraria_DE0_HAL_bsp/\libhal_bsp.a(alt_times.o)
 .comment       0x00000000       0x27 ../Cineraria_DE0_HAL_bsp/\libhal_bsp.a(alt_write.o)
 .comment       0x00000000       0x27 ../Cineraria_DE0_HAL_bsp/\libhal_bsp.a(alt_sys_init.o)
 .comment       0x00000000       0x27 ../Cineraria_DE0_HAL_bsp/\libhal_bsp.a(altera_avalon_cfi_flash.o)
 .comment       0x00000000       0x27 ../Cineraria_DE0_HAL_bsp/\libhal_bsp.a(altera_avalon_cfi_flash_table.o)
 .comment       0x00000000       0x27 ../Cineraria_DE0_HAL_bsp/\libhal_bsp.a(altera_avalon_epcs_flash_controller.o)
 .comment       0x00000000       0x27 ../Cineraria_DE0_HAL_bsp/\libhal_bsp.a(altera_avalon_jtag_uart_fd.o)
 .comment       0x00000000       0x27 ../Cineraria_DE0_HAL_bsp/\libhal_bsp.a(altera_avalon_jtag_uart_init.o)
 .comment       0x00000000       0x27 ../Cineraria_DE0_HAL_bsp/\libhal_bsp.a(altera_avalon_jtag_uart_ioctl.o)
 .comment       0x00000000       0x27 ../Cineraria_DE0_HAL_bsp/\libhal_bsp.a(altera_avalon_jtag_uart_read.o)
 .comment       0x00000000       0x27 ../Cineraria_DE0_HAL_bsp/\libhal_bsp.a(altera_avalon_jtag_uart_write.o)
 .comment       0x00000000       0x27 ../Cineraria_DE0_HAL_bsp/\libhal_bsp.a(altera_avalon_timer_sc.o)
 .comment       0x00000000       0x27 ../Cineraria_DE0_HAL_bsp/\libhal_bsp.a(altera_avalon_uart_fd.o)
 .comment       0x00000000       0x27 ../Cineraria_DE0_HAL_bsp/\libhal_bsp.a(altera_avalon_uart_init.o)
 .comment       0x00000000       0x27 ../Cineraria_DE0_HAL_bsp/\libhal_bsp.a(altera_avalon_uart_read.o)
 .comment       0x00000000       0x27 ../Cineraria_DE0_HAL_bsp/\libhal_bsp.a(altera_avalon_uart_write.o)
 .comment       0x00000000       0x27 ../Cineraria_DE0_HAL_bsp/\libhal_bsp.a(epcs_commands.o)
 .comment       0x00000000       0x27 ../Cineraria_DE0_HAL_bsp/\libhal_bsp.a(alt_alarm_start.o)
 .comment       0x00000000       0x27 ../Cineraria_DE0_HAL_bsp/\libhal_bsp.a(alt_dcache_flush.o)
 .comment       0x00000000       0x27 ../Cineraria_DE0_HAL_bsp/\libhal_bsp.a(alt_dev_llist_insert.o)
 .comment       0x00000000       0x27 ../Cineraria_DE0_HAL_bsp/\libhal_bsp.a(alt_do_ctors.o)
 .comment       0x00000000       0x27 ../Cineraria_DE0_HAL_bsp/\libhal_bsp.a(alt_do_dtors.o)
 .comment       0x00000000       0x27 ../Cineraria_DE0_HAL_bsp/\libhal_bsp.a(alt_find_dev.o)
 .comment       0x00000000       0x27 ../Cineraria_DE0_HAL_bsp/\libhal_bsp.a(alt_find_file.o)
 .comment       0x00000000       0x27 ../Cineraria_DE0_HAL_bsp/\libhal_bsp.a(alt_flash_dev.o)
 .comment       0x00000000       0x27 ../Cineraria_DE0_HAL_bsp/\libhal_bsp.a(alt_get_fd.o)
 .comment       0x00000000       0x27 ../Cineraria_DE0_HAL_bsp/\libhal_bsp.a(alt_iic.o)
 .comment       0x00000000       0x27 ../Cineraria_DE0_HAL_bsp/\libhal_bsp.a(alt_iic_isr_register.o)
 .comment       0x00000000       0x27 ../Cineraria_DE0_HAL_bsp/\libhal_bsp.a(alt_io_redirect.o)
 .comment       0x00000000       0x27 ../Cineraria_DE0_HAL_bsp/\libhal_bsp.a(alt_irq_handler.o)
 .comment       0x00000000       0x27 ../Cineraria_DE0_HAL_bsp/\libhal_bsp.a(alt_irq_vars.o)
 .comment       0x00000000       0x27 ../Cineraria_DE0_HAL_bsp/\libhal_bsp.a(altera_nios2_irq.o)
 .comment       0x00000000       0x27 ../Cineraria_DE0_HAL_bsp/\libhal_bsp.a(altera_avalon_cfi_flash_amd.o)
 .comment       0x00000000       0x27 ../Cineraria_DE0_HAL_bsp/\libhal_bsp.a(altera_avalon_cfi_flash_intel.o)
 .comment       0x00000000       0x27 ../Cineraria_DE0_HAL_bsp/\libhal_bsp.a(altera_avalon_spi.o)
 .comment       0x00000000       0x27 ../Cineraria_DE0_HAL_bsp/\libhal_bsp.a(alt_usleep.o)
 .comment       0x00000000       0x27 ../Cineraria_DE0_HAL_bsp/\libhal_bsp.a(alt_busy_sleep.o)
 .comment       0x00000000       0x27 c:/develop/altera/11.1/nios2eds/bin/gnu/h-i686-mingw32/bin/../lib/gcc/nios2-elf/4.1.2/../../../../nios2-elf/lib\libc.a(lib_a-atexit.o)
 .comment       0x00000000       0x27 c:/develop/altera/11.1/nios2eds/bin/gnu/h-i686-mingw32/bin/../lib/gcc/nios2-elf/4.1.2/../../../../nios2-elf/lib\libc.a(lib_a-__atexit.o)

.debug
 *(.debug)

.line
 *(.line)

.debug_srcinfo
 *(.debug_srcinfo)

.debug_sfnames
 *(.debug_sfnames)

.debug_aranges  0x00000000     0x22b0
 *(.debug_aranges)
 .debug_aranges
                0x00000000       0x20 ../Cineraria_DE0_HAL_bsp//obj/HAL/src/crt0.o
 .debug_aranges
                0x00000020       0x20 obj/default/lua/lapi.o
 .debug_aranges
                0x00000040       0x20 obj/default/lua/lauxlib.o
 .debug_aranges
                0x00000060       0x20 obj/default/lua/lbaselib.o
 .debug_aranges
                0x00000080       0x20 obj/default/lua/lbitlib.o
 .debug_aranges
                0x000000a0       0x20 obj/default/lua/lcode.o
 .debug_aranges
                0x000000c0       0x20 obj/default/lua/lcorolib.o
 .debug_aranges
                0x000000e0       0x20 obj/default/lua/ldblib.o
 .debug_aranges
                0x00000100       0x20 obj/default/lua/ldebug.o
 .debug_aranges
                0x00000120       0x20 obj/default/lua/ldo.o
 .debug_aranges
                0x00000140       0x20 obj/default/lua/ldump.o
 .debug_aranges
                0x00000160       0x20 obj/default/lua/lfunc.o
 .debug_aranges
                0x00000180       0x20 obj/default/lua/lgc.o
 .debug_aranges
                0x000001a0       0x20 obj/default/lua/linit.o
 .debug_aranges
                0x000001c0       0x20 obj/default/lua/liolib.o
 .debug_aranges
                0x000001e0       0x20 obj/default/lua/llex.o
 .debug_aranges
                0x00000200       0x20 obj/default/lua/lmathlib.o
 .debug_aranges
                0x00000220       0x20 obj/default/lua/lmem.o
 .debug_aranges
                0x00000240       0x20 obj/default/lua/loadlib.o
 .debug_aranges
                0x00000260       0x20 obj/default/lua/lobject.o
 .debug_aranges
                0x00000280       0x20 obj/default/lua/loslib.o
 .debug_aranges
                0x000002a0       0x20 obj/default/lua/lparser.o
 .debug_aranges
                0x000002c0       0x20 obj/default/lua/lstate.o
 .debug_aranges
                0x000002e0       0x20 obj/default/lua/lstring.o
 .debug_aranges
                0x00000300       0x20 obj/default/lua/lstrlib.o
 .debug_aranges
                0x00000320       0x20 obj/default/lua/ltable.o
 .debug_aranges
                0x00000340       0x20 obj/default/lua/ltablib.o
 .debug_aranges
                0x00000360       0x20 obj/default/lua/ltm.o
 .debug_aranges
                0x00000380       0x20 obj/default/lua/lundump.o
 .debug_aranges
                0x000003a0       0x20 obj/default/lua/lvm.o
 .debug_aranges
                0x000003c0       0x20 obj/default/lua/lzio.o
 .debug_aranges
                0x000003e0       0x20 obj/default/min.o
 .debug_aranges
                0x00000400       0x20 obj/default/mmcfs/fatfs/ff.o
 .debug_aranges
                0x00000420       0x20 obj/default/mmcfs/fatfs/mmcbb.o
 .debug_aranges
                0x00000440       0x20 obj/default/mmcfs/fatfs/option/cc932.o
 .debug_aranges
                0x00000460       0x20 obj/default/mmcfs/gettime.o
 .debug_aranges
                0x00000480       0x20 obj/default/mmcfs/mmc_spi.o
 .debug_aranges
                0x000004a0       0x20 obj/default/mmcfs/mmcfs.o
 .debug_aranges
                0x000004c0       0x20 c:/develop/altera/11.1/nios2eds/bin/gnu/h-i686-mingw32/bin/../lib/gcc/nios2-elf/4.1.2/../../../../nios2-elf/lib\libm.a(lib_a-s_atan.o)
 .debug_aranges
                0x000004e0       0x20 c:/develop/altera/11.1/nios2eds/bin/gnu/h-i686-mingw32/bin/../lib/gcc/nios2-elf/4.1.2/../../../../nios2-elf/lib\libm.a(lib_a-s_ceil.o)
 .debug_aranges
                0x00000500       0x20 c:/develop/altera/11.1/nios2eds/bin/gnu/h-i686-mingw32/bin/../lib/gcc/nios2-elf/4.1.2/../../../../nios2-elf/lib\libm.a(lib_a-s_cos.o)
 .debug_aranges
                0x00000520       0x20 c:/develop/altera/11.1/nios2eds/bin/gnu/h-i686-mingw32/bin/../lib/gcc/nios2-elf/4.1.2/../../../../nios2-elf/lib\libm.a(lib_a-s_fabs.o)
 .debug_aranges
                0x00000540       0x20 c:/develop/altera/11.1/nios2eds/bin/gnu/h-i686-mingw32/bin/../lib/gcc/nios2-elf/4.1.2/../../../../nios2-elf/lib\libm.a(lib_a-s_floor.o)
 .debug_aranges
                0x00000560       0x20 c:/develop/altera/11.1/nios2eds/bin/gnu/h-i686-mingw32/bin/../lib/gcc/nios2-elf/4.1.2/../../../../nios2-elf/lib\libm.a(lib_a-s_frexp.o)
 .debug_aranges
                0x00000580       0x20 c:/develop/altera/11.1/nios2eds/bin/gnu/h-i686-mingw32/bin/../lib/gcc/nios2-elf/4.1.2/../../../../nios2-elf/lib\libm.a(lib_a-s_ldexp.o)
 .debug_aranges
                0x000005a0       0x20 c:/develop/altera/11.1/nios2eds/bin/gnu/h-i686-mingw32/bin/../lib/gcc/nios2-elf/4.1.2/../../../../nios2-elf/lib\libm.a(lib_a-s_modf.o)
 .debug_aranges
                0x000005c0       0x20 c:/develop/altera/11.1/nios2eds/bin/gnu/h-i686-mingw32/bin/../lib/gcc/nios2-elf/4.1.2/../../../../nios2-elf/lib\libm.a(lib_a-s_scalbn.o)
 .debug_aranges
                0x000005e0       0x20 c:/develop/altera/11.1/nios2eds/bin/gnu/h-i686-mingw32/bin/../lib/gcc/nios2-elf/4.1.2/../../../../nios2-elf/lib\libm.a(lib_a-s_sin.o)
 .debug_aranges
                0x00000600       0x20 c:/develop/altera/11.1/nios2eds/bin/gnu/h-i686-mingw32/bin/../lib/gcc/nios2-elf/4.1.2/../../../../nios2-elf/lib\libm.a(lib_a-s_tan.o)
 .debug_aranges
                0x00000620       0x20 c:/develop/altera/11.1/nios2eds/bin/gnu/h-i686-mingw32/bin/../lib/gcc/nios2-elf/4.1.2/../../../../nios2-elf/lib\libm.a(lib_a-s_tanh.o)
 .debug_aranges
                0x00000640       0x20 c:/develop/altera/11.1/nios2eds/bin/gnu/h-i686-mingw32/bin/../lib/gcc/nios2-elf/4.1.2/../../../../nios2-elf/lib\libm.a(lib_a-w_acos.o)
 .debug_aranges
                0x00000660       0x20 c:/develop/altera/11.1/nios2eds/bin/gnu/h-i686-mingw32/bin/../lib/gcc/nios2-elf/4.1.2/../../../../nios2-elf/lib\libm.a(lib_a-w_asin.o)
 .debug_aranges
                0x00000680       0x20 c:/develop/altera/11.1/nios2eds/bin/gnu/h-i686-mingw32/bin/../lib/gcc/nios2-elf/4.1.2/../../../../nios2-elf/lib\libm.a(lib_a-w_atan2.o)
 .debug_aranges
                0x000006a0       0x20 c:/develop/altera/11.1/nios2eds/bin/gnu/h-i686-mingw32/bin/../lib/gcc/nios2-elf/4.1.2/../../../../nios2-elf/lib\libm.a(lib_a-w_cosh.o)
 .debug_aranges
                0x000006c0       0x20 c:/develop/altera/11.1/nios2eds/bin/gnu/h-i686-mingw32/bin/../lib/gcc/nios2-elf/4.1.2/../../../../nios2-elf/lib\libm.a(lib_a-w_exp.o)
 .debug_aranges
                0x000006e0       0x20 c:/develop/altera/11.1/nios2eds/bin/gnu/h-i686-mingw32/bin/../lib/gcc/nios2-elf/4.1.2/../../../../nios2-elf/lib\libm.a(lib_a-w_fmod.o)
 .debug_aranges
                0x00000700       0x20 c:/develop/altera/11.1/nios2eds/bin/gnu/h-i686-mingw32/bin/../lib/gcc/nios2-elf/4.1.2/../../../../nios2-elf/lib\libm.a(lib_a-w_log.o)
 .debug_aranges
                0x00000720       0x20 c:/develop/altera/11.1/nios2eds/bin/gnu/h-i686-mingw32/bin/../lib/gcc/nios2-elf/4.1.2/../../../../nios2-elf/lib\libm.a(lib_a-w_log10.o)
 .debug_aranges
                0x00000740       0x20 c:/develop/altera/11.1/nios2eds/bin/gnu/h-i686-mingw32/bin/../lib/gcc/nios2-elf/4.1.2/../../../../nios2-elf/lib\libm.a(lib_a-w_pow.o)
 .debug_aranges
                0x00000760       0x20 c:/develop/altera/11.1/nios2eds/bin/gnu/h-i686-mingw32/bin/../lib/gcc/nios2-elf/4.1.2/../../../../nios2-elf/lib\libm.a(lib_a-w_sinh.o)
 .debug_aranges
                0x00000780       0x20 c:/develop/altera/11.1/nios2eds/bin/gnu/h-i686-mingw32/bin/../lib/gcc/nios2-elf/4.1.2/../../../../nios2-elf/lib\libm.a(lib_a-w_sqrt.o)
 .debug_aranges
                0x000007a0       0x20 c:/develop/altera/11.1/nios2eds/bin/gnu/h-i686-mingw32/bin/../lib/gcc/nios2-elf/4.1.2/../../../../nios2-elf/lib\libm.a(lib_a-e_acos.o)
 .debug_aranges
                0x000007c0       0x20 c:/develop/altera/11.1/nios2eds/bin/gnu/h-i686-mingw32/bin/../lib/gcc/nios2-elf/4.1.2/../../../../nios2-elf/lib\libm.a(lib_a-e_asin.o)
 .debug_aranges
                0x000007e0       0x20 c:/develop/altera/11.1/nios2eds/bin/gnu/h-i686-mingw32/bin/../lib/gcc/nios2-elf/4.1.2/../../../../nios2-elf/lib\libm.a(lib_a-e_atan2.o)
 .debug_aranges
                0x00000800       0x20 c:/develop/altera/11.1/nios2eds/bin/gnu/h-i686-mingw32/bin/../lib/gcc/nios2-elf/4.1.2/../../../../nios2-elf/lib\libm.a(lib_a-e_cosh.o)
 .debug_aranges
                0x00000820       0x20 c:/develop/altera/11.1/nios2eds/bin/gnu/h-i686-mingw32/bin/../lib/gcc/nios2-elf/4.1.2/../../../../nios2-elf/lib\libm.a(lib_a-e_exp.o)
 .debug_aranges
                0x00000840       0x20 c:/develop/altera/11.1/nios2eds/bin/gnu/h-i686-mingw32/bin/../lib/gcc/nios2-elf/4.1.2/../../../../nios2-elf/lib\libm.a(lib_a-e_fmod.o)
 .debug_aranges
                0x00000860       0x20 c:/develop/altera/11.1/nios2eds/bin/gnu/h-i686-mingw32/bin/../lib/gcc/nios2-elf/4.1.2/../../../../nios2-elf/lib\libm.a(lib_a-e_log.o)
 .debug_aranges
                0x00000880       0x20 c:/develop/altera/11.1/nios2eds/bin/gnu/h-i686-mingw32/bin/../lib/gcc/nios2-elf/4.1.2/../../../../nios2-elf/lib\libm.a(lib_a-e_log10.o)
 .debug_aranges
                0x000008a0       0x20 c:/develop/altera/11.1/nios2eds/bin/gnu/h-i686-mingw32/bin/../lib/gcc/nios2-elf/4.1.2/../../../../nios2-elf/lib\libm.a(lib_a-e_pow.o)
 .debug_aranges
                0x000008c0       0x20 c:/develop/altera/11.1/nios2eds/bin/gnu/h-i686-mingw32/bin/../lib/gcc/nios2-elf/4.1.2/../../../../nios2-elf/lib\libm.a(lib_a-e_rem_pio2.o)
 .debug_aranges
                0x000008e0       0x20 c:/develop/altera/11.1/nios2eds/bin/gnu/h-i686-mingw32/bin/../lib/gcc/nios2-elf/4.1.2/../../../../nios2-elf/lib\libm.a(lib_a-e_sinh.o)
 .debug_aranges
                0x00000900       0x20 c:/develop/altera/11.1/nios2eds/bin/gnu/h-i686-mingw32/bin/../lib/gcc/nios2-elf/4.1.2/../../../../nios2-elf/lib\libm.a(lib_a-e_sqrt.o)
 .debug_aranges
                0x00000920       0x20 c:/develop/altera/11.1/nios2eds/bin/gnu/h-i686-mingw32/bin/../lib/gcc/nios2-elf/4.1.2/../../../../nios2-elf/lib\libm.a(lib_a-k_cos.o)
 .debug_aranges
                0x00000940       0x20 c:/develop/altera/11.1/nios2eds/bin/gnu/h-i686-mingw32/bin/../lib/gcc/nios2-elf/4.1.2/../../../../nios2-elf/lib\libm.a(lib_a-k_rem_pio2.o)
 .debug_aranges
                0x00000960       0x20 c:/develop/altera/11.1/nios2eds/bin/gnu/h-i686-mingw32/bin/../lib/gcc/nios2-elf/4.1.2/../../../../nios2-elf/lib\libm.a(lib_a-k_sin.o)
 .debug_aranges
                0x00000980       0x20 c:/develop/altera/11.1/nios2eds/bin/gnu/h-i686-mingw32/bin/../lib/gcc/nios2-elf/4.1.2/../../../../nios2-elf/lib\libm.a(lib_a-k_tan.o)
 .debug_aranges
                0x000009a0       0x20 c:/develop/altera/11.1/nios2eds/bin/gnu/h-i686-mingw32/bin/../lib/gcc/nios2-elf/4.1.2/../../../../nios2-elf/lib\libm.a(lib_a-s_copysign.o)
 .debug_aranges
                0x000009c0       0x20 c:/develop/altera/11.1/nios2eds/bin/gnu/h-i686-mingw32/bin/../lib/gcc/nios2-elf/4.1.2/../../../../nios2-elf/lib\libm.a(lib_a-s_expm1.o)
 .debug_aranges
                0x000009e0       0x20 c:/develop/altera/11.1/nios2eds/bin/gnu/h-i686-mingw32/bin/../lib/gcc/nios2-elf/4.1.2/../../../../nios2-elf/lib\libm.a(lib_a-s_finite.o)
 .debug_aranges
                0x00000a00       0x20 c:/develop/altera/11.1/nios2eds/bin/gnu/h-i686-mingw32/bin/../lib/gcc/nios2-elf/4.1.2/../../../../nios2-elf/lib\libm.a(lib_a-s_isnand.o)
 .debug_aranges
                0x00000a20       0x20 c:/develop/altera/11.1/nios2eds/bin/gnu/h-i686-mingw32/bin/../lib/gcc/nios2-elf/4.1.2/../../../../nios2-elf/lib\libm.a(lib_a-s_matherr.o)
 .debug_aranges
                0x00000a40       0x20 c:/develop/altera/11.1/nios2eds/bin/gnu/h-i686-mingw32/bin/../lib/gcc/nios2-elf/4.1.2/../../../../nios2-elf/lib\libm.a(lib_a-s_nan.o)
 .debug_aranges
                0x00000a60       0x20 c:/develop/altera/11.1/nios2eds/bin/gnu/h-i686-mingw32/bin/../lib/gcc/nios2-elf/4.1.2/../../../../nios2-elf/lib\libm.a(lib_a-s_rint.o)
 .debug_aranges
                0x00000a80       0x20 c:/develop/altera/11.1/nios2eds/bin/gnu/h-i686-mingw32/bin/../lib/gcc/nios2-elf/4.1.2\libgcc.a(_fixunsdfsi.o)
 .debug_aranges
                0x00000aa0       0x20 c:/develop/altera/11.1/nios2eds/bin/gnu/h-i686-mingw32/bin/../lib/gcc/nios2-elf/4.1.2\libgcc.a(_addsub_df.o)
 .debug_aranges
                0x00000ac0       0x20 c:/develop/altera/11.1/nios2eds/bin/gnu/h-i686-mingw32/bin/../lib/gcc/nios2-elf/4.1.2\libgcc.a(_mul_df.o)
 .debug_aranges
                0x00000ae0       0x20 c:/develop/altera/11.1/nios2eds/bin/gnu/h-i686-mingw32/bin/../lib/gcc/nios2-elf/4.1.2\libgcc.a(_div_df.o)
 .debug_aranges
                0x00000b00       0x20 c:/develop/altera/11.1/nios2eds/bin/gnu/h-i686-mingw32/bin/../lib/gcc/nios2-elf/4.1.2\libgcc.a(_eq_df.o)
 .debug_aranges
                0x00000b20       0x20 c:/develop/altera/11.1/nios2eds/bin/gnu/h-i686-mingw32/bin/../lib/gcc/nios2-elf/4.1.2\libgcc.a(_ne_df.o)
 .debug_aranges
                0x00000b40       0x20 c:/develop/altera/11.1/nios2eds/bin/gnu/h-i686-mingw32/bin/../lib/gcc/nios2-elf/4.1.2\libgcc.a(_gt_df.o)
 .debug_aranges
                0x00000b60       0x20 c:/develop/altera/11.1/nios2eds/bin/gnu/h-i686-mingw32/bin/../lib/gcc/nios2-elf/4.1.2\libgcc.a(_ge_df.o)
 .debug_aranges
                0x00000b80       0x20 c:/develop/altera/11.1/nios2eds/bin/gnu/h-i686-mingw32/bin/../lib/gcc/nios2-elf/4.1.2\libgcc.a(_lt_df.o)
 .debug_aranges
                0x00000ba0       0x20 c:/develop/altera/11.1/nios2eds/bin/gnu/h-i686-mingw32/bin/../lib/gcc/nios2-elf/4.1.2\libgcc.a(_le_df.o)
 .debug_aranges
                0x00000bc0       0x20 c:/develop/altera/11.1/nios2eds/bin/gnu/h-i686-mingw32/bin/../lib/gcc/nios2-elf/4.1.2\libgcc.a(_si_to_df.o)
 .debug_aranges
                0x00000be0       0x20 c:/develop/altera/11.1/nios2eds/bin/gnu/h-i686-mingw32/bin/../lib/gcc/nios2-elf/4.1.2\libgcc.a(_df_to_si.o)
 .debug_aranges
                0x00000c00       0x20 c:/develop/altera/11.1/nios2eds/bin/gnu/h-i686-mingw32/bin/../lib/gcc/nios2-elf/4.1.2\libgcc.a(_usi_to_df.o)
 .debug_aranges
                0x00000c20       0x20 c:/develop/altera/11.1/nios2eds/bin/gnu/h-i686-mingw32/bin/../lib/gcc/nios2-elf/4.1.2\libgcc.a(lib2-divmod.o)
 .debug_aranges
                0x00000c40       0x20 c:/develop/altera/11.1/nios2eds/bin/gnu/h-i686-mingw32/bin/../lib/gcc/nios2-elf/4.1.2\libgcc.a(_muldi3.o)
 .debug_aranges
                0x00000c60       0x20 c:/develop/altera/11.1/nios2eds/bin/gnu/h-i686-mingw32/bin/../lib/gcc/nios2-elf/4.1.2\libgcc.a(_clzsi2.o)
 .debug_aranges
                0x00000c80       0x20 c:/develop/altera/11.1/nios2eds/bin/gnu/h-i686-mingw32/bin/../lib/gcc/nios2-elf/4.1.2\libgcc.a(_pack_df.o)
 .debug_aranges
                0x00000ca0       0x20 c:/develop/altera/11.1/nios2eds/bin/gnu/h-i686-mingw32/bin/../lib/gcc/nios2-elf/4.1.2\libgcc.a(_unpack_df.o)
 .debug_aranges
                0x00000cc0       0x20 c:/develop/altera/11.1/nios2eds/bin/gnu/h-i686-mingw32/bin/../lib/gcc/nios2-elf/4.1.2\libgcc.a(_fpcmp_parts_df.o)
 .debug_aranges
                0x00000ce0       0x20 c:/develop/altera/11.1/nios2eds/bin/gnu/h-i686-mingw32/bin/../lib/gcc/nios2-elf/4.1.2/../../../../nios2-elf/lib\libc.a(lib_a-abort.o)
 .debug_aranges
                0x00000d00       0x20 c:/develop/altera/11.1/nios2eds/bin/gnu/h-i686-mingw32/bin/../lib/gcc/nios2-elf/4.1.2/../../../../nios2-elf/lib\libc.a(lib_a-clock.o)
 .debug_aranges
                0x00000d20       0x20 c:/develop/altera/11.1/nios2eds/bin/gnu/h-i686-mingw32/bin/../lib/gcc/nios2-elf/4.1.2/../../../../nios2-elf/lib\libc.a(lib_a-difftime.o)
 .debug_aranges
                0x00000d40       0x20 c:/develop/altera/11.1/nios2eds/bin/gnu/h-i686-mingw32/bin/../lib/gcc/nios2-elf/4.1.2/../../../../nios2-elf/lib\libc.a(lib_a-errno.o)
 .debug_aranges
                0x00000d60       0x20 c:/develop/altera/11.1/nios2eds/bin/gnu/h-i686-mingw32/bin/../lib/gcc/nios2-elf/4.1.2/../../../../nios2-elf/lib\libc.a(lib_a-exit.o)
 .debug_aranges
                0x00000d80       0x20 c:/develop/altera/11.1/nios2eds/bin/gnu/h-i686-mingw32/bin/../lib/gcc/nios2-elf/4.1.2/../../../../nios2-elf/lib\libc.a(lib_a-fclose.o)
 .debug_aranges
                0x00000da0       0x20 c:/develop/altera/11.1/nios2eds/bin/gnu/h-i686-mingw32/bin/../lib/gcc/nios2-elf/4.1.2/../../../../nios2-elf/lib\libc.a(lib_a-fflush.o)
 .debug_aranges
                0x00000dc0       0x20 c:/develop/altera/11.1/nios2eds/bin/gnu/h-i686-mingw32/bin/../lib/gcc/nios2-elf/4.1.2/../../../../nios2-elf/lib\libc.a(lib_a-fgets.o)
 .debug_aranges
                0x00000de0       0x20 c:/develop/altera/11.1/nios2eds/bin/gnu/h-i686-mingw32/bin/../lib/gcc/nios2-elf/4.1.2/../../../../nios2-elf/lib\libc.a(lib_a-findfp.o)
 .debug_aranges
                0x00000e00       0x20 c:/develop/altera/11.1/nios2eds/bin/gnu/h-i686-mingw32/bin/../lib/gcc/nios2-elf/4.1.2/../../../../nios2-elf/lib\libc.a(lib_a-fopen.o)
 .debug_aranges
                0x00000e20       0x20 c:/develop/altera/11.1/nios2eds/bin/gnu/h-i686-mingw32/bin/../lib/gcc/nios2-elf/4.1.2/../../../../nios2-elf/lib\libc.a(lib_a-fprintf.o)
 .debug_aranges
                0x00000e40       0x20 c:/develop/altera/11.1/nios2eds/bin/gnu/h-i686-mingw32/bin/../lib/gcc/nios2-elf/4.1.2/../../../../nios2-elf/lib\libc.a(lib_a-fread.o)
 .debug_aranges
                0x00000e60       0x20 c:/develop/altera/11.1/nios2eds/bin/gnu/h-i686-mingw32/bin/../lib/gcc/nios2-elf/4.1.2/../../../../nios2-elf/lib\libc.a(lib_a-freer.o)
 .debug_aranges
                0x00000e80       0x20 c:/develop/altera/11.1/nios2eds/bin/gnu/h-i686-mingw32/bin/../lib/gcc/nios2-elf/4.1.2/../../../../nios2-elf/lib\libc.a(lib_a-freopen.o)
 .debug_aranges
                0x00000ea0       0x20 c:/develop/altera/11.1/nios2eds/bin/gnu/h-i686-mingw32/bin/../lib/gcc/nios2-elf/4.1.2/../../../../nios2-elf/lib\libc.a(lib_a-fscanf.o)
 .debug_aranges
                0x00000ec0       0x20 c:/develop/altera/11.1/nios2eds/bin/gnu/h-i686-mingw32/bin/../lib/gcc/nios2-elf/4.1.2/../../../../nios2-elf/lib\libc.a(lib_a-fseek.o)
 .debug_aranges
                0x00000ee0       0x20 c:/develop/altera/11.1/nios2eds/bin/gnu/h-i686-mingw32/bin/../lib/gcc/nios2-elf/4.1.2/../../../../nios2-elf/lib\libc.a(lib_a-fstatr.o)
 .debug_aranges
                0x00000f00       0x20 c:/develop/altera/11.1/nios2eds/bin/gnu/h-i686-mingw32/bin/../lib/gcc/nios2-elf/4.1.2/../../../../nios2-elf/lib\libc.a(lib_a-ftell.o)
 .debug_aranges
                0x00000f20       0x20 c:/develop/altera/11.1/nios2eds/bin/gnu/h-i686-mingw32/bin/../lib/gcc/nios2-elf/4.1.2/../../../../nios2-elf/lib\libc.a(lib_a-fwalk.o)
 .debug_aranges
                0x00000f40       0x20 c:/develop/altera/11.1/nios2eds/bin/gnu/h-i686-mingw32/bin/../lib/gcc/nios2-elf/4.1.2/../../../../nios2-elf/lib\libc.a(lib_a-fwrite.o)
 .debug_aranges
                0x00000f60       0x20 c:/develop/altera/11.1/nios2eds/bin/gnu/h-i686-mingw32/bin/../lib/gcc/nios2-elf/4.1.2/../../../../nios2-elf/lib\libc.a(lib_a-getc.o)
 .debug_aranges
                0x00000f80       0x20 c:/develop/altera/11.1/nios2eds/bin/gnu/h-i686-mingw32/bin/../lib/gcc/nios2-elf/4.1.2/../../../../nios2-elf/lib\libc.a(lib_a-getenv.o)
 .debug_aranges
                0x00000fa0       0x20 c:/develop/altera/11.1/nios2eds/bin/gnu/h-i686-mingw32/bin/../lib/gcc/nios2-elf/4.1.2/../../../../nios2-elf/lib\libc.a(lib_a-getenv_r.o)
 .debug_aranges
                0x00000fc0       0x20 c:/develop/altera/11.1/nios2eds/bin/gnu/h-i686-mingw32/bin/../lib/gcc/nios2-elf/4.1.2/../../../../nios2-elf/lib\libc.a(lib_a-gmtime.o)
 .debug_aranges
                0x00000fe0       0x20 c:/develop/altera/11.1/nios2eds/bin/gnu/h-i686-mingw32/bin/../lib/gcc/nios2-elf/4.1.2/../../../../nios2-elf/lib\libc.a(lib_a-gmtime_r.o)
 .debug_aranges
                0x00001000       0x20 c:/develop/altera/11.1/nios2eds/bin/gnu/h-i686-mingw32/bin/../lib/gcc/nios2-elf/4.1.2/../../../../nios2-elf/lib\libc.a(lib_a-lcltime.o)
 .debug_aranges
                0x00001020       0x20 c:/develop/altera/11.1/nios2eds/bin/gnu/h-i686-mingw32/bin/../lib/gcc/nios2-elf/4.1.2/../../../../nios2-elf/lib\libc.a(lib_a-lcltime_r.o)
 .debug_aranges
                0x00001040       0x20 c:/develop/altera/11.1/nios2eds/bin/gnu/h-i686-mingw32/bin/../lib/gcc/nios2-elf/4.1.2/../../../../nios2-elf/lib\libc.a(lib_a-locale.o)
 .debug_aranges
                0x00001060       0x20 c:/develop/altera/11.1/nios2eds/bin/gnu/h-i686-mingw32/bin/../lib/gcc/nios2-elf/4.1.2/../../../../nios2-elf/lib\libc.a(lib_a-makebuf.o)
 .debug_aranges
                0x00001080       0x20 c:/develop/altera/11.1/nios2eds/bin/gnu/h-i686-mingw32/bin/../lib/gcc/nios2-elf/4.1.2/../../../../nios2-elf/lib\libc.a(lib_a-malloc.o)
 .debug_aranges
                0x000010a0       0x20 c:/develop/altera/11.1/nios2eds/bin/gnu/h-i686-mingw32/bin/../lib/gcc/nios2-elf/4.1.2/../../../../nios2-elf/lib\libc.a(lib_a-mallocr.o)
 .debug_aranges
                0x000010c0       0x20 c:/develop/altera/11.1/nios2eds/bin/gnu/h-i686-mingw32/bin/../lib/gcc/nios2-elf/4.1.2/../../../../nios2-elf/lib\libc.a(lib_a-memchr.o)
 .debug_aranges
                0x000010e0       0x20 c:/develop/altera/11.1/nios2eds/bin/gnu/h-i686-mingw32/bin/../lib/gcc/nios2-elf/4.1.2/../../../../nios2-elf/lib\libc.a(lib_a-memcmp.o)
 .debug_aranges
                0x00001100       0x20 c:/develop/altera/11.1/nios2eds/bin/gnu/h-i686-mingw32/bin/../lib/gcc/nios2-elf/4.1.2/../../../../nios2-elf/lib\libc.a(lib_a-memcpy.o)
 .debug_aranges
                0x00001120       0x20 c:/develop/altera/11.1/nios2eds/bin/gnu/h-i686-mingw32/bin/../lib/gcc/nios2-elf/4.1.2/../../../../nios2-elf/lib\libc.a(lib_a-memset.o)
 .debug_aranges
                0x00001140       0x20 c:/develop/altera/11.1/nios2eds/bin/gnu/h-i686-mingw32/bin/../lib/gcc/nios2-elf/4.1.2/../../../../nios2-elf/lib\libc.a(lib_a-mktime.o)
 .debug_aranges
                0x00001160       0x20 c:/develop/altera/11.1/nios2eds/bin/gnu/h-i686-mingw32/bin/../lib/gcc/nios2-elf/4.1.2/../../../../nios2-elf/lib\libc.a(lib_a-mktm_r.o)
 .debug_aranges
                0x00001180       0x20 c:/develop/altera/11.1/nios2eds/bin/gnu/h-i686-mingw32/bin/../lib/gcc/nios2-elf/4.1.2/../../../../nios2-elf/lib\libc.a(lib_a-openr.o)
 .debug_aranges
                0x000011a0       0x20 c:/develop/altera/11.1/nios2eds/bin/gnu/h-i686-mingw32/bin/../lib/gcc/nios2-elf/4.1.2/../../../../nios2-elf/lib\libc.a(lib_a-printf.o)
 .debug_aranges
                0x000011c0       0x20 c:/develop/altera/11.1/nios2eds/bin/gnu/h-i686-mingw32/bin/../lib/gcc/nios2-elf/4.1.2/../../../../nios2-elf/lib\libc.a(lib_a-putchar.o)
 .debug_aranges
                0x000011e0       0x20 c:/develop/altera/11.1/nios2eds/bin/gnu/h-i686-mingw32/bin/../lib/gcc/nios2-elf/4.1.2/../../../../nios2-elf/lib\libc.a(lib_a-puts.o)
 .debug_aranges
                0x00001200       0x20 c:/develop/altera/11.1/nios2eds/bin/gnu/h-i686-mingw32/bin/../lib/gcc/nios2-elf/4.1.2/../../../../nios2-elf/lib\libc.a(lib_a-rand.o)
 .debug_aranges
                0x00001220       0x20 c:/develop/altera/11.1/nios2eds/bin/gnu/h-i686-mingw32/bin/../lib/gcc/nios2-elf/4.1.2/../../../../nios2-elf/lib\libc.a(lib_a-realloc.o)
 .debug_aranges
                0x00001240       0x20 c:/develop/altera/11.1/nios2eds/bin/gnu/h-i686-mingw32/bin/../lib/gcc/nios2-elf/4.1.2/../../../../nios2-elf/lib\libc.a(lib_a-reallocr.o)
 .debug_aranges
                0x00001260       0x20 c:/develop/altera/11.1/nios2eds/bin/gnu/h-i686-mingw32/bin/../lib/gcc/nios2-elf/4.1.2/../../../../nios2-elf/lib\libc.a(lib_a-refill.o)
 .debug_aranges
                0x00001280       0x20 c:/develop/altera/11.1/nios2eds/bin/gnu/h-i686-mingw32/bin/../lib/gcc/nios2-elf/4.1.2/../../../../nios2-elf/lib\libc.a(lib_a-rget.o)
 .debug_aranges
                0x000012a0       0x20 c:/develop/altera/11.1/nios2eds/bin/gnu/h-i686-mingw32/bin/../lib/gcc/nios2-elf/4.1.2/../../../../nios2-elf/lib\libc.a(lib_a-sbrkr.o)
 .debug_aranges
                0x000012c0       0x20 c:/develop/altera/11.1/nios2eds/bin/gnu/h-i686-mingw32/bin/../lib/gcc/nios2-elf/4.1.2/../../../../nios2-elf/lib\libc.a(lib_a-setvbuf.o)
 .debug_aranges
                0x000012e0       0x20 c:/develop/altera/11.1/nios2eds/bin/gnu/h-i686-mingw32/bin/../lib/gcc/nios2-elf/4.1.2/../../../../nios2-elf/lib\libc.a(lib_a-signal.o)
 .debug_aranges
                0x00001300       0x20 c:/develop/altera/11.1/nios2eds/bin/gnu/h-i686-mingw32/bin/../lib/gcc/nios2-elf/4.1.2/../../../../nios2-elf/lib\libc.a(lib_a-signalr.o)
 .debug_aranges
                0x00001320       0x20 c:/develop/altera/11.1/nios2eds/bin/gnu/h-i686-mingw32/bin/../lib/gcc/nios2-elf/4.1.2/../../../../nios2-elf/lib\libc.a(lib_a-sprintf.o)
 .debug_aranges
                0x00001340       0x20 c:/develop/altera/11.1/nios2eds/bin/gnu/h-i686-mingw32/bin/../lib/gcc/nios2-elf/4.1.2/../../../../nios2-elf/lib\libc.a(lib_a-stdio.o)
 .debug_aranges
                0x00001360       0x20 c:/develop/altera/11.1/nios2eds/bin/gnu/h-i686-mingw32/bin/../lib/gcc/nios2-elf/4.1.2/../../../../nios2-elf/lib\libc.a(lib_a-strchr.o)
 .debug_aranges
                0x00001380       0x20 c:/develop/altera/11.1/nios2eds/bin/gnu/h-i686-mingw32/bin/../lib/gcc/nios2-elf/4.1.2/../../../../nios2-elf/lib\libc.a(lib_a-strcmp.o)
 .debug_aranges
                0x000013a0       0x20 c:/develop/altera/11.1/nios2eds/bin/gnu/h-i686-mingw32/bin/../lib/gcc/nios2-elf/4.1.2/../../../../nios2-elf/lib\libc.a(lib_a-strcoll.o)
 .debug_aranges
                0x000013c0       0x20 c:/develop/altera/11.1/nios2eds/bin/gnu/h-i686-mingw32/bin/../lib/gcc/nios2-elf/4.1.2/../../../../nios2-elf/lib\libc.a(lib_a-strcpy.o)
 .debug_aranges
                0x000013e0       0x20 c:/develop/altera/11.1/nios2eds/bin/gnu/h-i686-mingw32/bin/../lib/gcc/nios2-elf/4.1.2/../../../../nios2-elf/lib\libc.a(lib_a-strerror.o)
 .debug_aranges
                0x00001400       0x20 c:/develop/altera/11.1/nios2eds/bin/gnu/h-i686-mingw32/bin/../lib/gcc/nios2-elf/4.1.2/../../../../nios2-elf/lib\libc.a(lib_a-strftime.o)
 .debug_aranges
                0x00001420       0x20 c:/develop/altera/11.1/nios2eds/bin/gnu/h-i686-mingw32/bin/../lib/gcc/nios2-elf/4.1.2/../../../../nios2-elf/lib\libc.a(lib_a-strlen.o)
 .debug_aranges
                0x00001440       0x20 c:/develop/altera/11.1/nios2eds/bin/gnu/h-i686-mingw32/bin/../lib/gcc/nios2-elf/4.1.2/../../../../nios2-elf/lib\libc.a(lib_a-strncmp.o)
 .debug_aranges
                0x00001460       0x20 c:/develop/altera/11.1/nios2eds/bin/gnu/h-i686-mingw32/bin/../lib/gcc/nios2-elf/4.1.2/../../../../nios2-elf/lib\libc.a(lib_a-strpbrk.o)
 .debug_aranges
                0x00001480       0x20 c:/develop/altera/11.1/nios2eds/bin/gnu/h-i686-mingw32/bin/../lib/gcc/nios2-elf/4.1.2/../../../../nios2-elf/lib\libc.a(lib_a-strspn.o)
 .debug_aranges
                0x000014a0       0x20 c:/develop/altera/11.1/nios2eds/bin/gnu/h-i686-mingw32/bin/../lib/gcc/nios2-elf/4.1.2/../../../../nios2-elf/lib\libc.a(lib_a-strstr.o)
 .debug_aranges
                0x000014c0       0x20 c:/develop/altera/11.1/nios2eds/bin/gnu/h-i686-mingw32/bin/../lib/gcc/nios2-elf/4.1.2/../../../../nios2-elf/lib\libc.a(lib_a-strtod.o)
 .debug_aranges
                0x000014e0       0x20 c:/develop/altera/11.1/nios2eds/bin/gnu/h-i686-mingw32/bin/../lib/gcc/nios2-elf/4.1.2/../../../../nios2-elf/lib\libc.a(lib_a-time.o)
 .debug_aranges
                0x00001500       0x20 c:/develop/altera/11.1/nios2eds/bin/gnu/h-i686-mingw32/bin/../lib/gcc/nios2-elf/4.1.2/../../../../nios2-elf/lib\libc.a(lib_a-timesr.o)
 .debug_aranges
                0x00001520       0x20 c:/develop/altera/11.1/nios2eds/bin/gnu/h-i686-mingw32/bin/../lib/gcc/nios2-elf/4.1.2/../../../../nios2-elf/lib\libc.a(lib_a-tmpnam.o)
 .debug_aranges
                0x00001540       0x20 c:/develop/altera/11.1/nios2eds/bin/gnu/h-i686-mingw32/bin/../lib/gcc/nios2-elf/4.1.2/../../../../nios2-elf/lib\libc.a(lib_a-tzlock.o)
 .debug_aranges
                0x00001560       0x20 c:/develop/altera/11.1/nios2eds/bin/gnu/h-i686-mingw32/bin/../lib/gcc/nios2-elf/4.1.2/../../../../nios2-elf/lib\libc.a(lib_a-u_strerr.o)
 .debug_aranges
                0x00001580       0x20 c:/develop/altera/11.1/nios2eds/bin/gnu/h-i686-mingw32/bin/../lib/gcc/nios2-elf/4.1.2/../../../../nios2-elf/lib\libc.a(lib_a-ungetc.o)
 .debug_aranges
                0x000015a0       0x20 c:/develop/altera/11.1/nios2eds/bin/gnu/h-i686-mingw32/bin/../lib/gcc/nios2-elf/4.1.2/../../../../nios2-elf/lib\libc.a(lib_a-vfprintf.o)
 .debug_aranges
                0x000015c0       0x20 c:/develop/altera/11.1/nios2eds/bin/gnu/h-i686-mingw32/bin/../lib/gcc/nios2-elf/4.1.2/../../../../nios2-elf/lib\libc.a(lib_a-vfscanf.o)
 .debug_aranges
                0x000015e0       0x20 c:/develop/altera/11.1/nios2eds/bin/gnu/h-i686-mingw32/bin/../lib/gcc/nios2-elf/4.1.2/../../../../nios2-elf/lib\libc.a(lib_a-writer.o)
 .debug_aranges
                0x00001600       0x20 c:/develop/altera/11.1/nios2eds/bin/gnu/h-i686-mingw32/bin/../lib/gcc/nios2-elf/4.1.2/../../../../nios2-elf/lib\libc.a(lib_a-wsetup.o)
 .debug_aranges
                0x00001620       0x20 c:/develop/altera/11.1/nios2eds/bin/gnu/h-i686-mingw32/bin/../lib/gcc/nios2-elf/4.1.2/../../../../nios2-elf/lib\libc.a(lib_a-__call_atexit.o)
 .debug_aranges
                0x00001640       0x20 c:/develop/altera/11.1/nios2eds/bin/gnu/h-i686-mingw32/bin/../lib/gcc/nios2-elf/4.1.2/../../../../nios2-elf/lib\libc.a(lib_a-abs.o)
 .debug_aranges
                0x00001660       0x20 c:/develop/altera/11.1/nios2eds/bin/gnu/h-i686-mingw32/bin/../lib/gcc/nios2-elf/4.1.2/../../../../nios2-elf/lib\libc.a(lib_a-closer.o)
 .debug_aranges
                0x00001680       0x20 c:/develop/altera/11.1/nios2eds/bin/gnu/h-i686-mingw32/bin/../lib/gcc/nios2-elf/4.1.2/../../../../nios2-elf/lib\libc.a(lib_a-div.o)
 .debug_aranges
                0x000016a0       0x20 c:/develop/altera/11.1/nios2eds/bin/gnu/h-i686-mingw32/bin/../lib/gcc/nios2-elf/4.1.2/../../../../nios2-elf/lib\libc.a(lib_a-dtoa.o)
 .debug_aranges
                0x000016c0       0x20 c:/develop/altera/11.1/nios2eds/bin/gnu/h-i686-mingw32/bin/../lib/gcc/nios2-elf/4.1.2/../../../../nios2-elf/lib\libc.a(lib_a-flags.o)
 .debug_aranges
                0x000016e0       0x20 c:/develop/altera/11.1/nios2eds/bin/gnu/h-i686-mingw32/bin/../lib/gcc/nios2-elf/4.1.2/../../../../nios2-elf/lib\libc.a(lib_a-fvwrite.o)
 .debug_aranges
                0x00001700       0x20 c:/develop/altera/11.1/nios2eds/bin/gnu/h-i686-mingw32/bin/../lib/gcc/nios2-elf/4.1.2/../../../../nios2-elf/lib\libc.a(lib_a-gdtoa-gethex.o)
 .debug_aranges
                0x00001720       0x20 c:/develop/altera/11.1/nios2eds/bin/gnu/h-i686-mingw32/bin/../lib/gcc/nios2-elf/4.1.2/../../../../nios2-elf/lib\libc.a(lib_a-gdtoa-hexnan.o)
 .debug_aranges
                0x00001740       0x20 c:/develop/altera/11.1/nios2eds/bin/gnu/h-i686-mingw32/bin/../lib/gcc/nios2-elf/4.1.2/../../../../nios2-elf/lib\libc.a(lib_a-gettimeofdayr.o)
 .debug_aranges
                0x00001760       0x20 c:/develop/altera/11.1/nios2eds/bin/gnu/h-i686-mingw32/bin/../lib/gcc/nios2-elf/4.1.2/../../../../nios2-elf/lib\libc.a(lib_a-gettzinfo.o)
 .debug_aranges
                0x00001780       0x20 c:/develop/altera/11.1/nios2eds/bin/gnu/h-i686-mingw32/bin/../lib/gcc/nios2-elf/4.1.2/../../../../nios2-elf/lib\libc.a(lib_a-isattyr.o)
 .debug_aranges
                0x000017a0       0x20 c:/develop/altera/11.1/nios2eds/bin/gnu/h-i686-mingw32/bin/../lib/gcc/nios2-elf/4.1.2/../../../../nios2-elf/lib\libc.a(lib_a-iswspace.o)
 .debug_aranges
                0x000017c0       0x20 c:/develop/altera/11.1/nios2eds/bin/gnu/h-i686-mingw32/bin/../lib/gcc/nios2-elf/4.1.2/../../../../nios2-elf/lib\libc.a(lib_a-labs.o)
 .debug_aranges
                0x000017e0       0x20 c:/develop/altera/11.1/nios2eds/bin/gnu/h-i686-mingw32/bin/../lib/gcc/nios2-elf/4.1.2/../../../../nios2-elf/lib\libc.a(lib_a-lseekr.o)
 .debug_aranges
                0x00001800       0x20 c:/develop/altera/11.1/nios2eds/bin/gnu/h-i686-mingw32/bin/../lib/gcc/nios2-elf/4.1.2/../../../../nios2-elf/lib\libc.a(lib_a-mbrtowc.o)
 .debug_aranges
                0x00001820       0x20 c:/develop/altera/11.1/nios2eds/bin/gnu/h-i686-mingw32/bin/../lib/gcc/nios2-elf/4.1.2/../../../../nios2-elf/lib\libc.a(lib_a-mbtowc_r.o)
 .debug_aranges
                0x00001840       0x20 c:/develop/altera/11.1/nios2eds/bin/gnu/h-i686-mingw32/bin/../lib/gcc/nios2-elf/4.1.2/../../../../nios2-elf/lib\libc.a(lib_a-memmove.o)
 .debug_aranges
                0x00001860       0x20 c:/develop/altera/11.1/nios2eds/bin/gnu/h-i686-mingw32/bin/../lib/gcc/nios2-elf/4.1.2/../../../../nios2-elf/lib\libc.a(lib_a-mprec.o)
 .debug_aranges
                0x00001880       0x20 c:/develop/altera/11.1/nios2eds/bin/gnu/h-i686-mingw32/bin/../lib/gcc/nios2-elf/4.1.2/../../../../nios2-elf/lib\libc.a(lib_a-putc.o)
 .debug_aranges
                0x000018a0       0x20 c:/develop/altera/11.1/nios2eds/bin/gnu/h-i686-mingw32/bin/../lib/gcc/nios2-elf/4.1.2/../../../../nios2-elf/lib\libc.a(lib_a-readr.o)
 .debug_aranges
                0x000018c0       0x20 c:/develop/altera/11.1/nios2eds/bin/gnu/h-i686-mingw32/bin/../lib/gcc/nios2-elf/4.1.2/../../../../nios2-elf/lib\libc.a(lib_a-s_isinfd.o)
 .debug_aranges
                0x000018e0       0x20 c:/develop/altera/11.1/nios2eds/bin/gnu/h-i686-mingw32/bin/../lib/gcc/nios2-elf/4.1.2/../../../../nios2-elf/lib\libc.a(lib_a-sccl.o)
 .debug_aranges
                0x00001900       0x20 c:/develop/altera/11.1/nios2eds/bin/gnu/h-i686-mingw32/bin/../lib/gcc/nios2-elf/4.1.2/../../../../nios2-elf/lib\libc.a(lib_a-sf_nan.o)
 .debug_aranges
                0x00001920       0x20 c:/develop/altera/11.1/nios2eds/bin/gnu/h-i686-mingw32/bin/../lib/gcc/nios2-elf/4.1.2/../../../../nios2-elf/lib\libc.a(lib_a-snprintf.o)
 .debug_aranges
                0x00001940       0x20 c:/develop/altera/11.1/nios2eds/bin/gnu/h-i686-mingw32/bin/../lib/gcc/nios2-elf/4.1.2/../../../../nios2-elf/lib\libc.a(lib_a-strtol.o)
 .debug_aranges
                0x00001960       0x20 c:/develop/altera/11.1/nios2eds/bin/gnu/h-i686-mingw32/bin/../lib/gcc/nios2-elf/4.1.2/../../../../nios2-elf/lib\libc.a(lib_a-strtoll_r.o)
 .debug_aranges
                0x00001980       0x20 c:/develop/altera/11.1/nios2eds/bin/gnu/h-i686-mingw32/bin/../lib/gcc/nios2-elf/4.1.2/../../../../nios2-elf/lib\libc.a(lib_a-strtoul.o)
 .debug_aranges
                0x000019a0       0x20 c:/develop/altera/11.1/nios2eds/bin/gnu/h-i686-mingw32/bin/../lib/gcc/nios2-elf/4.1.2/../../../../nios2-elf/lib\libc.a(lib_a-strtoull_r.o)
 .debug_aranges
                0x000019c0       0x20 c:/develop/altera/11.1/nios2eds/bin/gnu/h-i686-mingw32/bin/../lib/gcc/nios2-elf/4.1.2/../../../../nios2-elf/lib\libc.a(lib_a-wbuf.o)
 .debug_aranges
                0x000019e0       0x20 c:/develop/altera/11.1/nios2eds/bin/gnu/h-i686-mingw32/bin/../lib/gcc/nios2-elf/4.1.2/../../../../nios2-elf/lib\libc.a(lib_a-callocr.o)
 .debug_aranges
                0x00001a00       0x20 c:/develop/altera/11.1/nios2eds/bin/gnu/h-i686-mingw32/bin/../lib/gcc/nios2-elf/4.1.2\libgcc.a(_udivdi3.o)
 .debug_aranges
                0x00001a20       0x20 c:/develop/altera/11.1/nios2eds/bin/gnu/h-i686-mingw32/bin/../lib/gcc/nios2-elf/4.1.2\libgcc.a(_umoddi3.o)
 .debug_aranges
                0x00001a40       0x20 c:/develop/altera/11.1/nios2eds/bin/gnu/h-i686-mingw32/bin/../lib/gcc/nios2-elf/4.1.2\libgcc.a(_ne_sf.o)
 .debug_aranges
                0x00001a60       0x20 c:/develop/altera/11.1/nios2eds/bin/gnu/h-i686-mingw32/bin/../lib/gcc/nios2-elf/4.1.2\libgcc.a(_gt_sf.o)
 .debug_aranges
                0x00001a80       0x20 c:/develop/altera/11.1/nios2eds/bin/gnu/h-i686-mingw32/bin/../lib/gcc/nios2-elf/4.1.2\libgcc.a(_lt_sf.o)
 .debug_aranges
                0x00001aa0       0x20 c:/develop/altera/11.1/nios2eds/bin/gnu/h-i686-mingw32/bin/../lib/gcc/nios2-elf/4.1.2\libgcc.a(_df_to_sf.o)
 .debug_aranges
                0x00001ac0       0x20 c:/develop/altera/11.1/nios2eds/bin/gnu/h-i686-mingw32/bin/../lib/gcc/nios2-elf/4.1.2\libgcc.a(_unpack_sf.o)
 .debug_aranges
                0x00001ae0       0x20 c:/develop/altera/11.1/nios2eds/bin/gnu/h-i686-mingw32/bin/../lib/gcc/nios2-elf/4.1.2\libgcc.a(_fpcmp_parts_sf.o)
 .debug_aranges
                0x00001b00       0x20 c:/develop/altera/11.1/nios2eds/bin/gnu/h-i686-mingw32/bin/../lib/gcc/nios2-elf/4.1.2\libgcc.a(_make_sf.o)
 .debug_aranges
                0x00001b20       0x20 c:/develop/altera/11.1/nios2eds/bin/gnu/h-i686-mingw32/bin/../lib/gcc/nios2-elf/4.1.2\libgcc.a(_pack_sf.o)
 .debug_aranges
                0x00001b40       0x20 ../Cineraria_DE0_HAL_bsp/\libhal_bsp.a(alt_close.o)
 .debug_aranges
                0x00001b60       0x20 ../Cineraria_DE0_HAL_bsp/\libhal_bsp.a(alt_dev.o)
 .debug_aranges
                0x00001b80       0x20 ../Cineraria_DE0_HAL_bsp/\libhal_bsp.a(alt_env_lock.o)
 .debug_aranges
                0x00001ba0       0x20 ../Cineraria_DE0_HAL_bsp/\libhal_bsp.a(alt_exit.o)
 .debug_aranges
                0x00001bc0       0x20 ../Cineraria_DE0_HAL_bsp/\libhal_bsp.a(alt_fs_reg.o)
 .debug_aranges
                0x00001be0       0x20 ../Cineraria_DE0_HAL_bsp/\libhal_bsp.a(alt_fstat.o)
 .debug_aranges
                0x00001c00       0x20 ../Cineraria_DE0_HAL_bsp/\libhal_bsp.a(alt_getpid.o)
 .debug_aranges
                0x00001c20       0x20 ../Cineraria_DE0_HAL_bsp/\libhal_bsp.a(alt_gettod.o)
 .debug_aranges
                0x00001c40       0x20 ../Cineraria_DE0_HAL_bsp/\libhal_bsp.a(alt_isatty.o)
 .debug_aranges
                0x00001c60       0x20 ../Cineraria_DE0_HAL_bsp/\libhal_bsp.a(alt_kill.o)
 .debug_aranges
                0x00001c80       0x20 ../Cineraria_DE0_HAL_bsp/\libhal_bsp.a(alt_lseek.o)
 .debug_aranges
                0x00001ca0       0x20 ../Cineraria_DE0_HAL_bsp/\libhal_bsp.a(alt_main.o)
 .debug_aranges
                0x00001cc0       0x20 ../Cineraria_DE0_HAL_bsp/\libhal_bsp.a(alt_malloc_lock.o)
 .debug_aranges
                0x00001ce0       0x20 ../Cineraria_DE0_HAL_bsp/\libhal_bsp.a(alt_open.o)
 .debug_aranges
                0x00001d00       0x20 ../Cineraria_DE0_HAL_bsp/\libhal_bsp.a(alt_read.o)
 .debug_aranges
                0x00001d20       0x20 ../Cineraria_DE0_HAL_bsp/\libhal_bsp.a(alt_release_fd.o)
 .debug_aranges
                0x00001d40       0x20 ../Cineraria_DE0_HAL_bsp/\libhal_bsp.a(alt_sbrk.o)
 .debug_aranges
                0x00001d60       0x20 ../Cineraria_DE0_HAL_bsp/\libhal_bsp.a(alt_tick.o)
 .debug_aranges
                0x00001d80       0x20 ../Cineraria_DE0_HAL_bsp/\libhal_bsp.a(alt_times.o)
 .debug_aranges
                0x00001da0       0x20 ../Cineraria_DE0_HAL_bsp/\libhal_bsp.a(alt_write.o)
 .debug_aranges
                0x00001dc0       0x20 ../Cineraria_DE0_HAL_bsp/\libhal_bsp.a(alt_sys_init.o)
 .debug_aranges
                0x00001de0       0x20 ../Cineraria_DE0_HAL_bsp/\libhal_bsp.a(altera_avalon_cfi_flash.o)
 .debug_aranges
                0x00001e00       0x20 ../Cineraria_DE0_HAL_bsp/\libhal_bsp.a(altera_avalon_cfi_flash_table.o)
 .debug_aranges
                0x00001e20       0x20 ../Cineraria_DE0_HAL_bsp/\libhal_bsp.a(altera_avalon_epcs_flash_controller.o)
 .debug_aranges
                0x00001e40       0x20 ../Cineraria_DE0_HAL_bsp/\libhal_bsp.a(altera_avalon_jtag_uart_fd.o)
 .debug_aranges
                0x00001e60       0x20 ../Cineraria_DE0_HAL_bsp/\libhal_bsp.a(altera_avalon_jtag_uart_init.o)
 .debug_aranges
                0x00001e80       0x20 ../Cineraria_DE0_HAL_bsp/\libhal_bsp.a(altera_avalon_jtag_uart_ioctl.o)
 .debug_aranges
                0x00001ea0       0x20 ../Cineraria_DE0_HAL_bsp/\libhal_bsp.a(altera_avalon_jtag_uart_read.o)
 .debug_aranges
                0x00001ec0       0x20 ../Cineraria_DE0_HAL_bsp/\libhal_bsp.a(altera_avalon_jtag_uart_write.o)
 .debug_aranges
                0x00001ee0       0x20 ../Cineraria_DE0_HAL_bsp/\libhal_bsp.a(altera_avalon_timer_sc.o)
 .debug_aranges
                0x00001f00       0x20 ../Cineraria_DE0_HAL_bsp/\libhal_bsp.a(altera_avalon_uart_fd.o)
 .debug_aranges
                0x00001f20       0x20 ../Cineraria_DE0_HAL_bsp/\libhal_bsp.a(altera_avalon_uart_init.o)
 .debug_aranges
                0x00001f40       0x20 ../Cineraria_DE0_HAL_bsp/\libhal_bsp.a(altera_avalon_uart_read.o)
 .debug_aranges
                0x00001f60       0x20 ../Cineraria_DE0_HAL_bsp/\libhal_bsp.a(altera_avalon_uart_write.o)
 .debug_aranges
                0x00001f80       0x20 ../Cineraria_DE0_HAL_bsp/\libhal_bsp.a(epcs_commands.o)
 .debug_aranges
                0x00001fa0       0x20 ../Cineraria_DE0_HAL_bsp/\libhal_bsp.a(alt_alarm_start.o)
 .debug_aranges
                0x00001fc0       0x20 ../Cineraria_DE0_HAL_bsp/\libhal_bsp.a(alt_dcache_flush.o)
 .debug_aranges
                0x00001fe0       0x20 ../Cineraria_DE0_HAL_bsp/\libhal_bsp.a(alt_dev_llist_insert.o)
 .debug_aranges
                0x00002000       0x20 ../Cineraria_DE0_HAL_bsp/\libhal_bsp.a(alt_do_ctors.o)
 .debug_aranges
                0x00002020       0x20 ../Cineraria_DE0_HAL_bsp/\libhal_bsp.a(alt_do_dtors.o)
 .debug_aranges
                0x00002040       0x20 ../Cineraria_DE0_HAL_bsp/\libhal_bsp.a(alt_find_dev.o)
 .debug_aranges
                0x00002060       0x20 ../Cineraria_DE0_HAL_bsp/\libhal_bsp.a(alt_find_file.o)
 .debug_aranges
                0x00002080       0x20 ../Cineraria_DE0_HAL_bsp/\libhal_bsp.a(alt_flash_dev.o)
 .debug_aranges
                0x000020a0       0x20 ../Cineraria_DE0_HAL_bsp/\libhal_bsp.a(alt_get_fd.o)
 .debug_aranges
                0x000020c0       0x20 ../Cineraria_DE0_HAL_bsp/\libhal_bsp.a(alt_iic.o)
 .debug_aranges
                0x000020e0       0x20 ../Cineraria_DE0_HAL_bsp/\libhal_bsp.a(alt_iic_isr_register.o)
 .debug_aranges
                0x00002100       0x20 ../Cineraria_DE0_HAL_bsp/\libhal_bsp.a(alt_io_redirect.o)
 .debug_aranges
                0x00002120       0x30 ../Cineraria_DE0_HAL_bsp/\libhal_bsp.a(alt_irq_entry.o)
 .debug_aranges
                0x00002150       0x28 ../Cineraria_DE0_HAL_bsp/\libhal_bsp.a(alt_irq_handler.o)
 .debug_aranges
                0x00002178       0x20 ../Cineraria_DE0_HAL_bsp/\libhal_bsp.a(altera_nios2_irq.o)
 .debug_aranges
                0x00002198       0x20 ../Cineraria_DE0_HAL_bsp/\libhal_bsp.a(altera_avalon_cfi_flash_amd.o)
 .debug_aranges
                0x000021b8       0x20 ../Cineraria_DE0_HAL_bsp/\libhal_bsp.a(altera_avalon_cfi_flash_intel.o)
 .debug_aranges
                0x000021d8       0x20 ../Cineraria_DE0_HAL_bsp/\libhal_bsp.a(altera_avalon_spi.o)
 .debug_aranges
                0x000021f8       0x38 ../Cineraria_DE0_HAL_bsp/\libhal_bsp.a(alt_exception_entry.o)
 .debug_aranges
                0x00002230       0x20 ../Cineraria_DE0_HAL_bsp/\libhal_bsp.a(alt_usleep.o)
 .debug_aranges
                0x00002250       0x20 ../Cineraria_DE0_HAL_bsp/\libhal_bsp.a(alt_busy_sleep.o)
 .debug_aranges
                0x00002270       0x20 c:/develop/altera/11.1/nios2eds/bin/gnu/h-i686-mingw32/bin/../lib/gcc/nios2-elf/4.1.2/../../../../nios2-elf/lib\libc.a(lib_a-atexit.o)
 .debug_aranges
                0x00002290       0x20 c:/develop/altera/11.1/nios2eds/bin/gnu/h-i686-mingw32/bin/../lib/gcc/nios2-elf/4.1.2/../../../../nios2-elf/lib\libc.a(lib_a-__atexit.o)

.debug_pubnames
                0x00000000     0x46c0
 *(.debug_pubnames)
 .debug_pubnames
                0x00000000      0x563 obj/default/lua/lapi.o
 .debug_pubnames
                0x00000563      0x379 obj/default/lua/lauxlib.o
 .debug_pubnames
                0x000008dc       0x23 obj/default/lua/lbaselib.o
 .debug_pubnames
                0x000008ff       0x24 obj/default/lua/lbitlib.o
 .debug_pubnames
                0x00000923      0x259 obj/default/lua/lcode.o
 .debug_pubnames
                0x00000b7c       0x28 obj/default/lua/lcorolib.o
 .debug_pubnames
                0x00000ba4       0x22 obj/default/lua/lctype.o
 .debug_pubnames
                0x00000bc6       0x24 obj/default/lua/ldblib.o
 .debug_pubnames
                0x00000bea      0x112 obj/default/lua/ldebug.o
 .debug_pubnames
                0x00000cfc       0xfc obj/default/lua/ldo.o
 .debug_pubnames
                0x00000df8       0x20 obj/default/lua/ldump.o
 .debug_pubnames
                0x00000e18       0xd3 obj/default/lua/lfunc.o
 .debug_pubnames
                0x00000eeb      0x104 obj/default/lua/lgc.o
 .debug_pubnames
                0x00000fef       0x24 obj/default/lua/linit.o
 .debug_pubnames
                0x00001013       0x21 obj/default/lua/liolib.o
 .debug_pubnames
                0x00001034       0x8e obj/default/lua/llex.o
 .debug_pubnames
                0x000010c2       0x23 obj/default/lua/lmathlib.o
 .debug_pubnames
                0x000010e5       0x46 obj/default/lua/lmem.o
 .debug_pubnames
                0x0000112b       0x26 obj/default/lua/loadlib.o
 .debug_pubnames
                0x00001151       0xc5 obj/default/lua/lobject.o
 .debug_pubnames
                0x00001216       0x34 obj/default/lua/lopcodes.o
 .debug_pubnames
                0x0000124a       0x21 obj/default/lua/loslib.o
 .debug_pubnames
                0x0000126b       0x22 obj/default/lua/lparser.o
 .debug_pubnames
                0x0000128d       0x8a obj/default/lua/lstate.o
 .debug_pubnames
                0x00001317       0x52 obj/default/lua/lstring.o
 .debug_pubnames
                0x00001369       0x25 obj/default/lua/lstrlib.o
 .debug_pubnames
                0x0000138e       0xc8 obj/default/lua/ltable.o
 .debug_pubnames
                0x00001456       0x24 obj/default/lua/ltablib.o
 .debug_pubnames
                0x0000147a       0x57 obj/default/lua/ltm.o
 .debug_pubnames
                0x000014d1       0x32 obj/default/lua/lundump.o
 .debug_pubnames
                0x00001503       0xe4 obj/default/lua/lvm.o
 .debug_pubnames
                0x000015e7       0x4f obj/default/lua/lzio.o
 .debug_pubnames
                0x00001636       0x2d obj/default/min.o
 .debug_pubnames
                0x00001663      0x11c obj/default/mmcfs/fatfs/ff.o
 .debug_pubnames
                0x0000177f       0x62 obj/default/mmcfs/fatfs/mmcbb.o
 .debug_pubnames
                0x000017e1       0x31 obj/default/mmcfs/fatfs/option/cc932.o
 .debug_pubnames
                0x00001812       0x22 obj/default/mmcfs/gettime.o
 .debug_pubnames
                0x00001834      0x14d obj/default/mmcfs/mmc_spi.o
 .debug_pubnames
                0x00001981       0x98 obj/default/mmcfs/mmcfs.o
 .debug_pubnames
                0x00001a19       0x1b c:/develop/altera/11.1/nios2eds/bin/gnu/h-i686-mingw32/bin/../lib/gcc/nios2-elf/4.1.2/../../../../nios2-elf/lib\libm.a(lib_a-s_atan.o)
 .debug_pubnames
                0x00001a34       0x1b c:/develop/altera/11.1/nios2eds/bin/gnu/h-i686-mingw32/bin/../lib/gcc/nios2-elf/4.1.2/../../../../nios2-elf/lib\libm.a(lib_a-s_ceil.o)
 .debug_pubnames
                0x00001a4f       0x1a c:/develop/altera/11.1/nios2eds/bin/gnu/h-i686-mingw32/bin/../lib/gcc/nios2-elf/4.1.2/../../../../nios2-elf/lib\libm.a(lib_a-s_cos.o)
 .debug_pubnames
                0x00001a69       0x1b c:/develop/altera/11.1/nios2eds/bin/gnu/h-i686-mingw32/bin/../lib/gcc/nios2-elf/4.1.2/../../../../nios2-elf/lib\libm.a(lib_a-s_fabs.o)
 .debug_pubnames
                0x00001a84       0x1c c:/develop/altera/11.1/nios2eds/bin/gnu/h-i686-mingw32/bin/../lib/gcc/nios2-elf/4.1.2/../../../../nios2-elf/lib\libm.a(lib_a-s_floor.o)
 .debug_pubnames
                0x00001aa0       0x1c c:/develop/altera/11.1/nios2eds/bin/gnu/h-i686-mingw32/bin/../lib/gcc/nios2-elf/4.1.2/../../../../nios2-elf/lib\libm.a(lib_a-s_frexp.o)
 .debug_pubnames
                0x00001abc       0x1c c:/develop/altera/11.1/nios2eds/bin/gnu/h-i686-mingw32/bin/../lib/gcc/nios2-elf/4.1.2/../../../../nios2-elf/lib\libm.a(lib_a-s_ldexp.o)
 .debug_pubnames
                0x00001ad8       0x1b c:/develop/altera/11.1/nios2eds/bin/gnu/h-i686-mingw32/bin/../lib/gcc/nios2-elf/4.1.2/../../../../nios2-elf/lib\libm.a(lib_a-s_modf.o)
 .debug_pubnames
                0x00001af3       0x1d c:/develop/altera/11.1/nios2eds/bin/gnu/h-i686-mingw32/bin/../lib/gcc/nios2-elf/4.1.2/../../../../nios2-elf/lib\libm.a(lib_a-s_scalbn.o)
 .debug_pubnames
                0x00001b10       0x1a c:/develop/altera/11.1/nios2eds/bin/gnu/h-i686-mingw32/bin/../lib/gcc/nios2-elf/4.1.2/../../../../nios2-elf/lib\libm.a(lib_a-s_sin.o)
 .debug_pubnames
                0x00001b2a       0x1a c:/develop/altera/11.1/nios2eds/bin/gnu/h-i686-mingw32/bin/../lib/gcc/nios2-elf/4.1.2/../../../../nios2-elf/lib\libm.a(lib_a-s_tan.o)
 .debug_pubnames
                0x00001b44       0x1b c:/develop/altera/11.1/nios2eds/bin/gnu/h-i686-mingw32/bin/../lib/gcc/nios2-elf/4.1.2/../../../../nios2-elf/lib\libm.a(lib_a-s_tanh.o)
 .debug_pubnames
                0x00001b5f       0x1b c:/develop/altera/11.1/nios2eds/bin/gnu/h-i686-mingw32/bin/../lib/gcc/nios2-elf/4.1.2/../../../../nios2-elf/lib\libm.a(lib_a-w_acos.o)
 .debug_pubnames
                0x00001b7a       0x1b c:/develop/altera/11.1/nios2eds/bin/gnu/h-i686-mingw32/bin/../lib/gcc/nios2-elf/4.1.2/../../../../nios2-elf/lib\libm.a(lib_a-w_asin.o)
 .debug_pubnames
                0x00001b95       0x1c c:/develop/altera/11.1/nios2eds/bin/gnu/h-i686-mingw32/bin/../lib/gcc/nios2-elf/4.1.2/../../../../nios2-elf/lib\libm.a(lib_a-w_atan2.o)
 .debug_pubnames
                0x00001bb1       0x1b c:/develop/altera/11.1/nios2eds/bin/gnu/h-i686-mingw32/bin/../lib/gcc/nios2-elf/4.1.2/../../../../nios2-elf/lib\libm.a(lib_a-w_cosh.o)
 .debug_pubnames
                0x00001bcc       0x1a c:/develop/altera/11.1/nios2eds/bin/gnu/h-i686-mingw32/bin/../lib/gcc/nios2-elf/4.1.2/../../../../nios2-elf/lib\libm.a(lib_a-w_exp.o)
 .debug_pubnames
                0x00001be6       0x1b c:/develop/altera/11.1/nios2eds/bin/gnu/h-i686-mingw32/bin/../lib/gcc/nios2-elf/4.1.2/../../../../nios2-elf/lib\libm.a(lib_a-w_fmod.o)
 .debug_pubnames
                0x00001c01       0x1a c:/develop/altera/11.1/nios2eds/bin/gnu/h-i686-mingw32/bin/../lib/gcc/nios2-elf/4.1.2/../../../../nios2-elf/lib\libm.a(lib_a-w_log.o)
 .debug_pubnames
                0x00001c1b       0x1c c:/develop/altera/11.1/nios2eds/bin/gnu/h-i686-mingw32/bin/../lib/gcc/nios2-elf/4.1.2/../../../../nios2-elf/lib\libm.a(lib_a-w_log10.o)
 .debug_pubnames
                0x00001c37       0x1a c:/develop/altera/11.1/nios2eds/bin/gnu/h-i686-mingw32/bin/../lib/gcc/nios2-elf/4.1.2/../../../../nios2-elf/lib\libm.a(lib_a-w_pow.o)
 .debug_pubnames
                0x00001c51       0x1b c:/develop/altera/11.1/nios2eds/bin/gnu/h-i686-mingw32/bin/../lib/gcc/nios2-elf/4.1.2/../../../../nios2-elf/lib\libm.a(lib_a-w_sinh.o)
 .debug_pubnames
                0x00001c6c       0x1b c:/develop/altera/11.1/nios2eds/bin/gnu/h-i686-mingw32/bin/../lib/gcc/nios2-elf/4.1.2/../../../../nios2-elf/lib\libm.a(lib_a-w_sqrt.o)
 .debug_pubnames
                0x00001c87       0x25 c:/develop/altera/11.1/nios2eds/bin/gnu/h-i686-mingw32/bin/../lib/gcc/nios2-elf/4.1.2/../../../../nios2-elf/lib\libm.a(lib_a-e_acos.o)
 .debug_pubnames
                0x00001cac       0x25 c:/develop/altera/11.1/nios2eds/bin/gnu/h-i686-mingw32/bin/../lib/gcc/nios2-elf/4.1.2/../../../../nios2-elf/lib\libm.a(lib_a-e_asin.o)
 .debug_pubnames
                0x00001cd1       0x26 c:/develop/altera/11.1/nios2eds/bin/gnu/h-i686-mingw32/bin/../lib/gcc/nios2-elf/4.1.2/../../../../nios2-elf/lib\libm.a(lib_a-e_atan2.o)
 .debug_pubnames
                0x00001cf7       0x25 c:/develop/altera/11.1/nios2eds/bin/gnu/h-i686-mingw32/bin/../lib/gcc/nios2-elf/4.1.2/../../../../nios2-elf/lib\libm.a(lib_a-e_cosh.o)
 .debug_pubnames
                0x00001d1c       0x24 c:/develop/altera/11.1/nios2eds/bin/gnu/h-i686-mingw32/bin/../lib/gcc/nios2-elf/4.1.2/../../../../nios2-elf/lib\libm.a(lib_a-e_exp.o)
 .debug_pubnames
                0x00001d40       0x25 c:/develop/altera/11.1/nios2eds/bin/gnu/h-i686-mingw32/bin/../lib/gcc/nios2-elf/4.1.2/../../../../nios2-elf/lib\libm.a(lib_a-e_fmod.o)
 .debug_pubnames
                0x00001d65       0x24 c:/develop/altera/11.1/nios2eds/bin/gnu/h-i686-mingw32/bin/../lib/gcc/nios2-elf/4.1.2/../../../../nios2-elf/lib\libm.a(lib_a-e_log.o)
 .debug_pubnames
                0x00001d89       0x26 c:/develop/altera/11.1/nios2eds/bin/gnu/h-i686-mingw32/bin/../lib/gcc/nios2-elf/4.1.2/../../../../nios2-elf/lib\libm.a(lib_a-e_log10.o)
 .debug_pubnames
                0x00001daf       0x24 c:/develop/altera/11.1/nios2eds/bin/gnu/h-i686-mingw32/bin/../lib/gcc/nios2-elf/4.1.2/../../../../nios2-elf/lib\libm.a(lib_a-e_pow.o)
 .debug_pubnames
                0x00001dd3       0x29 c:/develop/altera/11.1/nios2eds/bin/gnu/h-i686-mingw32/bin/../lib/gcc/nios2-elf/4.1.2/../../../../nios2-elf/lib\libm.a(lib_a-e_rem_pio2.o)
 .debug_pubnames
                0x00001dfc       0x25 c:/develop/altera/11.1/nios2eds/bin/gnu/h-i686-mingw32/bin/../lib/gcc/nios2-elf/4.1.2/../../../../nios2-elf/lib\libm.a(lib_a-e_sinh.o)
 .debug_pubnames
                0x00001e21       0x25 c:/develop/altera/11.1/nios2eds/bin/gnu/h-i686-mingw32/bin/../lib/gcc/nios2-elf/4.1.2/../../../../nios2-elf/lib\libm.a(lib_a-e_sqrt.o)
 .debug_pubnames
                0x00001e46       0x23 c:/develop/altera/11.1/nios2eds/bin/gnu/h-i686-mingw32/bin/../lib/gcc/nios2-elf/4.1.2/../../../../nios2-elf/lib\libm.a(lib_a-k_cos.o)
 .debug_pubnames
                0x00001e69       0x28 c:/develop/altera/11.1/nios2eds/bin/gnu/h-i686-mingw32/bin/../lib/gcc/nios2-elf/4.1.2/../../../../nios2-elf/lib\libm.a(lib_a-k_rem_pio2.o)
 .debug_pubnames
                0x00001e91       0x23 c:/develop/altera/11.1/nios2eds/bin/gnu/h-i686-mingw32/bin/../lib/gcc/nios2-elf/4.1.2/../../../../nios2-elf/lib\libm.a(lib_a-k_sin.o)
 .debug_pubnames
                0x00001eb4       0x23 c:/develop/altera/11.1/nios2eds/bin/gnu/h-i686-mingw32/bin/../lib/gcc/nios2-elf/4.1.2/../../../../nios2-elf/lib\libm.a(lib_a-k_tan.o)
 .debug_pubnames
                0x00001ed7       0x1f c:/develop/altera/11.1/nios2eds/bin/gnu/h-i686-mingw32/bin/../lib/gcc/nios2-elf/4.1.2/../../../../nios2-elf/lib\libm.a(lib_a-s_copysign.o)
 .debug_pubnames
                0x00001ef6       0x1c c:/develop/altera/11.1/nios2eds/bin/gnu/h-i686-mingw32/bin/../lib/gcc/nios2-elf/4.1.2/../../../../nios2-elf/lib\libm.a(lib_a-s_expm1.o)
 .debug_pubnames
                0x00001f12       0x1d c:/develop/altera/11.1/nios2eds/bin/gnu/h-i686-mingw32/bin/../lib/gcc/nios2-elf/4.1.2/../../../../nios2-elf/lib\libm.a(lib_a-s_finite.o)
 .debug_pubnames
                0x00001f2f       0x1f c:/develop/altera/11.1/nios2eds/bin/gnu/h-i686-mingw32/bin/../lib/gcc/nios2-elf/4.1.2/../../../../nios2-elf/lib\libm.a(lib_a-s_isnand.o)
 .debug_pubnames
                0x00001f4e       0x26 c:/develop/altera/11.1/nios2eds/bin/gnu/h-i686-mingw32/bin/../lib/gcc/nios2-elf/4.1.2/../../../../nios2-elf/lib\libm.a(lib_a-s_lib_ver.o)
 .debug_pubnames
                0x00001f74       0x1e c:/develop/altera/11.1/nios2eds/bin/gnu/h-i686-mingw32/bin/../lib/gcc/nios2-elf/4.1.2/../../../../nios2-elf/lib\libm.a(lib_a-s_matherr.o)
 .debug_pubnames
                0x00001f92       0x1a c:/develop/altera/11.1/nios2eds/bin/gnu/h-i686-mingw32/bin/../lib/gcc/nios2-elf/4.1.2/../../../../nios2-elf/lib\libm.a(lib_a-s_nan.o)
 .debug_pubnames
                0x00001fac       0x1b c:/develop/altera/11.1/nios2eds/bin/gnu/h-i686-mingw32/bin/../lib/gcc/nios2-elf/4.1.2/../../../../nios2-elf/lib\libm.a(lib_a-s_rint.o)
 .debug_pubnames
                0x00001fc7       0x23 c:/develop/altera/11.1/nios2eds/bin/gnu/h-i686-mingw32/bin/../lib/gcc/nios2-elf/4.1.2\libgcc.a(_fixunsdfsi.o)
 .debug_pubnames
                0x00001fea       0x2c c:/develop/altera/11.1/nios2eds/bin/gnu/h-i686-mingw32/bin/../lib/gcc/nios2-elf/4.1.2\libgcc.a(_addsub_df.o)
 .debug_pubnames
                0x00002016       0x1f c:/develop/altera/11.1/nios2eds/bin/gnu/h-i686-mingw32/bin/../lib/gcc/nios2-elf/4.1.2\libgcc.a(_mul_df.o)
 .debug_pubnames
                0x00002035       0x1f c:/develop/altera/11.1/nios2eds/bin/gnu/h-i686-mingw32/bin/../lib/gcc/nios2-elf/4.1.2\libgcc.a(_div_df.o)
 .debug_pubnames
                0x00002054       0x1e c:/develop/altera/11.1/nios2eds/bin/gnu/h-i686-mingw32/bin/../lib/gcc/nios2-elf/4.1.2\libgcc.a(_eq_df.o)
 .debug_pubnames
                0x00002072       0x1e c:/develop/altera/11.1/nios2eds/bin/gnu/h-i686-mingw32/bin/../lib/gcc/nios2-elf/4.1.2\libgcc.a(_ne_df.o)
 .debug_pubnames
                0x00002090       0x1e c:/develop/altera/11.1/nios2eds/bin/gnu/h-i686-mingw32/bin/../lib/gcc/nios2-elf/4.1.2\libgcc.a(_gt_df.o)
 .debug_pubnames
                0x000020ae       0x1e c:/develop/altera/11.1/nios2eds/bin/gnu/h-i686-mingw32/bin/../lib/gcc/nios2-elf/4.1.2\libgcc.a(_ge_df.o)
 .debug_pubnames
                0x000020cc       0x1e c:/develop/altera/11.1/nios2eds/bin/gnu/h-i686-mingw32/bin/../lib/gcc/nios2-elf/4.1.2\libgcc.a(_lt_df.o)
 .debug_pubnames
                0x000020ea       0x1e c:/develop/altera/11.1/nios2eds/bin/gnu/h-i686-mingw32/bin/../lib/gcc/nios2-elf/4.1.2\libgcc.a(_le_df.o)
 .debug_pubnames
                0x00002108       0x22 c:/develop/altera/11.1/nios2eds/bin/gnu/h-i686-mingw32/bin/../lib/gcc/nios2-elf/4.1.2\libgcc.a(_si_to_df.o)
 .debug_pubnames
                0x0000212a       0x20 c:/develop/altera/11.1/nios2eds/bin/gnu/h-i686-mingw32/bin/../lib/gcc/nios2-elf/4.1.2\libgcc.a(_df_to_si.o)
 .debug_pubnames
                0x0000214a       0x22 c:/develop/altera/11.1/nios2eds/bin/gnu/h-i686-mingw32/bin/../lib/gcc/nios2-elf/4.1.2\libgcc.a(_thenan_df.o)
 .debug_pubnames
                0x0000216c       0x24 c:/develop/altera/11.1/nios2eds/bin/gnu/h-i686-mingw32/bin/../lib/gcc/nios2-elf/4.1.2\libgcc.a(_usi_to_df.o)
 .debug_pubnames
                0x00002190       0x48 c:/develop/altera/11.1/nios2eds/bin/gnu/h-i686-mingw32/bin/../lib/gcc/nios2-elf/4.1.2\libgcc.a(lib2-divmod.o)
 .debug_pubnames
                0x000021d8       0x1f c:/develop/altera/11.1/nios2eds/bin/gnu/h-i686-mingw32/bin/../lib/gcc/nios2-elf/4.1.2\libgcc.a(_muldi3.o)
 .debug_pubnames
                0x000021f7       0x1f c:/develop/altera/11.1/nios2eds/bin/gnu/h-i686-mingw32/bin/../lib/gcc/nios2-elf/4.1.2\libgcc.a(_clzsi2.o)
 .debug_pubnames
                0x00002216       0x1f c:/develop/altera/11.1/nios2eds/bin/gnu/h-i686-mingw32/bin/../lib/gcc/nios2-elf/4.1.2\libgcc.a(_pack_df.o)
 .debug_pubnames
                0x00002235       0x21 c:/develop/altera/11.1/nios2eds/bin/gnu/h-i686-mingw32/bin/../lib/gcc/nios2-elf/4.1.2\libgcc.a(_unpack_df.o)
 .debug_pubnames
                0x00002256       0x26 c:/develop/altera/11.1/nios2eds/bin/gnu/h-i686-mingw32/bin/../lib/gcc/nios2-elf/4.1.2\libgcc.a(_fpcmp_parts_df.o)
 .debug_pubnames
                0x0000227c       0x20 c:/develop/altera/11.1/nios2eds/bin/gnu/h-i686-mingw32/bin/../lib/gcc/nios2-elf/4.1.2\libgcc.a(_clz.o)
 .debug_pubnames
                0x0000229c       0x1c c:/develop/altera/11.1/nios2eds/bin/gnu/h-i686-mingw32/bin/../lib/gcc/nios2-elf/4.1.2/../../../../nios2-elf/lib\libc.a(lib_a-abort.o)
 .debug_pubnames
                0x000022b8       0x1c c:/develop/altera/11.1/nios2eds/bin/gnu/h-i686-mingw32/bin/../lib/gcc/nios2-elf/4.1.2/../../../../nios2-elf/lib\libc.a(lib_a-clock.o)
 .debug_pubnames
                0x000022d4       0x2e c:/develop/altera/11.1/nios2eds/bin/gnu/h-i686-mingw32/bin/../lib/gcc/nios2-elf/4.1.2/../../../../nios2-elf/lib\libc.a(lib_a-ctype_.o)
 .debug_pubnames
                0x00002302       0x1f c:/develop/altera/11.1/nios2eds/bin/gnu/h-i686-mingw32/bin/../lib/gcc/nios2-elf/4.1.2/../../../../nios2-elf/lib\libc.a(lib_a-difftime.o)
 .debug_pubnames
                0x00002321       0x1e c:/develop/altera/11.1/nios2eds/bin/gnu/h-i686-mingw32/bin/../lib/gcc/nios2-elf/4.1.2/../../../../nios2-elf/lib\libc.a(lib_a-errno.o)
 .debug_pubnames
                0x0000233f       0x1b c:/develop/altera/11.1/nios2eds/bin/gnu/h-i686-mingw32/bin/../lib/gcc/nios2-elf/4.1.2/../../../../nios2-elf/lib\libc.a(lib_a-exit.o)
 .debug_pubnames
                0x0000235a       0x2b c:/develop/altera/11.1/nios2eds/bin/gnu/h-i686-mingw32/bin/../lib/gcc/nios2-elf/4.1.2/../../../../nios2-elf/lib\libc.a(lib_a-fclose.o)
 .debug_pubnames
                0x00002385       0x2b c:/develop/altera/11.1/nios2eds/bin/gnu/h-i686-mingw32/bin/../lib/gcc/nios2-elf/4.1.2/../../../../nios2-elf/lib\libc.a(lib_a-fflush.o)
 .debug_pubnames
                0x000023b0       0x29 c:/develop/altera/11.1/nios2eds/bin/gnu/h-i686-mingw32/bin/../lib/gcc/nios2-elf/4.1.2/../../../../nios2-elf/lib\libc.a(lib_a-fgets.o)
 .debug_pubnames
                0x000023d9       0xdb c:/develop/altera/11.1/nios2eds/bin/gnu/h-i686-mingw32/bin/../lib/gcc/nios2-elf/4.1.2/../../../../nios2-elf/lib\libc.a(lib_a-findfp.o)
 .debug_pubnames
                0x000024b4       0x29 c:/develop/altera/11.1/nios2eds/bin/gnu/h-i686-mingw32/bin/../lib/gcc/nios2-elf/4.1.2/../../../../nios2-elf/lib\libc.a(lib_a-fopen.o)
 .debug_pubnames
                0x000024dd       0x2d c:/develop/altera/11.1/nios2eds/bin/gnu/h-i686-mingw32/bin/../lib/gcc/nios2-elf/4.1.2/../../../../nios2-elf/lib\libc.a(lib_a-fprintf.o)
 .debug_pubnames
                0x0000250a       0x29 c:/develop/altera/11.1/nios2eds/bin/gnu/h-i686-mingw32/bin/../lib/gcc/nios2-elf/4.1.2/../../../../nios2-elf/lib\libc.a(lib_a-fread.o)
 .debug_pubnames
                0x00002533       0x31 c:/develop/altera/11.1/nios2eds/bin/gnu/h-i686-mingw32/bin/../lib/gcc/nios2-elf/4.1.2/../../../../nios2-elf/lib\libc.a(lib_a-freer.o)
 .debug_pubnames
                0x00002564       0x2d c:/develop/altera/11.1/nios2eds/bin/gnu/h-i686-mingw32/bin/../lib/gcc/nios2-elf/4.1.2/../../../../nios2-elf/lib\libc.a(lib_a-freopen.o)
 .debug_pubnames
                0x00002591       0x2b c:/develop/altera/11.1/nios2eds/bin/gnu/h-i686-mingw32/bin/../lib/gcc/nios2-elf/4.1.2/../../../../nios2-elf/lib\libc.a(lib_a-fscanf.o)
 .debug_pubnames
                0x000025bc       0x29 c:/develop/altera/11.1/nios2eds/bin/gnu/h-i686-mingw32/bin/../lib/gcc/nios2-elf/4.1.2/../../../../nios2-elf/lib\libc.a(lib_a-fseek.o)
 .debug_pubnames
                0x000025e5       0x1f c:/develop/altera/11.1/nios2eds/bin/gnu/h-i686-mingw32/bin/../lib/gcc/nios2-elf/4.1.2/../../../../nios2-elf/lib\libc.a(lib_a-fstatr.o)
 .debug_pubnames
                0x00002604       0x29 c:/develop/altera/11.1/nios2eds/bin/gnu/h-i686-mingw32/bin/../lib/gcc/nios2-elf/4.1.2/../../../../nios2-elf/lib\libc.a(lib_a-ftell.o)
 .debug_pubnames
                0x0000262d       0x2e c:/develop/altera/11.1/nios2eds/bin/gnu/h-i686-mingw32/bin/../lib/gcc/nios2-elf/4.1.2/../../../../nios2-elf/lib\libc.a(lib_a-fwalk.o)
 .debug_pubnames
                0x0000265b       0x2b c:/develop/altera/11.1/nios2eds/bin/gnu/h-i686-mingw32/bin/../lib/gcc/nios2-elf/4.1.2/../../../../nios2-elf/lib\libc.a(lib_a-fwrite.o)
 .debug_pubnames
                0x00002686       0x27 c:/develop/altera/11.1/nios2eds/bin/gnu/h-i686-mingw32/bin/../lib/gcc/nios2-elf/4.1.2/../../../../nios2-elf/lib\libc.a(lib_a-getc.o)
 .debug_pubnames
                0x000026ad       0x2a c:/develop/altera/11.1/nios2eds/bin/gnu/h-i686-mingw32/bin/../lib/gcc/nios2-elf/4.1.2/../../../../nios2-elf/lib\libc.a(lib_a-getenv.o)
 .debug_pubnames
                0x000026d7       0x2f c:/develop/altera/11.1/nios2eds/bin/gnu/h-i686-mingw32/bin/../lib/gcc/nios2-elf/4.1.2/../../../../nios2-elf/lib\libc.a(lib_a-getenv_r.o)
 .debug_pubnames
                0x00002706       0x1d c:/develop/altera/11.1/nios2eds/bin/gnu/h-i686-mingw32/bin/../lib/gcc/nios2-elf/4.1.2/../../../../nios2-elf/lib\libc.a(lib_a-gmtime.o)
 .debug_pubnames
                0x00002723       0x1f c:/develop/altera/11.1/nios2eds/bin/gnu/h-i686-mingw32/bin/../lib/gcc/nios2-elf/4.1.2/../../../../nios2-elf/lib\libc.a(lib_a-gmtime_r.o)
 .debug_pubnames
                0x00002742       0x39 c:/develop/altera/11.1/nios2eds/bin/gnu/h-i686-mingw32/bin/../lib/gcc/nios2-elf/4.1.2/../../../../nios2-elf/lib\libc.a(lib_a-impure.o)
 .debug_pubnames
                0x0000277b       0x1c c:/develop/altera/11.1/nios2eds/bin/gnu/h-i686-mingw32/bin/../lib/gcc/nios2-elf/4.1.2/../../../../nios2-elf/lib\libc.a(lib_a-int_errno.o)
 .debug_pubnames
                0x00002797       0x20 c:/develop/altera/11.1/nios2eds/bin/gnu/h-i686-mingw32/bin/../lib/gcc/nios2-elf/4.1.2/../../../../nios2-elf/lib\libc.a(lib_a-lcltime.o)
 .debug_pubnames
                0x000027b7       0x22 c:/develop/altera/11.1/nios2eds/bin/gnu/h-i686-mingw32/bin/../lib/gcc/nios2-elf/4.1.2/../../../../nios2-elf/lib\libc.a(lib_a-lcltime_r.o)
 .debug_pubnames
                0x000027d9       0xc3 c:/develop/altera/11.1/nios2eds/bin/gnu/h-i686-mingw32/bin/../lib/gcc/nios2-elf/4.1.2/../../../../nios2-elf/lib\libc.a(lib_a-locale.o)
 .debug_pubnames
                0x0000289c       0x23 c:/develop/altera/11.1/nios2eds/bin/gnu/h-i686-mingw32/bin/../lib/gcc/nios2-elf/4.1.2/../../../../nios2-elf/lib\libc.a(lib_a-makebuf.o)
 .debug_pubnames
                0x000028bf       0x26 c:/develop/altera/11.1/nios2eds/bin/gnu/h-i686-mingw32/bin/../lib/gcc/nios2-elf/4.1.2/../../../../nios2-elf/lib\libc.a(lib_a-malloc.o)
 .debug_pubnames
                0x000028e5       0xce c:/develop/altera/11.1/nios2eds/bin/gnu/h-i686-mingw32/bin/../lib/gcc/nios2-elf/4.1.2/../../../../nios2-elf/lib\libc.a(lib_a-mallocr.o)
 .debug_pubnames
                0x000029b3       0x1d c:/develop/altera/11.1/nios2eds/bin/gnu/h-i686-mingw32/bin/../lib/gcc/nios2-elf/4.1.2/../../../../nios2-elf/lib\libc.a(lib_a-memchr.o)
 .debug_pubnames
                0x000029d0       0x1d c:/develop/altera/11.1/nios2eds/bin/gnu/h-i686-mingw32/bin/../lib/gcc/nios2-elf/4.1.2/../../../../nios2-elf/lib\libc.a(lib_a-memcmp.o)
 .debug_pubnames
                0x000029ed       0x1d c:/develop/altera/11.1/nios2eds/bin/gnu/h-i686-mingw32/bin/../lib/gcc/nios2-elf/4.1.2/../../../../nios2-elf/lib\libc.a(lib_a-memcpy.o)
 .debug_pubnames
                0x00002a0a       0x1d c:/develop/altera/11.1/nios2eds/bin/gnu/h-i686-mingw32/bin/../lib/gcc/nios2-elf/4.1.2/../../../../nios2-elf/lib\libc.a(lib_a-memset.o)
 .debug_pubnames
                0x00002a27       0x1d c:/develop/altera/11.1/nios2eds/bin/gnu/h-i686-mingw32/bin/../lib/gcc/nios2-elf/4.1.2/../../../../nios2-elf/lib\libc.a(lib_a-mktime.o)
 .debug_pubnames
                0x00002a44       0x32 c:/develop/altera/11.1/nios2eds/bin/gnu/h-i686-mingw32/bin/../lib/gcc/nios2-elf/4.1.2/../../../../nios2-elf/lib\libc.a(lib_a-mktm_r.o)
 .debug_pubnames
                0x00002a76       0x1e c:/develop/altera/11.1/nios2eds/bin/gnu/h-i686-mingw32/bin/../lib/gcc/nios2-elf/4.1.2/../../../../nios2-elf/lib\libc.a(lib_a-openr.o)
 .debug_pubnames
                0x00002a94       0x2b c:/develop/altera/11.1/nios2eds/bin/gnu/h-i686-mingw32/bin/../lib/gcc/nios2-elf/4.1.2/../../../../nios2-elf/lib\libc.a(lib_a-printf.o)
 .debug_pubnames
                0x00002abf       0x2d c:/develop/altera/11.1/nios2eds/bin/gnu/h-i686-mingw32/bin/../lib/gcc/nios2-elf/4.1.2/../../../../nios2-elf/lib\libc.a(lib_a-putchar.o)
 .debug_pubnames
                0x00002aec       0x27 c:/develop/altera/11.1/nios2eds/bin/gnu/h-i686-mingw32/bin/../lib/gcc/nios2-elf/4.1.2/../../../../nios2-elf/lib\libc.a(lib_a-puts.o)
 .debug_pubnames
                0x00002b13       0x25 c:/develop/altera/11.1/nios2eds/bin/gnu/h-i686-mingw32/bin/../lib/gcc/nios2-elf/4.1.2/../../../../nios2-elf/lib\libc.a(lib_a-rand.o)
 .debug_pubnames
                0x00002b38       0x1e c:/develop/altera/11.1/nios2eds/bin/gnu/h-i686-mingw32/bin/../lib/gcc/nios2-elf/4.1.2/../../../../nios2-elf/lib\libc.a(lib_a-realloc.o)
 .debug_pubnames
                0x00002b56       0x21 c:/develop/altera/11.1/nios2eds/bin/gnu/h-i686-mingw32/bin/../lib/gcc/nios2-elf/4.1.2/../../../../nios2-elf/lib\libc.a(lib_a-reallocr.o)
 .debug_pubnames
                0x00002b77       0x22 c:/develop/altera/11.1/nios2eds/bin/gnu/h-i686-mingw32/bin/../lib/gcc/nios2-elf/4.1.2/../../../../nios2-elf/lib\libc.a(lib_a-refill.o)
 .debug_pubnames
                0x00002b99       0x2c c:/develop/altera/11.1/nios2eds/bin/gnu/h-i686-mingw32/bin/../lib/gcc/nios2-elf/4.1.2/../../../../nios2-elf/lib\libc.a(lib_a-rget.o)
 .debug_pubnames
                0x00002bc5       0x1e c:/develop/altera/11.1/nios2eds/bin/gnu/h-i686-mingw32/bin/../lib/gcc/nios2-elf/4.1.2/../../../../nios2-elf/lib\libc.a(lib_a-sbrkr.o)
 .debug_pubnames
                0x00002be3       0x1e c:/develop/altera/11.1/nios2eds/bin/gnu/h-i686-mingw32/bin/../lib/gcc/nios2-elf/4.1.2/../../../../nios2-elf/lib\libc.a(lib_a-setvbuf.o)
 .debug_pubnames
                0x00002c01       0x86 c:/develop/altera/11.1/nios2eds/bin/gnu/h-i686-mingw32/bin/../lib/gcc/nios2-elf/4.1.2/../../../../nios2-elf/lib\libc.a(lib_a-signal.o)
 .debug_pubnames
                0x00002c87       0x2c c:/develop/altera/11.1/nios2eds/bin/gnu/h-i686-mingw32/bin/../lib/gcc/nios2-elf/4.1.2/../../../../nios2-elf/lib\libc.a(lib_a-signalr.o)
 .debug_pubnames
                0x00002cb3       0x2d c:/develop/altera/11.1/nios2eds/bin/gnu/h-i686-mingw32/bin/../lib/gcc/nios2-elf/4.1.2/../../../../nios2-elf/lib\libc.a(lib_a-sprintf.o)
 .debug_pubnames
                0x00002ce0       0x44 c:/develop/altera/11.1/nios2eds/bin/gnu/h-i686-mingw32/bin/../lib/gcc/nios2-elf/4.1.2/../../../../nios2-elf/lib\libc.a(lib_a-stdio.o)
 .debug_pubnames
                0x00002d24       0x1d c:/develop/altera/11.1/nios2eds/bin/gnu/h-i686-mingw32/bin/../lib/gcc/nios2-elf/4.1.2/../../../../nios2-elf/lib\libc.a(lib_a-strchr.o)
 .debug_pubnames
                0x00002d41       0x1d c:/develop/altera/11.1/nios2eds/bin/gnu/h-i686-mingw32/bin/../lib/gcc/nios2-elf/4.1.2/../../../../nios2-elf/lib\libc.a(lib_a-strcmp.o)
 .debug_pubnames
                0x00002d5e       0x1e c:/develop/altera/11.1/nios2eds/bin/gnu/h-i686-mingw32/bin/../lib/gcc/nios2-elf/4.1.2/../../../../nios2-elf/lib\libc.a(lib_a-strcoll.o)
 .debug_pubnames
                0x00002d7c       0x1d c:/develop/altera/11.1/nios2eds/bin/gnu/h-i686-mingw32/bin/../lib/gcc/nios2-elf/4.1.2/../../../../nios2-elf/lib\libc.a(lib_a-strcpy.o)
 .debug_pubnames
                0x00002d99       0x1f c:/develop/altera/11.1/nios2eds/bin/gnu/h-i686-mingw32/bin/../lib/gcc/nios2-elf/4.1.2/../../../../nios2-elf/lib\libc.a(lib_a-strerror.o)
 .debug_pubnames
                0x00002db8       0x1f c:/develop/altera/11.1/nios2eds/bin/gnu/h-i686-mingw32/bin/../lib/gcc/nios2-elf/4.1.2/../../../../nios2-elf/lib\libc.a(lib_a-strftime.o)
 .debug_pubnames
                0x00002dd7       0x1d c:/develop/altera/11.1/nios2eds/bin/gnu/h-i686-mingw32/bin/../lib/gcc/nios2-elf/4.1.2/../../../../nios2-elf/lib\libc.a(lib_a-strlen.o)
 .debug_pubnames
                0x00002df4       0x1e c:/develop/altera/11.1/nios2eds/bin/gnu/h-i686-mingw32/bin/../lib/gcc/nios2-elf/4.1.2/../../../../nios2-elf/lib\libc.a(lib_a-strncmp.o)
 .debug_pubnames
                0x00002e12       0x1e c:/develop/altera/11.1/nios2eds/bin/gnu/h-i686-mingw32/bin/../lib/gcc/nios2-elf/4.1.2/../../../../nios2-elf/lib\libc.a(lib_a-strpbrk.o)
 .debug_pubnames
                0x00002e30       0x1d c:/develop/altera/11.1/nios2eds/bin/gnu/h-i686-mingw32/bin/../lib/gcc/nios2-elf/4.1.2/../../../../nios2-elf/lib\libc.a(lib_a-strspn.o)
 .debug_pubnames
                0x00002e4d       0x1d c:/develop/altera/11.1/nios2eds/bin/gnu/h-i686-mingw32/bin/../lib/gcc/nios2-elf/4.1.2/../../../../nios2-elf/lib\libc.a(lib_a-strstr.o)
 .debug_pubnames
                0x00002e6a       0x36 c:/develop/altera/11.1/nios2eds/bin/gnu/h-i686-mingw32/bin/../lib/gcc/nios2-elf/4.1.2/../../../../nios2-elf/lib\libc.a(lib_a-strtod.o)
 .debug_pubnames
                0x00002ea0       0x1b c:/develop/altera/11.1/nios2eds/bin/gnu/h-i686-mingw32/bin/../lib/gcc/nios2-elf/4.1.2/../../../../nios2-elf/lib\libc.a(lib_a-time.o)
 .debug_pubnames
                0x00002ebb       0x1f c:/develop/altera/11.1/nios2eds/bin/gnu/h-i686-mingw32/bin/../lib/gcc/nios2-elf/4.1.2/../../../../nios2-elf/lib\libc.a(lib_a-timesr.o)
 .debug_pubnames
                0x00002eda       0x46 c:/develop/altera/11.1/nios2eds/bin/gnu/h-i686-mingw32/bin/../lib/gcc/nios2-elf/4.1.2/../../../../nios2-elf/lib\libc.a(lib_a-tmpnam.o)
 .debug_pubnames
                0x00002f20       0x30 c:/develop/altera/11.1/nios2eds/bin/gnu/h-i686-mingw32/bin/../lib/gcc/nios2-elf/4.1.2/../../../../nios2-elf/lib\libc.a(lib_a-tzlock.o)
 .debug_pubnames
                0x00002f50       0x3a c:/develop/altera/11.1/nios2eds/bin/gnu/h-i686-mingw32/bin/../lib/gcc/nios2-elf/4.1.2/../../../../nios2-elf/lib\libc.a(lib_a-tzvars.o)
 .debug_pubnames
                0x00002f8a       0x25 c:/develop/altera/11.1/nios2eds/bin/gnu/h-i686-mingw32/bin/../lib/gcc/nios2-elf/4.1.2/../../../../nios2-elf/lib\libc.a(lib_a-u_strerr.o)
 .debug_pubnames
                0x00002faf       0x39 c:/develop/altera/11.1/nios2eds/bin/gnu/h-i686-mingw32/bin/../lib/gcc/nios2-elf/4.1.2/../../../../nios2-elf/lib\libc.a(lib_a-ungetc.o)
 .debug_pubnames
                0x00002fe8       0x45 c:/develop/altera/11.1/nios2eds/bin/gnu/h-i686-mingw32/bin/../lib/gcc/nios2-elf/4.1.2/../../../../nios2-elf/lib\libc.a(lib_a-vfprintf.o)
 .debug_pubnames
                0x0000302d       0x4d c:/develop/altera/11.1/nios2eds/bin/gnu/h-i686-mingw32/bin/../lib/gcc/nios2-elf/4.1.2/../../../../nios2-elf/lib\libc.a(lib_a-vfscanf.o)
 .debug_pubnames
                0x0000307a       0x1f c:/develop/altera/11.1/nios2eds/bin/gnu/h-i686-mingw32/bin/../lib/gcc/nios2-elf/4.1.2/../../../../nios2-elf/lib\libc.a(lib_a-writer.o)
 .debug_pubnames
                0x00003099       0x22 c:/develop/altera/11.1/nios2eds/bin/gnu/h-i686-mingw32/bin/../lib/gcc/nios2-elf/4.1.2/../../../../nios2-elf/lib\libc.a(lib_a-wsetup.o)
 .debug_pubnames
                0x000030bb       0x27 c:/develop/altera/11.1/nios2eds/bin/gnu/h-i686-mingw32/bin/../lib/gcc/nios2-elf/4.1.2/../../../../nios2-elf/lib\libc.a(lib_a-__call_atexit.o)
 .debug_pubnames
                0x000030e2       0x1a c:/develop/altera/11.1/nios2eds/bin/gnu/h-i686-mingw32/bin/../lib/gcc/nios2-elf/4.1.2/../../../../nios2-elf/lib\libc.a(lib_a-abs.o)
 .debug_pubnames
                0x000030fc       0x1f c:/develop/altera/11.1/nios2eds/bin/gnu/h-i686-mingw32/bin/../lib/gcc/nios2-elf/4.1.2/../../../../nios2-elf/lib\libc.a(lib_a-closer.o)
 .debug_pubnames
                0x0000311b       0x1a c:/develop/altera/11.1/nios2eds/bin/gnu/h-i686-mingw32/bin/../lib/gcc/nios2-elf/4.1.2/../../../../nios2-elf/lib\libc.a(lib_a-div.o)
 .debug_pubnames
                0x00003135       0x1e c:/develop/altera/11.1/nios2eds/bin/gnu/h-i686-mingw32/bin/../lib/gcc/nios2-elf/4.1.2/../../../../nios2-elf/lib\libc.a(lib_a-dtoa.o)
 .debug_pubnames
                0x00003153       0x1e c:/develop/altera/11.1/nios2eds/bin/gnu/h-i686-mingw32/bin/../lib/gcc/nios2-elf/4.1.2/../../../../nios2-elf/lib\libc.a(lib_a-environ.o)
 .debug_pubnames
                0x00003171       0x1f c:/develop/altera/11.1/nios2eds/bin/gnu/h-i686-mingw32/bin/../lib/gcc/nios2-elf/4.1.2/../../../../nios2-elf/lib\libc.a(lib_a-flags.o)
 .debug_pubnames
                0x00003190       0x23 c:/develop/altera/11.1/nios2eds/bin/gnu/h-i686-mingw32/bin/../lib/gcc/nios2-elf/4.1.2/../../../../nios2-elf/lib\libc.a(lib_a-fvwrite.o)
 .debug_pubnames
                0x000031b3       0x3e c:/develop/altera/11.1/nios2eds/bin/gnu/h-i686-mingw32/bin/../lib/gcc/nios2-elf/4.1.2/../../../../nios2-elf/lib\libc.a(lib_a-gdtoa-gethex.o)
 .debug_pubnames
                0x000031f1       0x1f c:/develop/altera/11.1/nios2eds/bin/gnu/h-i686-mingw32/bin/../lib/gcc/nios2-elf/4.1.2/../../../../nios2-elf/lib\libc.a(lib_a-gdtoa-hexnan.o)
 .debug_pubnames
                0x00003210       0x26 c:/develop/altera/11.1/nios2eds/bin/gnu/h-i686-mingw32/bin/../lib/gcc/nios2-elf/4.1.2/../../../../nios2-elf/lib\libc.a(lib_a-gettimeofdayr.o)
 .debug_pubnames
                0x00003236       0x22 c:/develop/altera/11.1/nios2eds/bin/gnu/h-i686-mingw32/bin/../lib/gcc/nios2-elf/4.1.2/../../../../nios2-elf/lib\libc.a(lib_a-gettzinfo.o)
 .debug_pubnames
                0x00003258       0x20 c:/develop/altera/11.1/nios2eds/bin/gnu/h-i686-mingw32/bin/../lib/gcc/nios2-elf/4.1.2/../../../../nios2-elf/lib\libc.a(lib_a-isattyr.o)
 .debug_pubnames
                0x00003278       0x1f c:/develop/altera/11.1/nios2eds/bin/gnu/h-i686-mingw32/bin/../lib/gcc/nios2-elf/4.1.2/../../../../nios2-elf/lib\libc.a(lib_a-iswspace.o)
 .debug_pubnames
                0x00003297       0x1b c:/develop/altera/11.1/nios2eds/bin/gnu/h-i686-mingw32/bin/../lib/gcc/nios2-elf/4.1.2/../../../../nios2-elf/lib\libc.a(lib_a-labs.o)
 .debug_pubnames
                0x000032b2       0x1f c:/develop/altera/11.1/nios2eds/bin/gnu/h-i686-mingw32/bin/../lib/gcc/nios2-elf/4.1.2/../../../../nios2-elf/lib\libc.a(lib_a-lseekr.o)
 .debug_pubnames
                0x000032d1       0x2d c:/develop/altera/11.1/nios2eds/bin/gnu/h-i686-mingw32/bin/../lib/gcc/nios2-elf/4.1.2/../../../../nios2-elf/lib\libc.a(lib_a-mbrtowc.o)
 .debug_pubnames
                0x000032fe       0x20 c:/develop/altera/11.1/nios2eds/bin/gnu/h-i686-mingw32/bin/../lib/gcc/nios2-elf/4.1.2/../../../../nios2-elf/lib\libc.a(lib_a-mbtowc_r.o)
 .debug_pubnames
                0x0000331e       0x1e c:/develop/altera/11.1/nios2eds/bin/gnu/h-i686-mingw32/bin/../lib/gcc/nios2-elf/4.1.2/../../../../nios2-elf/lib\libc.a(lib_a-memmove.o)
 .debug_pubnames
                0x0000333c      0x13a c:/develop/altera/11.1/nios2eds/bin/gnu/h-i686-mingw32/bin/../lib/gcc/nios2-elf/4.1.2/../../../../nios2-elf/lib\libc.a(lib_a-mprec.o)
 .debug_pubnames
                0x00003476       0x27 c:/develop/altera/11.1/nios2eds/bin/gnu/h-i686-mingw32/bin/../lib/gcc/nios2-elf/4.1.2/../../../../nios2-elf/lib\libc.a(lib_a-putc.o)
 .debug_pubnames
                0x0000349d       0x1e c:/develop/altera/11.1/nios2eds/bin/gnu/h-i686-mingw32/bin/../lib/gcc/nios2-elf/4.1.2/../../../../nios2-elf/lib\libc.a(lib_a-readr.o)
 .debug_pubnames
                0x000034bb       0x1f c:/develop/altera/11.1/nios2eds/bin/gnu/h-i686-mingw32/bin/../lib/gcc/nios2-elf/4.1.2/../../../../nios2-elf/lib\libc.a(lib_a-s_isinfd.o)
 .debug_pubnames
                0x000034da       0x1d c:/develop/altera/11.1/nios2eds/bin/gnu/h-i686-mingw32/bin/../lib/gcc/nios2-elf/4.1.2/../../../../nios2-elf/lib\libc.a(lib_a-sccl.o)
 .debug_pubnames
                0x000034f7       0x1b c:/develop/altera/11.1/nios2eds/bin/gnu/h-i686-mingw32/bin/../lib/gcc/nios2-elf/4.1.2/../../../../nios2-elf/lib\libc.a(lib_a-sf_nan.o)
 .debug_pubnames
                0x00003512       0x2f c:/develop/altera/11.1/nios2eds/bin/gnu/h-i686-mingw32/bin/../lib/gcc/nios2-elf/4.1.2/../../../../nios2-elf/lib\libc.a(lib_a-snprintf.o)
 .debug_pubnames
                0x00003541       0x2b c:/develop/altera/11.1/nios2eds/bin/gnu/h-i686-mingw32/bin/../lib/gcc/nios2-elf/4.1.2/../../../../nios2-elf/lib\libc.a(lib_a-strtol.o)
 .debug_pubnames
                0x0000356c       0x21 c:/develop/altera/11.1/nios2eds/bin/gnu/h-i686-mingw32/bin/../lib/gcc/nios2-elf/4.1.2/../../../../nios2-elf/lib\libc.a(lib_a-strtoll_r.o)
 .debug_pubnames
                0x0000358d       0x2d c:/develop/altera/11.1/nios2eds/bin/gnu/h-i686-mingw32/bin/../lib/gcc/nios2-elf/4.1.2/../../../../nios2-elf/lib\libc.a(lib_a-strtoul.o)
 .debug_pubnames
                0x000035ba       0x22 c:/develop/altera/11.1/nios2eds/bin/gnu/h-i686-mingw32/bin/../lib/gcc/nios2-elf/4.1.2/../../../../nios2-elf/lib\libc.a(lib_a-strtoull_r.o)
 .debug_pubnames
                0x000035dc       0x2c c:/develop/altera/11.1/nios2eds/bin/gnu/h-i686-mingw32/bin/../lib/gcc/nios2-elf/4.1.2/../../../../nios2-elf/lib\libc.a(lib_a-wbuf.o)
 .debug_pubnames
                0x00003608       0x20 c:/develop/altera/11.1/nios2eds/bin/gnu/h-i686-mingw32/bin/../lib/gcc/nios2-elf/4.1.2/../../../../nios2-elf/lib\libc.a(lib_a-callocr.o)
 .debug_pubnames
                0x00003628       0x20 c:/develop/altera/11.1/nios2eds/bin/gnu/h-i686-mingw32/bin/../lib/gcc/nios2-elf/4.1.2\libgcc.a(_udivdi3.o)
 .debug_pubnames
                0x00003648       0x20 c:/develop/altera/11.1/nios2eds/bin/gnu/h-i686-mingw32/bin/../lib/gcc/nios2-elf/4.1.2\libgcc.a(_umoddi3.o)
 .debug_pubnames
                0x00003668       0x1e c:/develop/altera/11.1/nios2eds/bin/gnu/h-i686-mingw32/bin/../lib/gcc/nios2-elf/4.1.2\libgcc.a(_ne_sf.o)
 .debug_pubnames
                0x00003686       0x1e c:/develop/altera/11.1/nios2eds/bin/gnu/h-i686-mingw32/bin/../lib/gcc/nios2-elf/4.1.2\libgcc.a(_gt_sf.o)
 .debug_pubnames
                0x000036a4       0x1e c:/develop/altera/11.1/nios2eds/bin/gnu/h-i686-mingw32/bin/../lib/gcc/nios2-elf/4.1.2\libgcc.a(_lt_sf.o)
 .debug_pubnames
                0x000036c2       0x23 c:/develop/altera/11.1/nios2eds/bin/gnu/h-i686-mingw32/bin/../lib/gcc/nios2-elf/4.1.2\libgcc.a(_df_to_sf.o)
 .debug_pubnames
                0x000036e5       0x21 c:/develop/altera/11.1/nios2eds/bin/gnu/h-i686-mingw32/bin/../lib/gcc/nios2-elf/4.1.2\libgcc.a(_unpack_sf.o)
 .debug_pubnames
                0x00003706       0x26 c:/develop/altera/11.1/nios2eds/bin/gnu/h-i686-mingw32/bin/../lib/gcc/nios2-elf/4.1.2\libgcc.a(_fpcmp_parts_sf.o)
 .debug_pubnames
                0x0000372c       0x20 c:/develop/altera/11.1/nios2eds/bin/gnu/h-i686-mingw32/bin/../lib/gcc/nios2-elf/4.1.2\libgcc.a(_make_sf.o)
 .debug_pubnames
                0x0000374c       0x1f c:/develop/altera/11.1/nios2eds/bin/gnu/h-i686-mingw32/bin/../lib/gcc/nios2-elf/4.1.2\libgcc.a(_pack_sf.o)
 .debug_pubnames
                0x0000376b       0x1c ../Cineraria_DE0_HAL_bsp/\libhal_bsp.a(alt_close.o)
 .debug_pubnames
                0x00003787       0x63 ../Cineraria_DE0_HAL_bsp/\libhal_bsp.a(alt_dev.o)
 .debug_pubnames
                0x000037ea       0x32 ../Cineraria_DE0_HAL_bsp/\libhal_bsp.a(alt_env_lock.o)
 .debug_pubnames
                0x0000381c       0x20 ../Cineraria_DE0_HAL_bsp/\libhal_bsp.a(alt_errno.o)
 .debug_pubnames
                0x0000383c       0x1c ../Cineraria_DE0_HAL_bsp/\libhal_bsp.a(alt_exit.o)
 .debug_pubnames
                0x00003858       0x21 ../Cineraria_DE0_HAL_bsp/\libhal_bsp.a(alt_fs_reg.o)
 .debug_pubnames
                0x00003879       0x1c ../Cineraria_DE0_HAL_bsp/\libhal_bsp.a(alt_fstat.o)
 .debug_pubnames
                0x00003895       0x1d ../Cineraria_DE0_HAL_bsp/\libhal_bsp.a(alt_getpid.o)
 .debug_pubnames
                0x000038b2       0x46 ../Cineraria_DE0_HAL_bsp/\libhal_bsp.a(alt_gettod.o)
 .debug_pubnames
                0x000038f8       0x1d ../Cineraria_DE0_HAL_bsp/\libhal_bsp.a(alt_isatty.o)
 .debug_pubnames
                0x00003915       0x1b ../Cineraria_DE0_HAL_bsp/\libhal_bsp.a(alt_kill.o)
 .debug_pubnames
                0x00003930       0x1c ../Cineraria_DE0_HAL_bsp/\libhal_bsp.a(alt_lseek.o)
 .debug_pubnames
                0x0000394c       0x46 ../Cineraria_DE0_HAL_bsp/\libhal_bsp.a(alt_main.o)
 .debug_pubnames
                0x00003992       0x38 ../Cineraria_DE0_HAL_bsp/\libhal_bsp.a(alt_malloc_lock.o)
 .debug_pubnames
                0x000039ca       0x1b ../Cineraria_DE0_HAL_bsp/\libhal_bsp.a(alt_open.o)
 .debug_pubnames
                0x000039e5       0x1b ../Cineraria_DE0_HAL_bsp/\libhal_bsp.a(alt_read.o)
 .debug_pubnames
                0x00003a00       0x25 ../Cineraria_DE0_HAL_bsp/\libhal_bsp.a(alt_release_fd.o)
 .debug_pubnames
                0x00003a25       0x1b ../Cineraria_DE0_HAL_bsp/\libhal_bsp.a(alt_sbrk.o)
 .debug_pubnames
                0x00003a40       0x68 ../Cineraria_DE0_HAL_bsp/\libhal_bsp.a(alt_tick.o)
 .debug_pubnames
                0x00003aa8       0x1c ../Cineraria_DE0_HAL_bsp/\libhal_bsp.a(alt_times.o)
 .debug_pubnames
                0x00003ac4       0x1c ../Cineraria_DE0_HAL_bsp/\libhal_bsp.a(alt_write.o)
 .debug_pubnames
                0x00003ae0       0x34 ../Cineraria_DE0_HAL_bsp/\libhal_bsp.a(alt_sys_init.o)
 .debug_pubnames
                0x00003b14       0xac ../Cineraria_DE0_HAL_bsp/\libhal_bsp.a(altera_avalon_cfi_flash.o)
 .debug_pubnames
                0x00003bc0      0x27a ../Cineraria_DE0_HAL_bsp/\libhal_bsp.a(altera_avalon_cfi_flash_table.o)
 .debug_pubnames
                0x00003e3a       0xb5 ../Cineraria_DE0_HAL_bsp/\libhal_bsp.a(altera_avalon_epcs_flash_controller.o)
 .debug_pubnames
                0x00003eef       0xa5 ../Cineraria_DE0_HAL_bsp/\libhal_bsp.a(altera_avalon_jtag_uart_fd.o)
 .debug_pubnames
                0x00003f94       0x55 ../Cineraria_DE0_HAL_bsp/\libhal_bsp.a(altera_avalon_jtag_uart_init.o)
 .debug_pubnames
                0x00003fe9       0x34 ../Cineraria_DE0_HAL_bsp/\libhal_bsp.a(altera_avalon_jtag_uart_ioctl.o)
 .debug_pubnames
                0x0000401d       0x33 ../Cineraria_DE0_HAL_bsp/\libhal_bsp.a(altera_avalon_jtag_uart_read.o)
 .debug_pubnames
                0x00004050       0x34 ../Cineraria_DE0_HAL_bsp/\libhal_bsp.a(altera_avalon_jtag_uart_write.o)
 .debug_pubnames
                0x00004084       0x2f ../Cineraria_DE0_HAL_bsp/\libhal_bsp.a(altera_avalon_timer_sc.o)
 .debug_pubnames
                0x000040b3       0x71 ../Cineraria_DE0_HAL_bsp/\libhal_bsp.a(altera_avalon_uart_fd.o)
 .debug_pubnames
                0x00004124       0x4b ../Cineraria_DE0_HAL_bsp/\libhal_bsp.a(altera_avalon_uart_init.o)
 .debug_pubnames
                0x0000416f       0x2e ../Cineraria_DE0_HAL_bsp/\libhal_bsp.a(altera_avalon_uart_read.o)
 .debug_pubnames
                0x0000419d       0x2f ../Cineraria_DE0_HAL_bsp/\libhal_bsp.a(altera_avalon_uart_write.o)
 .debug_pubnames
                0x000041cc       0xe1 ../Cineraria_DE0_HAL_bsp/\libhal_bsp.a(epcs_commands.o)
 .debug_pubnames
                0x000042ad       0x26 ../Cineraria_DE0_HAL_bsp/\libhal_bsp.a(alt_alarm_start.o)
 .debug_pubnames
                0x000042d3       0x27 ../Cineraria_DE0_HAL_bsp/\libhal_bsp.a(alt_dcache_flush.o)
 .debug_pubnames
                0x000042fa       0x2b ../Cineraria_DE0_HAL_bsp/\libhal_bsp.a(alt_dev_llist_insert.o)
 .debug_pubnames
                0x00004325       0x20 ../Cineraria_DE0_HAL_bsp/\libhal_bsp.a(alt_do_ctors.o)
 .debug_pubnames
                0x00004345       0x20 ../Cineraria_DE0_HAL_bsp/\libhal_bsp.a(alt_do_dtors.o)
 .debug_pubnames
                0x00004365       0x23 ../Cineraria_DE0_HAL_bsp/\libhal_bsp.a(alt_find_dev.o)
 .debug_pubnames
                0x00004388       0x24 ../Cineraria_DE0_HAL_bsp/\libhal_bsp.a(alt_find_file.o)
 .debug_pubnames
                0x000043ac       0x58 ../Cineraria_DE0_HAL_bsp/\libhal_bsp.a(alt_flash_dev.o)
 .debug_pubnames
                0x00004404       0x21 ../Cineraria_DE0_HAL_bsp/\libhal_bsp.a(alt_get_fd.o)
 .debug_pubnames
                0x00004425       0x6e ../Cineraria_DE0_HAL_bsp/\libhal_bsp.a(alt_iic.o)
 .debug_pubnames
                0x00004493       0x2b ../Cineraria_DE0_HAL_bsp/\libhal_bsp.a(alt_iic_isr_register.o)
 .debug_pubnames
                0x000044be       0x26 ../Cineraria_DE0_HAL_bsp/\libhal_bsp.a(alt_io_redirect.o)
 .debug_pubnames
                0x000044e4       0x32 ../Cineraria_DE0_HAL_bsp/\libhal_bsp.a(alt_irq_handler.o)
 .debug_pubnames
                0x00004516       0x3b ../Cineraria_DE0_HAL_bsp/\libhal_bsp.a(alt_irq_vars.o)
 .debug_pubnames
                0x00004551       0x2c ../Cineraria_DE0_HAL_bsp/\libhal_bsp.a(altera_nios2_irq.o)
 .debug_pubnames
                0x0000457d       0x3e ../Cineraria_DE0_HAL_bsp/\libhal_bsp.a(altera_avalon_cfi_flash_amd.o)
 .debug_pubnames
                0x000045bb       0x42 ../Cineraria_DE0_HAL_bsp/\libhal_bsp.a(altera_avalon_cfi_flash_intel.o)
 .debug_pubnames
                0x000045fd       0x2d ../Cineraria_DE0_HAL_bsp/\libhal_bsp.a(altera_avalon_spi.o)
 .debug_pubnames
                0x0000462a       0x1d ../Cineraria_DE0_HAL_bsp/\libhal_bsp.a(alt_usleep.o)
 .debug_pubnames
                0x00004647       0x25 ../Cineraria_DE0_HAL_bsp/\libhal_bsp.a(alt_busy_sleep.o)
 .debug_pubnames
                0x0000466c       0x2a c:/develop/altera/11.1/nios2eds/bin/gnu/h-i686-mingw32/bin/../lib/gcc/nios2-elf/4.1.2/../../../../nios2-elf/lib\libc.a(lib_a-atexit.o)
 .debug_pubnames
                0x00004696       0x2a c:/develop/altera/11.1/nios2eds/bin/gnu/h-i686-mingw32/bin/../lib/gcc/nios2-elf/4.1.2/../../../../nios2-elf/lib\libc.a(lib_a-__atexit.o)

.debug_info     0x00000000    0x77f33
 *(.debug_info .gnu.linkonce.wi.*)
 .debug_info    0x00000000       0x7f ../Cineraria_DE0_HAL_bsp//obj/HAL/src/crt0.o
 .debug_info    0x0000007f     0x319a obj/default/lua/lapi.o
 .debug_info    0x00003219     0x1eb6 obj/default/lua/lauxlib.o
 .debug_info    0x000050cf     0x11f5 obj/default/lua/lbaselib.o
 .debug_info    0x000062c4      0x571 obj/default/lua/lbitlib.o
 .debug_info    0x00006835     0x2aef obj/default/lua/lcode.o
 .debug_info    0x00009324      0x453 obj/default/lua/lcorolib.o
 .debug_info    0x00009777       0x91 obj/default/lua/lctype.o
 .debug_info    0x00009808     0x12c8 obj/default/lua/ldblib.o
 .debug_info    0x0000aad0     0x1f31 obj/default/lua/ldebug.o
 .debug_info    0x0000ca01     0x1ee8 obj/default/lua/ldo.o
 .debug_info    0x0000e8e9     0x1440 obj/default/lua/ldump.o
 .debug_info    0x0000fd29     0x12f7 obj/default/lua/lfunc.o
 .debug_info    0x00011020     0x207f obj/default/lua/lgc.o
 .debug_info    0x0001309f      0x185 obj/default/lua/linit.o
 .debug_info    0x00013224     0x173e obj/default/lua/liolib.o
 .debug_info    0x00014962     0x1b84 obj/default/lua/llex.o
 .debug_info    0x000164e6      0x6f2 obj/default/lua/lmathlib.o
 .debug_info    0x00016bd8     0x10d9 obj/default/lua/lmem.o
 .debug_info    0x00017cb1     0x1204 obj/default/lua/loadlib.o
 .debug_info    0x00018eb5     0x152f obj/default/lua/lobject.o
 .debug_info    0x0001a3e4       0xc2 obj/default/lua/lopcodes.o
 .debug_info    0x0001a4a6      0x76f obj/default/lua/loslib.o
 .debug_info    0x0001ac15     0x390b obj/default/lua/lparser.o
 .debug_info    0x0001e520     0x13aa obj/default/lua/lstate.o
 .debug_info    0x0001f8ca     0x1227 obj/default/lua/lstring.o
 .debug_info    0x00020af1     0x14fd obj/default/lua/lstrlib.o
 .debug_info    0x00021fee     0x1c35 obj/default/lua/ltable.o
 .debug_info    0x00023c23      0x4ec obj/default/lua/ltablib.o
 .debug_info    0x0002410f     0x11b5 obj/default/lua/ltm.o
 .debug_info    0x000252c4     0x1580 obj/default/lua/lundump.o
 .debug_info    0x00026844     0x2771 obj/default/lua/lvm.o
 .debug_info    0x00028fb5     0x1183 obj/default/lua/lzio.o
 .debug_info    0x0002a138       0xef obj/default/min.o
 .debug_info    0x0002a227     0x1bbb obj/default/mmcfs/fatfs/ff.o
 .debug_info    0x0002bde2      0x582 obj/default/mmcfs/fatfs/mmcbb.o
 .debug_info    0x0002c364      0x1eb obj/default/mmcfs/fatfs/option/cc932.o
 .debug_info    0x0002c54f       0x9c obj/default/mmcfs/gettime.o
 .debug_info    0x0002c5eb      0x24f obj/default/mmcfs/mmc_spi.o
 .debug_info    0x0002c83a      0x9eb obj/default/mmcfs/mmcfs.o
 .debug_info    0x0002d225      0x278 c:/develop/altera/11.1/nios2eds/bin/gnu/h-i686-mingw32/bin/../lib/gcc/nios2-elf/4.1.2/../../../../nios2-elf/lib\libm.a(lib_a-s_atan.o)
 .debug_info    0x0002d49d      0x1bf c:/develop/altera/11.1/nios2eds/bin/gnu/h-i686-mingw32/bin/../lib/gcc/nios2-elf/4.1.2/../../../../nios2-elf/lib\libm.a(lib_a-s_ceil.o)
 .debug_info    0x0002d65c       0xfd c:/develop/altera/11.1/nios2eds/bin/gnu/h-i686-mingw32/bin/../lib/gcc/nios2-elf/4.1.2/../../../../nios2-elf/lib\libm.a(lib_a-s_cos.o)
 .debug_info    0x0002d759      0x13b c:/develop/altera/11.1/nios2eds/bin/gnu/h-i686-mingw32/bin/../lib/gcc/nios2-elf/4.1.2/../../../../nios2-elf/lib\libm.a(lib_a-s_fabs.o)
 .debug_info    0x0002d894      0x1bf c:/develop/altera/11.1/nios2eds/bin/gnu/h-i686-mingw32/bin/../lib/gcc/nios2-elf/4.1.2/../../../../nios2-elf/lib\libm.a(lib_a-s_floor.o)
 .debug_info    0x0002da53      0x1d2 c:/develop/altera/11.1/nios2eds/bin/gnu/h-i686-mingw32/bin/../lib/gcc/nios2-elf/4.1.2/../../../../nios2-elf/lib\libm.a(lib_a-s_frexp.o)
 .debug_info    0x0002dc25       0xc7 c:/develop/altera/11.1/nios2eds/bin/gnu/h-i686-mingw32/bin/../lib/gcc/nios2-elf/4.1.2/../../../../nios2-elf/lib\libm.a(lib_a-s_ldexp.o)
 .debug_info    0x0002dcec      0x276 c:/develop/altera/11.1/nios2eds/bin/gnu/h-i686-mingw32/bin/../lib/gcc/nios2-elf/4.1.2/../../../../nios2-elf/lib\libm.a(lib_a-s_modf.o)
 .debug_info    0x0002df62      0x225 c:/develop/altera/11.1/nios2eds/bin/gnu/h-i686-mingw32/bin/../lib/gcc/nios2-elf/4.1.2/../../../../nios2-elf/lib\libm.a(lib_a-s_scalbn.o)
 .debug_info    0x0002e187       0xfd c:/develop/altera/11.1/nios2eds/bin/gnu/h-i686-mingw32/bin/../lib/gcc/nios2-elf/4.1.2/../../../../nios2-elf/lib\libm.a(lib_a-s_sin.o)
 .debug_info    0x0002e284       0xfd c:/develop/altera/11.1/nios2eds/bin/gnu/h-i686-mingw32/bin/../lib/gcc/nios2-elf/4.1.2/../../../../nios2-elf/lib\libm.a(lib_a-s_tan.o)
 .debug_info    0x0002e381      0x1b9 c:/develop/altera/11.1/nios2eds/bin/gnu/h-i686-mingw32/bin/../lib/gcc/nios2-elf/4.1.2/../../../../nios2-elf/lib\libm.a(lib_a-s_tanh.o)
 .debug_info    0x0002e53a      0x18c c:/develop/altera/11.1/nios2eds/bin/gnu/h-i686-mingw32/bin/../lib/gcc/nios2-elf/4.1.2/../../../../nios2-elf/lib\libm.a(lib_a-w_acos.o)
 .debug_info    0x0002e6c6      0x18c c:/develop/altera/11.1/nios2eds/bin/gnu/h-i686-mingw32/bin/../lib/gcc/nios2-elf/4.1.2/../../../../nios2-elf/lib\libm.a(lib_a-w_asin.o)
 .debug_info    0x0002e852       0xc1 c:/develop/altera/11.1/nios2eds/bin/gnu/h-i686-mingw32/bin/../lib/gcc/nios2-elf/4.1.2/../../../../nios2-elf/lib\libm.a(lib_a-w_atan2.o)
 .debug_info    0x0002e913      0x18c c:/develop/altera/11.1/nios2eds/bin/gnu/h-i686-mingw32/bin/../lib/gcc/nios2-elf/4.1.2/../../../../nios2-elf/lib\libm.a(lib_a-w_cosh.o)
 .debug_info    0x0002ea9f      0x1a4 c:/develop/altera/11.1/nios2eds/bin/gnu/h-i686-mingw32/bin/../lib/gcc/nios2-elf/4.1.2/../../../../nios2-elf/lib\libm.a(lib_a-w_exp.o)
 .debug_info    0x0002ec43      0x1b3 c:/develop/altera/11.1/nios2eds/bin/gnu/h-i686-mingw32/bin/../lib/gcc/nios2-elf/4.1.2/../../../../nios2-elf/lib\libm.a(lib_a-w_fmod.o)
 .debug_info    0x0002edf6      0x18c c:/develop/altera/11.1/nios2eds/bin/gnu/h-i686-mingw32/bin/../lib/gcc/nios2-elf/4.1.2/../../../../nios2-elf/lib\libm.a(lib_a-w_log.o)
 .debug_info    0x0002ef82      0x18c c:/develop/altera/11.1/nios2eds/bin/gnu/h-i686-mingw32/bin/../lib/gcc/nios2-elf/4.1.2/../../../../nios2-elf/lib\libm.a(lib_a-w_log10.o)
 .debug_info    0x0002f10e      0x1cc c:/develop/altera/11.1/nios2eds/bin/gnu/h-i686-mingw32/bin/../lib/gcc/nios2-elf/4.1.2/../../../../nios2-elf/lib\libm.a(lib_a-w_pow.o)
 .debug_info    0x0002f2da      0x177 c:/develop/altera/11.1/nios2eds/bin/gnu/h-i686-mingw32/bin/../lib/gcc/nios2-elf/4.1.2/../../../../nios2-elf/lib\libm.a(lib_a-w_sinh.o)
 .debug_info    0x0002f451      0x18c c:/develop/altera/11.1/nios2eds/bin/gnu/h-i686-mingw32/bin/../lib/gcc/nios2-elf/4.1.2/../../../../nios2-elf/lib\libm.a(lib_a-w_sqrt.o)
 .debug_info    0x0002f5dd      0x2fe c:/develop/altera/11.1/nios2eds/bin/gnu/h-i686-mingw32/bin/../lib/gcc/nios2-elf/4.1.2/../../../../nios2-elf/lib\libm.a(lib_a-e_acos.o)
 .debug_info    0x0002f8db      0x30e c:/develop/altera/11.1/nios2eds/bin/gnu/h-i686-mingw32/bin/../lib/gcc/nios2-elf/4.1.2/../../../../nios2-elf/lib\libm.a(lib_a-e_asin.o)
 .debug_info    0x0002fbe9      0x29a c:/develop/altera/11.1/nios2eds/bin/gnu/h-i686-mingw32/bin/../lib/gcc/nios2-elf/4.1.2/../../../../nios2-elf/lib\libm.a(lib_a-e_atan2.o)
 .debug_info    0x0002fe83      0x147 c:/develop/altera/11.1/nios2eds/bin/gnu/h-i686-mingw32/bin/../lib/gcc/nios2-elf/4.1.2/../../../../nios2-elf/lib\libm.a(lib_a-e_cosh.o)
 .debug_info    0x0002ffca      0x33a c:/develop/altera/11.1/nios2eds/bin/gnu/h-i686-mingw32/bin/../lib/gcc/nios2-elf/4.1.2/../../../../nios2-elf/lib\libm.a(lib_a-e_exp.o)
 .debug_info    0x00030304      0x282 c:/develop/altera/11.1/nios2eds/bin/gnu/h-i686-mingw32/bin/../lib/gcc/nios2-elf/4.1.2/../../../../nios2-elf/lib\libm.a(lib_a-e_fmod.o)
 .debug_info    0x00030586      0x312 c:/develop/altera/11.1/nios2eds/bin/gnu/h-i686-mingw32/bin/../lib/gcc/nios2-elf/4.1.2/../../../../nios2-elf/lib\libm.a(lib_a-e_log.o)
 .debug_info    0x00030898      0x233 c:/develop/altera/11.1/nios2eds/bin/gnu/h-i686-mingw32/bin/../lib/gcc/nios2-elf/4.1.2/../../../../nios2-elf/lib\libm.a(lib_a-e_log10.o)
 .debug_info    0x00030acb      0x726 c:/develop/altera/11.1/nios2eds/bin/gnu/h-i686-mingw32/bin/../lib/gcc/nios2-elf/4.1.2/../../../../nios2-elf/lib\libm.a(lib_a-e_pow.o)
 .debug_info    0x000311f1      0x364 c:/develop/altera/11.1/nios2eds/bin/gnu/h-i686-mingw32/bin/../lib/gcc/nios2-elf/4.1.2/../../../../nios2-elf/lib\libm.a(lib_a-e_rem_pio2.o)
 .debug_info    0x00031555      0x14e c:/develop/altera/11.1/nios2eds/bin/gnu/h-i686-mingw32/bin/../lib/gcc/nios2-elf/4.1.2/../../../../nios2-elf/lib\libm.a(lib_a-e_sinh.o)
 .debug_info    0x000316a3      0x23a c:/develop/altera/11.1/nios2eds/bin/gnu/h-i686-mingw32/bin/../lib/gcc/nios2-elf/4.1.2/../../../../nios2-elf/lib\libm.a(lib_a-e_sqrt.o)
 .debug_info    0x000318dd      0x21f c:/develop/altera/11.1/nios2eds/bin/gnu/h-i686-mingw32/bin/../lib/gcc/nios2-elf/4.1.2/../../../../nios2-elf/lib\libm.a(lib_a-k_cos.o)
 .debug_info    0x00031afc      0x2e6 c:/develop/altera/11.1/nios2eds/bin/gnu/h-i686-mingw32/bin/../lib/gcc/nios2-elf/4.1.2/../../../../nios2-elf/lib\libm.a(lib_a-k_rem_pio2.o)
 .debug_info    0x00031de2      0x19e c:/develop/altera/11.1/nios2eds/bin/gnu/h-i686-mingw32/bin/../lib/gcc/nios2-elf/4.1.2/../../../../nios2-elf/lib\libm.a(lib_a-k_sin.o)
 .debug_info    0x00031f80      0x2a1 c:/develop/altera/11.1/nios2eds/bin/gnu/h-i686-mingw32/bin/../lib/gcc/nios2-elf/4.1.2/../../../../nios2-elf/lib\libm.a(lib_a-k_tan.o)
 .debug_info    0x00032221      0x154 c:/develop/altera/11.1/nios2eds/bin/gnu/h-i686-mingw32/bin/../lib/gcc/nios2-elf/4.1.2/../../../../nios2-elf/lib\libm.a(lib_a-s_copysign.o)
 .debug_info    0x00032375      0x392 c:/develop/altera/11.1/nios2eds/bin/gnu/h-i686-mingw32/bin/../lib/gcc/nios2-elf/4.1.2/../../../../nios2-elf/lib\libm.a(lib_a-s_expm1.o)
 .debug_info    0x00032707      0x149 c:/develop/altera/11.1/nios2eds/bin/gnu/h-i686-mingw32/bin/../lib/gcc/nios2-elf/4.1.2/../../../../nios2-elf/lib\libm.a(lib_a-s_finite.o)
 .debug_info    0x00032850       0xd5 c:/develop/altera/11.1/nios2eds/bin/gnu/h-i686-mingw32/bin/../lib/gcc/nios2-elf/4.1.2/../../../../nios2-elf/lib\libm.a(lib_a-s_isnand.o)
 .debug_info    0x00032925       0xc7 c:/develop/altera/11.1/nios2eds/bin/gnu/h-i686-mingw32/bin/../lib/gcc/nios2-elf/4.1.2/../../../../nios2-elf/lib\libm.a(lib_a-s_lib_ver.o)
 .debug_info    0x000329ec      0x133 c:/develop/altera/11.1/nios2eds/bin/gnu/h-i686-mingw32/bin/../lib/gcc/nios2-elf/4.1.2/../../../../nios2-elf/lib\libm.a(lib_a-s_matherr.o)
 .debug_info    0x00032b1f      0x145 c:/develop/altera/11.1/nios2eds/bin/gnu/h-i686-mingw32/bin/../lib/gcc/nios2-elf/4.1.2/../../../../nios2-elf/lib\libm.a(lib_a-s_nan.o)
 .debug_info    0x00032c64      0x208 c:/develop/altera/11.1/nios2eds/bin/gnu/h-i686-mingw32/bin/../lib/gcc/nios2-elf/4.1.2/../../../../nios2-elf/lib\libm.a(lib_a-s_rint.o)
 .debug_info    0x00032e6c       0xce c:/develop/altera/11.1/nios2eds/bin/gnu/h-i686-mingw32/bin/../lib/gcc/nios2-elf/4.1.2\libgcc.a(_fixunsdfsi.o)
 .debug_info    0x00032f3a      0x493 c:/develop/altera/11.1/nios2eds/bin/gnu/h-i686-mingw32/bin/../lib/gcc/nios2-elf/4.1.2\libgcc.a(_addsub_df.o)
 .debug_info    0x000333cd      0x488 c:/develop/altera/11.1/nios2eds/bin/gnu/h-i686-mingw32/bin/../lib/gcc/nios2-elf/4.1.2\libgcc.a(_mul_df.o)
 .debug_info    0x00033855      0x39b c:/develop/altera/11.1/nios2eds/bin/gnu/h-i686-mingw32/bin/../lib/gcc/nios2-elf/4.1.2\libgcc.a(_div_df.o)
 .debug_info    0x00033bf0      0x29d c:/develop/altera/11.1/nios2eds/bin/gnu/h-i686-mingw32/bin/../lib/gcc/nios2-elf/4.1.2\libgcc.a(_eq_df.o)
 .debug_info    0x00033e8d      0x29d c:/develop/altera/11.1/nios2eds/bin/gnu/h-i686-mingw32/bin/../lib/gcc/nios2-elf/4.1.2\libgcc.a(_ne_df.o)
 .debug_info    0x0003412a      0x29d c:/develop/altera/11.1/nios2eds/bin/gnu/h-i686-mingw32/bin/../lib/gcc/nios2-elf/4.1.2\libgcc.a(_gt_df.o)
 .debug_info    0x000343c7      0x29d c:/develop/altera/11.1/nios2eds/bin/gnu/h-i686-mingw32/bin/../lib/gcc/nios2-elf/4.1.2\libgcc.a(_ge_df.o)
 .debug_info    0x00034664      0x29d c:/develop/altera/11.1/nios2eds/bin/gnu/h-i686-mingw32/bin/../lib/gcc/nios2-elf/4.1.2\libgcc.a(_lt_df.o)
 .debug_info    0x00034901      0x29d c:/develop/altera/11.1/nios2eds/bin/gnu/h-i686-mingw32/bin/../lib/gcc/nios2-elf/4.1.2\libgcc.a(_le_df.o)
 .debug_info    0x00034b9e      0x218 c:/develop/altera/11.1/nios2eds/bin/gnu/h-i686-mingw32/bin/../lib/gcc/nios2-elf/4.1.2\libgcc.a(_si_to_df.o)
 .debug_info    0x00034db6      0x2cd c:/develop/altera/11.1/nios2eds/bin/gnu/h-i686-mingw32/bin/../lib/gcc/nios2-elf/4.1.2\libgcc.a(_df_to_si.o)
 .debug_info    0x00035083      0x164 c:/develop/altera/11.1/nios2eds/bin/gnu/h-i686-mingw32/bin/../lib/gcc/nios2-elf/4.1.2\libgcc.a(_thenan_df.o)
 .debug_info    0x000351e7      0x213 c:/develop/altera/11.1/nios2eds/bin/gnu/h-i686-mingw32/bin/../lib/gcc/nios2-elf/4.1.2\libgcc.a(_usi_to_df.o)
 .debug_info    0x000353fa      0x21c c:/develop/altera/11.1/nios2eds/bin/gnu/h-i686-mingw32/bin/../lib/gcc/nios2-elf/4.1.2\libgcc.a(lib2-divmod.o)
 .debug_info    0x00035616      0x215 c:/develop/altera/11.1/nios2eds/bin/gnu/h-i686-mingw32/bin/../lib/gcc/nios2-elf/4.1.2\libgcc.a(_muldi3.o)
 .debug_info    0x0003582b      0x130 c:/develop/altera/11.1/nios2eds/bin/gnu/h-i686-mingw32/bin/../lib/gcc/nios2-elf/4.1.2\libgcc.a(_clzsi2.o)
 .debug_info    0x0003595b      0x2fc c:/develop/altera/11.1/nios2eds/bin/gnu/h-i686-mingw32/bin/../lib/gcc/nios2-elf/4.1.2\libgcc.a(_pack_df.o)
 .debug_info    0x00035c57      0x268 c:/develop/altera/11.1/nios2eds/bin/gnu/h-i686-mingw32/bin/../lib/gcc/nios2-elf/4.1.2\libgcc.a(_unpack_df.o)
 .debug_info    0x00035ebf      0x21b c:/develop/altera/11.1/nios2eds/bin/gnu/h-i686-mingw32/bin/../lib/gcc/nios2-elf/4.1.2\libgcc.a(_fpcmp_parts_df.o)
 .debug_info    0x000360da       0xc9 c:/develop/altera/11.1/nios2eds/bin/gnu/h-i686-mingw32/bin/../lib/gcc/nios2-elf/4.1.2\libgcc.a(_clz.o)
 .debug_info    0x000361a3       0x8f c:/develop/altera/11.1/nios2eds/bin/gnu/h-i686-mingw32/bin/../lib/gcc/nios2-elf/4.1.2/../../../../nios2-elf/lib\libc.a(lib_a-abort.o)
 .debug_info    0x00036232      0x99c c:/develop/altera/11.1/nios2eds/bin/gnu/h-i686-mingw32/bin/../lib/gcc/nios2-elf/4.1.2/../../../../nios2-elf/lib\libc.a(lib_a-clock.o)
 .debug_info    0x00036bce       0xa0 c:/develop/altera/11.1/nios2eds/bin/gnu/h-i686-mingw32/bin/../lib/gcc/nios2-elf/4.1.2/../../../../nios2-elf/lib\libc.a(lib_a-ctype_.o)
 .debug_info    0x00036c6e       0xc8 c:/develop/altera/11.1/nios2eds/bin/gnu/h-i686-mingw32/bin/../lib/gcc/nios2-elf/4.1.2/../../../../nios2-elf/lib\libc.a(lib_a-difftime.o)
 .debug_info    0x00036d36      0x92e c:/develop/altera/11.1/nios2eds/bin/gnu/h-i686-mingw32/bin/../lib/gcc/nios2-elf/4.1.2/../../../../nios2-elf/lib\libc.a(lib_a-errno.o)
 .debug_info    0x00037664      0x93f c:/develop/altera/11.1/nios2eds/bin/gnu/h-i686-mingw32/bin/../lib/gcc/nios2-elf/4.1.2/../../../../nios2-elf/lib\libc.a(lib_a-exit.o)
 .debug_info    0x00037fa3      0x994 c:/develop/altera/11.1/nios2eds/bin/gnu/h-i686-mingw32/bin/../lib/gcc/nios2-elf/4.1.2/../../../../nios2-elf/lib\libc.a(lib_a-fclose.o)
 .debug_info    0x00038937      0x9fe c:/develop/altera/11.1/nios2eds/bin/gnu/h-i686-mingw32/bin/../lib/gcc/nios2-elf/4.1.2/../../../../nios2-elf/lib\libc.a(lib_a-fflush.o)
 .debug_info    0x00039335      0xa00 c:/develop/altera/11.1/nios2eds/bin/gnu/h-i686-mingw32/bin/../lib/gcc/nios2-elf/4.1.2/../../../../nios2-elf/lib\libc.a(lib_a-fgets.o)
 .debug_info    0x00039d35      0xb72 c:/develop/altera/11.1/nios2eds/bin/gnu/h-i686-mingw32/bin/../lib/gcc/nios2-elf/4.1.2/../../../../nios2-elf/lib\libc.a(lib_a-findfp.o)
 .debug_info    0x0003a8a7      0x9e0 c:/develop/altera/11.1/nios2eds/bin/gnu/h-i686-mingw32/bin/../lib/gcc/nios2-elf/4.1.2/../../../../nios2-elf/lib\libc.a(lib_a-fopen.o)
 .debug_info    0x0003b287      0x9e1 c:/develop/altera/11.1/nios2eds/bin/gnu/h-i686-mingw32/bin/../lib/gcc/nios2-elf/4.1.2/../../../../nios2-elf/lib\libc.a(lib_a-fprintf.o)
 .debug_info    0x0003bc68      0xa77 c:/develop/altera/11.1/nios2eds/bin/gnu/h-i686-mingw32/bin/../lib/gcc/nios2-elf/4.1.2/../../../../nios2-elf/lib\libc.a(lib_a-fread.o)
 .debug_info    0x0003c6df      0xbc9 c:/develop/altera/11.1/nios2eds/bin/gnu/h-i686-mingw32/bin/../lib/gcc/nios2-elf/4.1.2/../../../../nios2-elf/lib\libc.a(lib_a-freer.o)
 .debug_info    0x0003d2a8      0x9fb c:/develop/altera/11.1/nios2eds/bin/gnu/h-i686-mingw32/bin/../lib/gcc/nios2-elf/4.1.2/../../../../nios2-elf/lib\libc.a(lib_a-freopen.o)
 .debug_info    0x0003dca3      0x9f3 c:/develop/altera/11.1/nios2eds/bin/gnu/h-i686-mingw32/bin/../lib/gcc/nios2-elf/4.1.2/../../../../nios2-elf/lib\libc.a(lib_a-fscanf.o)
 .debug_info    0x0003e696      0xbdc c:/develop/altera/11.1/nios2eds/bin/gnu/h-i686-mingw32/bin/../lib/gcc/nios2-elf/4.1.2/../../../../nios2-elf/lib\libc.a(lib_a-fseek.o)
 .debug_info    0x0003f272      0xafc c:/develop/altera/11.1/nios2eds/bin/gnu/h-i686-mingw32/bin/../lib/gcc/nios2-elf/4.1.2/../../../../nios2-elf/lib\libc.a(lib_a-fstatr.o)
 .debug_info    0x0003fd6e      0x996 c:/develop/altera/11.1/nios2eds/bin/gnu/h-i686-mingw32/bin/../lib/gcc/nios2-elf/4.1.2/../../../../nios2-elf/lib\libc.a(lib_a-ftell.o)
 .debug_info    0x00040704      0xaed c:/develop/altera/11.1/nios2eds/bin/gnu/h-i686-mingw32/bin/../lib/gcc/nios2-elf/4.1.2/../../../../nios2-elf/lib\libc.a(lib_a-fwalk.o)
 .debug_info    0x000411f1      0xa83 c:/develop/altera/11.1/nios2eds/bin/gnu/h-i686-mingw32/bin/../lib/gcc/nios2-elf/4.1.2/../../../../nios2-elf/lib\libc.a(lib_a-fwrite.o)
 .debug_info    0x00041c74      0x9a7 c:/develop/altera/11.1/nios2eds/bin/gnu/h-i686-mingw32/bin/../lib/gcc/nios2-elf/4.1.2/../../../../nios2-elf/lib\libc.a(lib_a-getc.o)
 .debug_info    0x0004261b      0x98c c:/develop/altera/11.1/nios2eds/bin/gnu/h-i686-mingw32/bin/../lib/gcc/nios2-elf/4.1.2/../../../../nios2-elf/lib\libc.a(lib_a-getenv.o)
 .debug_info    0x00042fa7      0x9f0 c:/develop/altera/11.1/nios2eds/bin/gnu/h-i686-mingw32/bin/../lib/gcc/nios2-elf/4.1.2/../../../../nios2-elf/lib\libc.a(lib_a-getenv_r.o)
 .debug_info    0x00043997      0x9e2 c:/develop/altera/11.1/nios2eds/bin/gnu/h-i686-mingw32/bin/../lib/gcc/nios2-elf/4.1.2/../../../../nios2-elf/lib\libc.a(lib_a-gmtime.o)
 .debug_info    0x00044379      0x15a c:/develop/altera/11.1/nios2eds/bin/gnu/h-i686-mingw32/bin/../lib/gcc/nios2-elf/4.1.2/../../../../nios2-elf/lib\libc.a(lib_a-gmtime_r.o)
 .debug_info    0x000444d3      0x93d c:/develop/altera/11.1/nios2eds/bin/gnu/h-i686-mingw32/bin/../lib/gcc/nios2-elf/4.1.2/../../../../nios2-elf/lib\libc.a(lib_a-impure.o)
 .debug_info    0x00044e10       0x8c c:/develop/altera/11.1/nios2eds/bin/gnu/h-i686-mingw32/bin/../lib/gcc/nios2-elf/4.1.2/../../../../nios2-elf/lib\libc.a(lib_a-int_errno.o)
 .debug_info    0x00044e9c      0x9e2 c:/develop/altera/11.1/nios2eds/bin/gnu/h-i686-mingw32/bin/../lib/gcc/nios2-elf/4.1.2/../../../../nios2-elf/lib\libc.a(lib_a-lcltime.o)
 .debug_info    0x0004587e      0x15a c:/develop/altera/11.1/nios2eds/bin/gnu/h-i686-mingw32/bin/../lib/gcc/nios2-elf/4.1.2/../../../../nios2-elf/lib\libc.a(lib_a-lcltime_r.o)
 .debug_info    0x000459d8      0xb97 c:/develop/altera/11.1/nios2eds/bin/gnu/h-i686-mingw32/bin/../lib/gcc/nios2-elf/4.1.2/../../../../nios2-elf/lib\libc.a(lib_a-locale.o)
 .debug_info    0x0004656f      0xb1a c:/develop/altera/11.1/nios2eds/bin/gnu/h-i686-mingw32/bin/../lib/gcc/nios2-elf/4.1.2/../../../../nios2-elf/lib\libc.a(lib_a-makebuf.o)
 .debug_info    0x00047089      0x96e c:/develop/altera/11.1/nios2eds/bin/gnu/h-i686-mingw32/bin/../lib/gcc/nios2-elf/4.1.2/../../../../nios2-elf/lib\libc.a(lib_a-malloc.o)
 .debug_info    0x000479f7      0xcd0 c:/develop/altera/11.1/nios2eds/bin/gnu/h-i686-mingw32/bin/../lib/gcc/nios2-elf/4.1.2/../../../../nios2-elf/lib\libc.a(lib_a-mallocr.o)
 .debug_info    0x000486c7      0x138 c:/develop/altera/11.1/nios2eds/bin/gnu/h-i686-mingw32/bin/../lib/gcc/nios2-elf/4.1.2/../../../../nios2-elf/lib\libc.a(lib_a-memchr.o)
 .debug_info    0x000487ff      0x115 c:/develop/altera/11.1/nios2eds/bin/gnu/h-i686-mingw32/bin/../lib/gcc/nios2-elf/4.1.2/../../../../nios2-elf/lib\libc.a(lib_a-memcmp.o)
 .debug_info    0x00048914      0x106 c:/develop/altera/11.1/nios2eds/bin/gnu/h-i686-mingw32/bin/../lib/gcc/nios2-elf/4.1.2/../../../../nios2-elf/lib\libc.a(lib_a-memcpy.o)
 .debug_info    0x00048a1a      0x113 c:/develop/altera/11.1/nios2eds/bin/gnu/h-i686-mingw32/bin/../lib/gcc/nios2-elf/4.1.2/../../../../nios2-elf/lib\libc.a(lib_a-memset.o)
 .debug_info    0x00048b2d      0x36a c:/develop/altera/11.1/nios2eds/bin/gnu/h-i686-mingw32/bin/../lib/gcc/nios2-elf/4.1.2/../../../../nios2-elf/lib\libc.a(lib_a-mktime.o)
 .debug_info    0x00048e97      0x403 c:/develop/altera/11.1/nios2eds/bin/gnu/h-i686-mingw32/bin/../lib/gcc/nios2-elf/4.1.2/../../../../nios2-elf/lib\libc.a(lib_a-mktm_r.o)
 .debug_info    0x0004929a      0x977 c:/develop/altera/11.1/nios2eds/bin/gnu/h-i686-mingw32/bin/../lib/gcc/nios2-elf/4.1.2/../../../../nios2-elf/lib\libc.a(lib_a-openr.o)
 .debug_info    0x00049c11      0x9d1 c:/develop/altera/11.1/nios2eds/bin/gnu/h-i686-mingw32/bin/../lib/gcc/nios2-elf/4.1.2/../../../../nios2-elf/lib\libc.a(lib_a-printf.o)
 .debug_info    0x0004a5e2      0x972 c:/develop/altera/11.1/nios2eds/bin/gnu/h-i686-mingw32/bin/../lib/gcc/nios2-elf/4.1.2/../../../../nios2-elf/lib\libc.a(lib_a-putchar.o)
 .debug_info    0x0004af54      0xa25 c:/develop/altera/11.1/nios2eds/bin/gnu/h-i686-mingw32/bin/../lib/gcc/nios2-elf/4.1.2/../../../../nios2-elf/lib\libc.a(lib_a-puts.o)
 .debug_info    0x0004b979      0x951 c:/develop/altera/11.1/nios2eds/bin/gnu/h-i686-mingw32/bin/../lib/gcc/nios2-elf/4.1.2/../../../../nios2-elf/lib\libc.a(lib_a-rand.o)
 .debug_info    0x0004c2ca      0x955 c:/develop/altera/11.1/nios2eds/bin/gnu/h-i686-mingw32/bin/../lib/gcc/nios2-elf/4.1.2/../../../../nios2-elf/lib\libc.a(lib_a-realloc.o)
 .debug_info    0x0004cc1f      0xbd7 c:/develop/altera/11.1/nios2eds/bin/gnu/h-i686-mingw32/bin/../lib/gcc/nios2-elf/4.1.2/../../../../nios2-elf/lib\libc.a(lib_a-reallocr.o)
 .debug_info    0x0004d7f6      0x98b c:/develop/altera/11.1/nios2eds/bin/gnu/h-i686-mingw32/bin/../lib/gcc/nios2-elf/4.1.2/../../../../nios2-elf/lib\libc.a(lib_a-refill.o)
 .debug_info    0x0004e181      0x987 c:/develop/altera/11.1/nios2eds/bin/gnu/h-i686-mingw32/bin/../lib/gcc/nios2-elf/4.1.2/../../../../nios2-elf/lib\libc.a(lib_a-rget.o)
 .debug_info    0x0004eb08      0x962 c:/develop/altera/11.1/nios2eds/bin/gnu/h-i686-mingw32/bin/../lib/gcc/nios2-elf/4.1.2/../../../../nios2-elf/lib\libc.a(lib_a-sbrkr.o)
 .debug_info    0x0004f46a      0x9a0 c:/develop/altera/11.1/nios2eds/bin/gnu/h-i686-mingw32/bin/../lib/gcc/nios2-elf/4.1.2/../../../../nios2-elf/lib\libc.a(lib_a-setvbuf.o)
 .debug_info    0x0004fe0a      0xae9 c:/develop/altera/11.1/nios2eds/bin/gnu/h-i686-mingw32/bin/../lib/gcc/nios2-elf/4.1.2/../../../../nios2-elf/lib\libc.a(lib_a-signal.o)
 .debug_info    0x000508f3      0x99e c:/develop/altera/11.1/nios2eds/bin/gnu/h-i686-mingw32/bin/../lib/gcc/nios2-elf/4.1.2/../../../../nios2-elf/lib\libc.a(lib_a-signalr.o)
 .debug_info    0x00051291      0xa16 c:/develop/altera/11.1/nios2eds/bin/gnu/h-i686-mingw32/bin/../lib/gcc/nios2-elf/4.1.2/../../../../nios2-elf/lib\libc.a(lib_a-sprintf.o)
 .debug_info    0x00051ca7      0xaac c:/develop/altera/11.1/nios2eds/bin/gnu/h-i686-mingw32/bin/../lib/gcc/nios2-elf/4.1.2/../../../../nios2-elf/lib\libc.a(lib_a-stdio.o)
 .debug_info    0x00052753      0x118 c:/develop/altera/11.1/nios2eds/bin/gnu/h-i686-mingw32/bin/../lib/gcc/nios2-elf/4.1.2/../../../../nios2-elf/lib\libc.a(lib_a-strchr.o)
 .debug_info    0x0005286b       0xdd c:/develop/altera/11.1/nios2eds/bin/gnu/h-i686-mingw32/bin/../lib/gcc/nios2-elf/4.1.2/../../../../nios2-elf/lib\libc.a(lib_a-strcmp.o)
 .debug_info    0x00052948       0xb7 c:/develop/altera/11.1/nios2eds/bin/gnu/h-i686-mingw32/bin/../lib/gcc/nios2-elf/4.1.2/../../../../nios2-elf/lib\libc.a(lib_a-strcoll.o)
 .debug_info    0x000529ff      0x110 c:/develop/altera/11.1/nios2eds/bin/gnu/h-i686-mingw32/bin/../lib/gcc/nios2-elf/4.1.2/../../../../nios2-elf/lib\libc.a(lib_a-strcpy.o)
 .debug_info    0x00052b0f       0xbb c:/develop/altera/11.1/nios2eds/bin/gnu/h-i686-mingw32/bin/../lib/gcc/nios2-elf/4.1.2/../../../../nios2-elf/lib\libc.a(lib_a-strerror.o)
 .debug_info    0x00052bca      0x512 c:/develop/altera/11.1/nios2eds/bin/gnu/h-i686-mingw32/bin/../lib/gcc/nios2-elf/4.1.2/../../../../nios2-elf/lib\libc.a(lib_a-strftime.o)
 .debug_info    0x000530dc       0xdb c:/develop/altera/11.1/nios2eds/bin/gnu/h-i686-mingw32/bin/../lib/gcc/nios2-elf/4.1.2/../../../../nios2-elf/lib\libc.a(lib_a-strlen.o)
 .debug_info    0x000531b7       0xf5 c:/develop/altera/11.1/nios2eds/bin/gnu/h-i686-mingw32/bin/../lib/gcc/nios2-elf/4.1.2/../../../../nios2-elf/lib\libc.a(lib_a-strncmp.o)
 .debug_info    0x000532ac       0xc8 c:/develop/altera/11.1/nios2eds/bin/gnu/h-i686-mingw32/bin/../lib/gcc/nios2-elf/4.1.2/../../../../nios2-elf/lib\libc.a(lib_a-strpbrk.o)
 .debug_info    0x00053374       0xd8 c:/develop/altera/11.1/nios2eds/bin/gnu/h-i686-mingw32/bin/../lib/gcc/nios2-elf/4.1.2/../../../../nios2-elf/lib\libc.a(lib_a-strspn.o)
 .debug_info    0x0005344c      0x3d1 c:/develop/altera/11.1/nios2eds/bin/gnu/h-i686-mingw32/bin/../lib/gcc/nios2-elf/4.1.2/../../../../nios2-elf/lib\libc.a(lib_a-strstr.o)
 .debug_info    0x0005381d      0xecc c:/develop/altera/11.1/nios2eds/bin/gnu/h-i686-mingw32/bin/../lib/gcc/nios2-elf/4.1.2/../../../../nios2-elf/lib\libc.a(lib_a-strtod.o)
 .debug_info    0x000546e9      0x98f c:/develop/altera/11.1/nios2eds/bin/gnu/h-i686-mingw32/bin/../lib/gcc/nios2-elf/4.1.2/../../../../nios2-elf/lib\libc.a(lib_a-time.o)
 .debug_info    0x00055078      0x99e c:/develop/altera/11.1/nios2eds/bin/gnu/h-i686-mingw32/bin/../lib/gcc/nios2-elf/4.1.2/../../../../nios2-elf/lib\libc.a(lib_a-timesr.o)
 .debug_info    0x00055a16      0xac8 c:/develop/altera/11.1/nios2eds/bin/gnu/h-i686-mingw32/bin/../lib/gcc/nios2-elf/4.1.2/../../../../nios2-elf/lib\libc.a(lib_a-tmpnam.o)
 .debug_info    0x000564de       0xac c:/develop/altera/11.1/nios2eds/bin/gnu/h-i686-mingw32/bin/../lib/gcc/nios2-elf/4.1.2/../../../../nios2-elf/lib\libc.a(lib_a-tzlock.o)
 .debug_info    0x0005658a       0xc6 c:/develop/altera/11.1/nios2eds/bin/gnu/h-i686-mingw32/bin/../lib/gcc/nios2-elf/4.1.2/../../../../nios2-elf/lib\libc.a(lib_a-tzvars.o)
 .debug_info    0x00056650       0x63 c:/develop/altera/11.1/nios2eds/bin/gnu/h-i686-mingw32/bin/../lib/gcc/nios2-elf/4.1.2/../../../../nios2-elf/lib\libc.a(lib_a-u_strerr.o)
 .debug_info    0x000566b3      0x9f6 c:/develop/altera/11.1/nios2eds/bin/gnu/h-i686-mingw32/bin/../lib/gcc/nios2-elf/4.1.2/../../../../nios2-elf/lib\libc.a(lib_a-ungetc.o)
 .debug_info    0x000570a9     0x10d5 c:/develop/altera/11.1/nios2eds/bin/gnu/h-i686-mingw32/bin/../lib/gcc/nios2-elf/4.1.2/../../../../nios2-elf/lib\libc.a(lib_a-vfprintf.o)
 .debug_info    0x0005817e      0xe8c c:/develop/altera/11.1/nios2eds/bin/gnu/h-i686-mingw32/bin/../lib/gcc/nios2-elf/4.1.2/../../../../nios2-elf/lib\libc.a(lib_a-vfscanf.o)
 .debug_info    0x0005900a      0x993 c:/develop/altera/11.1/nios2eds/bin/gnu/h-i686-mingw32/bin/../lib/gcc/nios2-elf/4.1.2/../../../../nios2-elf/lib\libc.a(lib_a-writer.o)
 .debug_info    0x0005999d      0x95d c:/develop/altera/11.1/nios2eds/bin/gnu/h-i686-mingw32/bin/../lib/gcc/nios2-elf/4.1.2/../../../../nios2-elf/lib\libc.a(lib_a-wsetup.o)
 .debug_info    0x0005a2fa      0x9e2 c:/develop/altera/11.1/nios2eds/bin/gnu/h-i686-mingw32/bin/../lib/gcc/nios2-elf/4.1.2/../../../../nios2-elf/lib\libc.a(lib_a-__call_atexit.o)
 .debug_info    0x0005acdc       0x9d c:/develop/altera/11.1/nios2eds/bin/gnu/h-i686-mingw32/bin/../lib/gcc/nios2-elf/4.1.2/../../../../nios2-elf/lib\libc.a(lib_a-abs.o)
 .debug_info    0x0005ad79      0x958 c:/develop/altera/11.1/nios2eds/bin/gnu/h-i686-mingw32/bin/../lib/gcc/nios2-elf/4.1.2/../../../../nios2-elf/lib\libc.a(lib_a-closer.o)
 .debug_info    0x0005b6d1       0xeb c:/develop/altera/11.1/nios2eds/bin/gnu/h-i686-mingw32/bin/../lib/gcc/nios2-elf/4.1.2/../../../../nios2-elf/lib\libc.a(lib_a-div.o)
 .debug_info    0x0005b7bc      0xd6f c:/develop/altera/11.1/nios2eds/bin/gnu/h-i686-mingw32/bin/../lib/gcc/nios2-elf/4.1.2/../../../../nios2-elf/lib\libc.a(lib_a-dtoa.o)
 .debug_info    0x0005c52b       0x73 c:/develop/altera/11.1/nios2eds/bin/gnu/h-i686-mingw32/bin/../lib/gcc/nios2-elf/4.1.2/../../../../nios2-elf/lib\libc.a(lib_a-environ.o)
 .debug_info    0x0005c59e      0x977 c:/develop/altera/11.1/nios2eds/bin/gnu/h-i686-mingw32/bin/../lib/gcc/nios2-elf/4.1.2/../../../../nios2-elf/lib\libc.a(lib_a-flags.o)
 .debug_info    0x0005cf15      0xa88 c:/develop/altera/11.1/nios2eds/bin/gnu/h-i686-mingw32/bin/../lib/gcc/nios2-elf/4.1.2/../../../../nios2-elf/lib\libc.a(lib_a-fvwrite.o)
 .debug_info    0x0005d99d      0xccb c:/develop/altera/11.1/nios2eds/bin/gnu/h-i686-mingw32/bin/../lib/gcc/nios2-elf/4.1.2/../../../../nios2-elf/lib\libc.a(lib_a-gdtoa-gethex.o)
 .debug_info    0x0005e668      0x23e c:/develop/altera/11.1/nios2eds/bin/gnu/h-i686-mingw32/bin/../lib/gcc/nios2-elf/4.1.2/../../../../nios2-elf/lib\libc.a(lib_a-gdtoa-hexnan.o)
 .debug_info    0x0005e8a6      0x9ad c:/develop/altera/11.1/nios2eds/bin/gnu/h-i686-mingw32/bin/../lib/gcc/nios2-elf/4.1.2/../../../../nios2-elf/lib\libc.a(lib_a-gettimeofdayr.o)
 .debug_info    0x0005f253      0x176 c:/develop/altera/11.1/nios2eds/bin/gnu/h-i686-mingw32/bin/../lib/gcc/nios2-elf/4.1.2/../../../../nios2-elf/lib\libc.a(lib_a-gettzinfo.o)
 .debug_info    0x0005f3c9      0x958 c:/develop/altera/11.1/nios2eds/bin/gnu/h-i686-mingw32/bin/../lib/gcc/nios2-elf/4.1.2/../../../../nios2-elf/lib\libc.a(lib_a-isattyr.o)
 .debug_info    0x0005fd21       0xed c:/develop/altera/11.1/nios2eds/bin/gnu/h-i686-mingw32/bin/../lib/gcc/nios2-elf/4.1.2/../../../../nios2-elf/lib\libc.a(lib_a-iswspace.o)
 .debug_info    0x0005fe0e       0x9d c:/develop/altera/11.1/nios2eds/bin/gnu/h-i686-mingw32/bin/../lib/gcc/nios2-elf/4.1.2/../../../../nios2-elf/lib\libc.a(lib_a-labs.o)
 .debug_info    0x0005feab      0x981 c:/develop/altera/11.1/nios2eds/bin/gnu/h-i686-mingw32/bin/../lib/gcc/nios2-elf/4.1.2/../../../../nios2-elf/lib\libc.a(lib_a-lseekr.o)
 .debug_info    0x0006082c      0xa07 c:/develop/altera/11.1/nios2eds/bin/gnu/h-i686-mingw32/bin/../lib/gcc/nios2-elf/4.1.2/../../../../nios2-elf/lib\libc.a(lib_a-mbrtowc.o)
 .debug_info    0x00061233      0x9a2 c:/develop/altera/11.1/nios2eds/bin/gnu/h-i686-mingw32/bin/../lib/gcc/nios2-elf/4.1.2/../../../../nios2-elf/lib\libc.a(lib_a-mbtowc_r.o)
 .debug_info    0x00061bd5      0x13e c:/develop/altera/11.1/nios2eds/bin/gnu/h-i686-mingw32/bin/../lib/gcc/nios2-elf/4.1.2/../../../../nios2-elf/lib\libc.a(lib_a-memmove.o)
 .debug_info    0x00061d13     0x1437 c:/develop/altera/11.1/nios2eds/bin/gnu/h-i686-mingw32/bin/../lib/gcc/nios2-elf/4.1.2/../../../../nios2-elf/lib\libc.a(lib_a-mprec.o)
 .debug_info    0x0006314a      0x9c1 c:/develop/altera/11.1/nios2eds/bin/gnu/h-i686-mingw32/bin/../lib/gcc/nios2-elf/4.1.2/../../../../nios2-elf/lib\libc.a(lib_a-putc.o)
 .debug_info    0x00063b0b      0x98c c:/develop/altera/11.1/nios2eds/bin/gnu/h-i686-mingw32/bin/../lib/gcc/nios2-elf/4.1.2/../../../../nios2-elf/lib\libc.a(lib_a-readr.o)
 .debug_info    0x00064497       0xd7 c:/develop/altera/11.1/nios2eds/bin/gnu/h-i686-mingw32/bin/../lib/gcc/nios2-elf/4.1.2/../../../../nios2-elf/lib\libc.a(lib_a-s_isinfd.o)
 .debug_info    0x0006456e       0xfb c:/develop/altera/11.1/nios2eds/bin/gnu/h-i686-mingw32/bin/../lib/gcc/nios2-elf/4.1.2/../../../../nios2-elf/lib\libc.a(lib_a-sccl.o)
 .debug_info    0x00064669       0xc8 c:/develop/altera/11.1/nios2eds/bin/gnu/h-i686-mingw32/bin/../lib/gcc/nios2-elf/4.1.2/../../../../nios2-elf/lib\libc.a(lib_a-sf_nan.o)
 .debug_info    0x00064731      0xa49 c:/develop/altera/11.1/nios2eds/bin/gnu/h-i686-mingw32/bin/../lib/gcc/nios2-elf/4.1.2/../../../../nios2-elf/lib\libc.a(lib_a-snprintf.o)
 .debug_info    0x0006517a      0xa2a c:/develop/altera/11.1/nios2eds/bin/gnu/h-i686-mingw32/bin/../lib/gcc/nios2-elf/4.1.2/../../../../nios2-elf/lib\libc.a(lib_a-strtol.o)
 .debug_info    0x00065ba4      0x9d5 c:/develop/altera/11.1/nios2eds/bin/gnu/h-i686-mingw32/bin/../lib/gcc/nios2-elf/4.1.2/../../../../nios2-elf/lib\libc.a(lib_a-strtoll_r.o)
 .debug_info    0x00066579      0xa22 c:/develop/altera/11.1/nios2eds/bin/gnu/h-i686-mingw32/bin/../lib/gcc/nios2-elf/4.1.2/../../../../nios2-elf/lib\libc.a(lib_a-strtoul.o)
 .debug_info    0x00066f9b      0x9cd c:/develop/altera/11.1/nios2eds/bin/gnu/h-i686-mingw32/bin/../lib/gcc/nios2-elf/4.1.2/../../../../nios2-elf/lib\libc.a(lib_a-strtoull_r.o)
 .debug_info    0x00067968      0x9ae c:/develop/altera/11.1/nios2eds/bin/gnu/h-i686-mingw32/bin/../lib/gcc/nios2-elf/4.1.2/../../../../nios2-elf/lib\libc.a(lib_a-wbuf.o)
 .debug_info    0x00068316      0xa1b c:/develop/altera/11.1/nios2eds/bin/gnu/h-i686-mingw32/bin/../lib/gcc/nios2-elf/4.1.2/../../../../nios2-elf/lib\libc.a(lib_a-callocr.o)
 .debug_info    0x00068d31      0x724 c:/develop/altera/11.1/nios2eds/bin/gnu/h-i686-mingw32/bin/../lib/gcc/nios2-elf/4.1.2\libgcc.a(_udivdi3.o)
 .debug_info    0x00069455      0x751 c:/develop/altera/11.1/nios2eds/bin/gnu/h-i686-mingw32/bin/../lib/gcc/nios2-elf/4.1.2\libgcc.a(_umoddi3.o)
 .debug_info    0x00069ba6      0x290 c:/develop/altera/11.1/nios2eds/bin/gnu/h-i686-mingw32/bin/../lib/gcc/nios2-elf/4.1.2\libgcc.a(_ne_sf.o)
 .debug_info    0x00069e36      0x290 c:/develop/altera/11.1/nios2eds/bin/gnu/h-i686-mingw32/bin/../lib/gcc/nios2-elf/4.1.2\libgcc.a(_gt_sf.o)
 .debug_info    0x0006a0c6      0x290 c:/develop/altera/11.1/nios2eds/bin/gnu/h-i686-mingw32/bin/../lib/gcc/nios2-elf/4.1.2\libgcc.a(_lt_sf.o)
 .debug_info    0x0006a356      0x261 c:/develop/altera/11.1/nios2eds/bin/gnu/h-i686-mingw32/bin/../lib/gcc/nios2-elf/4.1.2\libgcc.a(_df_to_sf.o)
 .debug_info    0x0006a5b7      0x25a c:/develop/altera/11.1/nios2eds/bin/gnu/h-i686-mingw32/bin/../lib/gcc/nios2-elf/4.1.2\libgcc.a(_unpack_sf.o)
 .debug_info    0x0006a811      0x21f c:/develop/altera/11.1/nios2eds/bin/gnu/h-i686-mingw32/bin/../lib/gcc/nios2-elf/4.1.2\libgcc.a(_fpcmp_parts_sf.o)
 .debug_info    0x0006aa30      0x1d7 c:/develop/altera/11.1/nios2eds/bin/gnu/h-i686-mingw32/bin/../lib/gcc/nios2-elf/4.1.2\libgcc.a(_make_sf.o)
 .debug_info    0x0006ac07      0x2f2 c:/develop/altera/11.1/nios2eds/bin/gnu/h-i686-mingw32/bin/../lib/gcc/nios2-elf/4.1.2\libgcc.a(_pack_sf.o)
 .debug_info    0x0006aef9      0x35c ../Cineraria_DE0_HAL_bsp/\libhal_bsp.a(alt_close.o)
 .debug_info    0x0006b255      0x4dd ../Cineraria_DE0_HAL_bsp/\libhal_bsp.a(alt_dev.o)
 .debug_info    0x0006b732      0x947 ../Cineraria_DE0_HAL_bsp/\libhal_bsp.a(alt_env_lock.o)
 .debug_info    0x0006c079       0xab ../Cineraria_DE0_HAL_bsp/\libhal_bsp.a(alt_errno.o)
 .debug_info    0x0006c124       0xe2 ../Cineraria_DE0_HAL_bsp/\libhal_bsp.a(alt_exit.o)
 .debug_info    0x0006c206      0x31b ../Cineraria_DE0_HAL_bsp/\libhal_bsp.a(alt_fs_reg.o)
 .debug_info    0x0006c521      0x4dd ../Cineraria_DE0_HAL_bsp/\libhal_bsp.a(alt_fstat.o)
 .debug_info    0x0006c9fe       0x44 ../Cineraria_DE0_HAL_bsp/\libhal_bsp.a(alt_getpid.o)
 .debug_info    0x0006ca42      0x1d7 ../Cineraria_DE0_HAL_bsp/\libhal_bsp.a(alt_gettod.o)
 .debug_info    0x0006cc19      0x4dd ../Cineraria_DE0_HAL_bsp/\libhal_bsp.a(alt_isatty.o)
 .debug_info    0x0006d0f6      0x109 ../Cineraria_DE0_HAL_bsp/\libhal_bsp.a(alt_kill.o)
 .debug_info    0x0006d1ff      0x384 ../Cineraria_DE0_HAL_bsp/\libhal_bsp.a(alt_lseek.o)
 .debug_info    0x0006d583      0x137 ../Cineraria_DE0_HAL_bsp/\libhal_bsp.a(alt_main.o)
 .debug_info    0x0006d6ba      0x947 ../Cineraria_DE0_HAL_bsp/\libhal_bsp.a(alt_malloc_lock.o)
 .debug_info    0x0006e001      0x410 ../Cineraria_DE0_HAL_bsp/\libhal_bsp.a(alt_open.o)
 .debug_info    0x0006e411      0x519 ../Cineraria_DE0_HAL_bsp/\libhal_bsp.a(alt_read.o)
 .debug_info    0x0006e92a      0x2d9 ../Cineraria_DE0_HAL_bsp/\libhal_bsp.a(alt_release_fd.o)
 .debug_info    0x0006ec03      0x1a5 ../Cineraria_DE0_HAL_bsp/\libhal_bsp.a(alt_sbrk.o)
 .debug_info    0x0006eda8      0x2a1 ../Cineraria_DE0_HAL_bsp/\libhal_bsp.a(alt_tick.o)
 .debug_info    0x0006f049      0x1a3 ../Cineraria_DE0_HAL_bsp/\libhal_bsp.a(alt_times.o)
 .debug_info    0x0006f1ec      0x520 ../Cineraria_DE0_HAL_bsp/\libhal_bsp.a(alt_write.o)
 .debug_info    0x0006f70c      0xa28 ../Cineraria_DE0_HAL_bsp/\libhal_bsp.a(alt_sys_init.o)
 .debug_info    0x00070134      0x817 ../Cineraria_DE0_HAL_bsp/\libhal_bsp.a(altera_avalon_cfi_flash.o)
 .debug_info    0x0007094b      0x9ae ../Cineraria_DE0_HAL_bsp/\libhal_bsp.a(altera_avalon_cfi_flash_table.o)
 .debug_info    0x000712f9      0x91c ../Cineraria_DE0_HAL_bsp/\libhal_bsp.a(altera_avalon_epcs_flash_controller.o)
 .debug_info    0x00071c15      0x57c ../Cineraria_DE0_HAL_bsp/\libhal_bsp.a(altera_avalon_jtag_uart_fd.o)
 .debug_info    0x00072191      0x3ad ../Cineraria_DE0_HAL_bsp/\libhal_bsp.a(altera_avalon_jtag_uart_init.o)
 .debug_info    0x0007253e      0x2a1 ../Cineraria_DE0_HAL_bsp/\libhal_bsp.a(altera_avalon_jtag_uart_ioctl.o)
 .debug_info    0x000727df      0x373 ../Cineraria_DE0_HAL_bsp/\libhal_bsp.a(altera_avalon_jtag_uart_read.o)
 .debug_info    0x00072b52      0x35e ../Cineraria_DE0_HAL_bsp/\libhal_bsp.a(altera_avalon_jtag_uart_write.o)
 .debug_info    0x00072eb0      0x221 ../Cineraria_DE0_HAL_bsp/\libhal_bsp.a(altera_avalon_timer_sc.o)
 .debug_info    0x000730d1      0x46f ../Cineraria_DE0_HAL_bsp/\libhal_bsp.a(altera_avalon_uart_fd.o)
 .debug_info    0x00073540      0x339 ../Cineraria_DE0_HAL_bsp/\libhal_bsp.a(altera_avalon_uart_init.o)
 .debug_info    0x00073879      0x326 ../Cineraria_DE0_HAL_bsp/\libhal_bsp.a(altera_avalon_uart_read.o)
 .debug_info    0x00073b9f      0x334 ../Cineraria_DE0_HAL_bsp/\libhal_bsp.a(altera_avalon_uart_write.o)
 .debug_info    0x00073ed3      0x42e ../Cineraria_DE0_HAL_bsp/\libhal_bsp.a(epcs_commands.o)
 .debug_info    0x00074301      0x2c6 ../Cineraria_DE0_HAL_bsp/\libhal_bsp.a(alt_alarm_start.o)
 .debug_info    0x000745c7       0xd9 ../Cineraria_DE0_HAL_bsp/\libhal_bsp.a(alt_dcache_flush.o)
 .debug_info    0x000746a0      0x1b7 ../Cineraria_DE0_HAL_bsp/\libhal_bsp.a(alt_dev_llist_insert.o)
 .debug_info    0x00074857       0x8d ../Cineraria_DE0_HAL_bsp/\libhal_bsp.a(alt_do_ctors.o)
 .debug_info    0x000748e4       0x8d ../Cineraria_DE0_HAL_bsp/\libhal_bsp.a(alt_do_dtors.o)
 .debug_info    0x00074971      0x30c ../Cineraria_DE0_HAL_bsp/\libhal_bsp.a(alt_find_dev.o)
 .debug_info    0x00074c7d      0x30e ../Cineraria_DE0_HAL_bsp/\libhal_bsp.a(alt_find_file.o)
 .debug_info    0x00074f8b      0x3cd ../Cineraria_DE0_HAL_bsp/\libhal_bsp.a(alt_flash_dev.o)
 .debug_info    0x00075358      0x331 ../Cineraria_DE0_HAL_bsp/\libhal_bsp.a(alt_get_fd.o)
 .debug_info    0x00075689      0x341 ../Cineraria_DE0_HAL_bsp/\libhal_bsp.a(alt_iic.o)
 .debug_info    0x000759ca      0x1ee ../Cineraria_DE0_HAL_bsp/\libhal_bsp.a(alt_iic_isr_register.o)
 .debug_info    0x00075bb8      0x4f6 ../Cineraria_DE0_HAL_bsp/\libhal_bsp.a(alt_io_redirect.o)
 .debug_info    0x000760ae       0x84 ../Cineraria_DE0_HAL_bsp/\libhal_bsp.a(alt_irq_entry.o)
 .debug_info    0x00076132      0x168 ../Cineraria_DE0_HAL_bsp/\libhal_bsp.a(alt_irq_handler.o)
 .debug_info    0x0007629a       0x92 ../Cineraria_DE0_HAL_bsp/\libhal_bsp.a(alt_irq_vars.o)
 .debug_info    0x0007632c       0x8d ../Cineraria_DE0_HAL_bsp/\libhal_bsp.a(altera_nios2_irq.o)
 .debug_info    0x000763b9      0x679 ../Cineraria_DE0_HAL_bsp/\libhal_bsp.a(altera_avalon_cfi_flash_amd.o)
 .debug_info    0x00076a32      0x666 ../Cineraria_DE0_HAL_bsp/\libhal_bsp.a(altera_avalon_cfi_flash_intel.o)
 .debug_info    0x00077098      0x17d ../Cineraria_DE0_HAL_bsp/\libhal_bsp.a(altera_avalon_spi.o)
 .debug_info    0x00077215       0x8a ../Cineraria_DE0_HAL_bsp/\libhal_bsp.a(alt_exception_entry.o)
 .debug_info    0x0007729f       0xab ../Cineraria_DE0_HAL_bsp/\libhal_bsp.a(alt_usleep.o)
 .debug_info    0x0007734a       0xcc ../Cineraria_DE0_HAL_bsp/\libhal_bsp.a(alt_busy_sleep.o)
 .debug_info    0x00077416      0x181 c:/develop/altera/11.1/nios2eds/bin/gnu/h-i686-mingw32/bin/../lib/gcc/nios2-elf/4.1.2/../../../../nios2-elf/lib\libc.a(lib_a-atexit.o)
 .debug_info    0x00077597      0x99c c:/develop/altera/11.1/nios2eds/bin/gnu/h-i686-mingw32/bin/../lib/gcc/nios2-elf/4.1.2/../../../../nios2-elf/lib\libc.a(lib_a-__atexit.o)

.debug_abbrev   0x00000000    0x18738
 *(.debug_abbrev)
 .debug_abbrev  0x00000000       0x14 ../Cineraria_DE0_HAL_bsp//obj/HAL/src/crt0.o
 .debug_abbrev  0x00000014      0x45f obj/default/lua/lapi.o
 .debug_abbrev  0x00000473      0x3f6 obj/default/lua/lauxlib.o
 .debug_abbrev  0x00000869      0x29a obj/default/lua/lbaselib.o
 .debug_abbrev  0x00000b03      0x11a obj/default/lua/lbitlib.o
 .debug_abbrev  0x00000c1d      0x4df obj/default/lua/lcode.o
 .debug_abbrev  0x000010fc      0x15b obj/default/lua/lcorolib.o
 .debug_abbrev  0x00001257       0x61 obj/default/lua/lctype.o
 .debug_abbrev  0x000012b8      0x300 obj/default/lua/ldblib.o
 .debug_abbrev  0x000015b8      0x488 obj/default/lua/ldebug.o
 .debug_abbrev  0x00001a40      0x41c obj/default/lua/ldo.o
 .debug_abbrev  0x00001e5c      0x296 obj/default/lua/ldump.o
 .debug_abbrev  0x000020f2      0x26e obj/default/lua/lfunc.o
 .debug_abbrev  0x00002360      0x3e4 obj/default/lua/lgc.o
 .debug_abbrev  0x00002744       0xd6 obj/default/lua/linit.o
 .debug_abbrev  0x0000281a      0x350 obj/default/lua/liolib.o
 .debug_abbrev  0x00002b6a      0x473 obj/default/lua/llex.o
 .debug_abbrev  0x00002fdd      0x135 obj/default/lua/lmathlib.o
 .debug_abbrev  0x00003112      0x212 obj/default/lua/lmem.o
 .debug_abbrev  0x00003324      0x2ec obj/default/lua/loadlib.o
 .debug_abbrev  0x00003610      0x344 obj/default/lua/lobject.o
 .debug_abbrev  0x00003954       0x6a obj/default/lua/lopcodes.o
 .debug_abbrev  0x000039be      0x289 obj/default/lua/loslib.o
 .debug_abbrev  0x00003c47      0x4b0 obj/default/lua/lparser.o
 .debug_abbrev  0x000040f7      0x33d obj/default/lua/lstate.o
 .debug_abbrev  0x00004434      0x26f obj/default/lua/lstring.o
 .debug_abbrev  0x000046a3      0x34e obj/default/lua/lstrlib.o
 .debug_abbrev  0x000049f1      0x41f obj/default/lua/ltable.o
 .debug_abbrev  0x00004e10      0x168 obj/default/lua/ltablib.o
 .debug_abbrev  0x00004f78      0x24c obj/default/lua/ltm.o
 .debug_abbrev  0x000051c4      0x2fe obj/default/lua/lundump.o
 .debug_abbrev  0x000054c2      0x3e6 obj/default/lua/lvm.o
 .debug_abbrev  0x000058a8      0x244 obj/default/lua/lzio.o
 .debug_abbrev  0x00005aec       0x93 obj/default/min.o
 .debug_abbrev  0x00005b7f      0x286 obj/default/mmcfs/fatfs/ff.o
 .debug_abbrev  0x00005e05      0x173 obj/default/mmcfs/fatfs/mmcbb.o
 .debug_abbrev  0x00005f78       0xd3 obj/default/mmcfs/fatfs/option/cc932.o
 .debug_abbrev  0x0000604b       0x4e obj/default/mmcfs/gettime.o
 .debug_abbrev  0x00006099      0x14d obj/default/mmcfs/mmc_spi.o
 .debug_abbrev  0x000061e6      0x18f obj/default/mmcfs/mmcfs.o
 .debug_abbrev  0x00006375      0x12e c:/develop/altera/11.1/nios2eds/bin/gnu/h-i686-mingw32/bin/../lib/gcc/nios2-elf/4.1.2/../../../../nios2-elf/lib\libm.a(lib_a-s_atan.o)
 .debug_abbrev  0x000064a3       0xea c:/develop/altera/11.1/nios2eds/bin/gnu/h-i686-mingw32/bin/../lib/gcc/nios2-elf/4.1.2/../../../../nios2-elf/lib\libm.a(lib_a-s_ceil.o)
 .debug_abbrev  0x0000658d       0x9a c:/develop/altera/11.1/nios2eds/bin/gnu/h-i686-mingw32/bin/../lib/gcc/nios2-elf/4.1.2/../../../../nios2-elf/lib\libm.a(lib_a-s_cos.o)
 .debug_abbrev  0x00006627       0xc3 c:/develop/altera/11.1/nios2eds/bin/gnu/h-i686-mingw32/bin/../lib/gcc/nios2-elf/4.1.2/../../../../nios2-elf/lib\libm.a(lib_a-s_fabs.o)
 .debug_abbrev  0x000066ea       0xea c:/develop/altera/11.1/nios2eds/bin/gnu/h-i686-mingw32/bin/../lib/gcc/nios2-elf/4.1.2/../../../../nios2-elf/lib\libm.a(lib_a-s_floor.o)
 .debug_abbrev  0x000067d4      0x10d c:/develop/altera/11.1/nios2eds/bin/gnu/h-i686-mingw32/bin/../lib/gcc/nios2-elf/4.1.2/../../../../nios2-elf/lib\libm.a(lib_a-s_frexp.o)
 .debug_abbrev  0x000068e1       0x5f c:/develop/altera/11.1/nios2eds/bin/gnu/h-i686-mingw32/bin/../lib/gcc/nios2-elf/4.1.2/../../../../nios2-elf/lib\libm.a(lib_a-s_ldexp.o)
 .debug_abbrev  0x00006940      0x11f c:/develop/altera/11.1/nios2eds/bin/gnu/h-i686-mingw32/bin/../lib/gcc/nios2-elf/4.1.2/../../../../nios2-elf/lib\libm.a(lib_a-s_modf.o)
 .debug_abbrev  0x00006a5f       0xf5 c:/develop/altera/11.1/nios2eds/bin/gnu/h-i686-mingw32/bin/../lib/gcc/nios2-elf/4.1.2/../../../../nios2-elf/lib\libm.a(lib_a-s_scalbn.o)
 .debug_abbrev  0x00006b54       0x9a c:/develop/altera/11.1/nios2eds/bin/gnu/h-i686-mingw32/bin/../lib/gcc/nios2-elf/4.1.2/../../../../nios2-elf/lib\libm.a(lib_a-s_sin.o)
 .debug_abbrev  0x00006bee       0x9a c:/develop/altera/11.1/nios2eds/bin/gnu/h-i686-mingw32/bin/../lib/gcc/nios2-elf/4.1.2/../../../../nios2-elf/lib\libm.a(lib_a-s_tan.o)
 .debug_abbrev  0x00006c88       0xee c:/develop/altera/11.1/nios2eds/bin/gnu/h-i686-mingw32/bin/../lib/gcc/nios2-elf/4.1.2/../../../../nios2-elf/lib\libm.a(lib_a-s_tanh.o)
 .debug_abbrev  0x00006d76       0xe5 c:/develop/altera/11.1/nios2eds/bin/gnu/h-i686-mingw32/bin/../lib/gcc/nios2-elf/4.1.2/../../../../nios2-elf/lib\libm.a(lib_a-w_acos.o)
 .debug_abbrev  0x00006e5b       0xe5 c:/develop/altera/11.1/nios2eds/bin/gnu/h-i686-mingw32/bin/../lib/gcc/nios2-elf/4.1.2/../../../../nios2-elf/lib\libm.a(lib_a-w_asin.o)
 .debug_abbrev  0x00006f40       0x50 c:/develop/altera/11.1/nios2eds/bin/gnu/h-i686-mingw32/bin/../lib/gcc/nios2-elf/4.1.2/../../../../nios2-elf/lib\libm.a(lib_a-w_atan2.o)
 .debug_abbrev  0x00006f90       0xe5 c:/develop/altera/11.1/nios2eds/bin/gnu/h-i686-mingw32/bin/../lib/gcc/nios2-elf/4.1.2/../../../../nios2-elf/lib\libm.a(lib_a-w_cosh.o)
 .debug_abbrev  0x00007075       0xe5 c:/develop/altera/11.1/nios2eds/bin/gnu/h-i686-mingw32/bin/../lib/gcc/nios2-elf/4.1.2/../../../../nios2-elf/lib\libm.a(lib_a-w_exp.o)
 .debug_abbrev  0x0000715a       0xf0 c:/develop/altera/11.1/nios2eds/bin/gnu/h-i686-mingw32/bin/../lib/gcc/nios2-elf/4.1.2/../../../../nios2-elf/lib\libm.a(lib_a-w_fmod.o)
 .debug_abbrev  0x0000724a       0xe5 c:/develop/altera/11.1/nios2eds/bin/gnu/h-i686-mingw32/bin/../lib/gcc/nios2-elf/4.1.2/../../../../nios2-elf/lib\libm.a(lib_a-w_log.o)
 .debug_abbrev  0x0000732f       0xe5 c:/develop/altera/11.1/nios2eds/bin/gnu/h-i686-mingw32/bin/../lib/gcc/nios2-elf/4.1.2/../../../../nios2-elf/lib\libm.a(lib_a-w_log10.o)
 .debug_abbrev  0x00007414       0xf0 c:/develop/altera/11.1/nios2eds/bin/gnu/h-i686-mingw32/bin/../lib/gcc/nios2-elf/4.1.2/../../../../nios2-elf/lib\libm.a(lib_a-w_pow.o)
 .debug_abbrev  0x00007504       0xcf c:/develop/altera/11.1/nios2eds/bin/gnu/h-i686-mingw32/bin/../lib/gcc/nios2-elf/4.1.2/../../../../nios2-elf/lib\libm.a(lib_a-w_sinh.o)
 .debug_abbrev  0x000075d3       0xe5 c:/develop/altera/11.1/nios2eds/bin/gnu/h-i686-mingw32/bin/../lib/gcc/nios2-elf/4.1.2/../../../../nios2-elf/lib\libm.a(lib_a-w_sqrt.o)
 .debug_abbrev  0x000076b8      0x11a c:/develop/altera/11.1/nios2eds/bin/gnu/h-i686-mingw32/bin/../lib/gcc/nios2-elf/4.1.2/../../../../nios2-elf/lib\libm.a(lib_a-e_acos.o)
 .debug_abbrev  0x000077d2      0x10d c:/develop/altera/11.1/nios2eds/bin/gnu/h-i686-mingw32/bin/../lib/gcc/nios2-elf/4.1.2/../../../../nios2-elf/lib\libm.a(lib_a-e_asin.o)
 .debug_abbrev  0x000078df      0x102 c:/develop/altera/11.1/nios2eds/bin/gnu/h-i686-mingw32/bin/../lib/gcc/nios2-elf/4.1.2/../../../../nios2-elf/lib\libm.a(lib_a-e_atan2.o)
 .debug_abbrev  0x000079e1       0x93 c:/develop/altera/11.1/nios2eds/bin/gnu/h-i686-mingw32/bin/../lib/gcc/nios2-elf/4.1.2/../../../../nios2-elf/lib\libm.a(lib_a-e_cosh.o)
 .debug_abbrev  0x00007a74      0x134 c:/develop/altera/11.1/nios2eds/bin/gnu/h-i686-mingw32/bin/../lib/gcc/nios2-elf/4.1.2/../../../../nios2-elf/lib\libm.a(lib_a-e_exp.o)
 .debug_abbrev  0x00007ba8      0x105 c:/develop/altera/11.1/nios2eds/bin/gnu/h-i686-mingw32/bin/../lib/gcc/nios2-elf/4.1.2/../../../../nios2-elf/lib\libm.a(lib_a-e_fmod.o)
 .debug_abbrev  0x00007cad      0x12b c:/develop/altera/11.1/nios2eds/bin/gnu/h-i686-mingw32/bin/../lib/gcc/nios2-elf/4.1.2/../../../../nios2-elf/lib\libm.a(lib_a-e_log.o)
 .debug_abbrev  0x00007dd8      0x11e c:/develop/altera/11.1/nios2eds/bin/gnu/h-i686-mingw32/bin/../lib/gcc/nios2-elf/4.1.2/../../../../nios2-elf/lib\libm.a(lib_a-e_log10.o)
 .debug_abbrev  0x00007ef6      0x14c c:/develop/altera/11.1/nios2eds/bin/gnu/h-i686-mingw32/bin/../lib/gcc/nios2-elf/4.1.2/../../../../nios2-elf/lib\libm.a(lib_a-e_pow.o)
 .debug_abbrev  0x00008042      0x135 c:/develop/altera/11.1/nios2eds/bin/gnu/h-i686-mingw32/bin/../lib/gcc/nios2-elf/4.1.2/../../../../nios2-elf/lib\libm.a(lib_a-e_rem_pio2.o)
 .debug_abbrev  0x00008177       0x93 c:/develop/altera/11.1/nios2eds/bin/gnu/h-i686-mingw32/bin/../lib/gcc/nios2-elf/4.1.2/../../../../nios2-elf/lib\libm.a(lib_a-e_sinh.o)
 .debug_abbrev  0x0000820a      0x122 c:/develop/altera/11.1/nios2eds/bin/gnu/h-i686-mingw32/bin/../lib/gcc/nios2-elf/4.1.2/../../../../nios2-elf/lib\libm.a(lib_a-e_sqrt.o)
 .debug_abbrev  0x0000832c       0xec c:/develop/altera/11.1/nios2eds/bin/gnu/h-i686-mingw32/bin/../lib/gcc/nios2-elf/4.1.2/../../../../nios2-elf/lib\libm.a(lib_a-k_cos.o)
 .debug_abbrev  0x00008418      0x104 c:/develop/altera/11.1/nios2eds/bin/gnu/h-i686-mingw32/bin/../lib/gcc/nios2-elf/4.1.2/../../../../nios2-elf/lib\libm.a(lib_a-k_rem_pio2.o)
 .debug_abbrev  0x0000851c       0xa0 c:/develop/altera/11.1/nios2eds/bin/gnu/h-i686-mingw32/bin/../lib/gcc/nios2-elf/4.1.2/../../../../nios2-elf/lib\libm.a(lib_a-k_sin.o)
 .debug_abbrev  0x000085bc      0x146 c:/develop/altera/11.1/nios2eds/bin/gnu/h-i686-mingw32/bin/../lib/gcc/nios2-elf/4.1.2/../../../../nios2-elf/lib\libm.a(lib_a-k_tan.o)
 .debug_abbrev  0x00008702       0xc3 c:/develop/altera/11.1/nios2eds/bin/gnu/h-i686-mingw32/bin/../lib/gcc/nios2-elf/4.1.2/../../../../nios2-elf/lib\libm.a(lib_a-s_copysign.o)
 .debug_abbrev  0x000087c5      0x15d c:/develop/altera/11.1/nios2eds/bin/gnu/h-i686-mingw32/bin/../lib/gcc/nios2-elf/4.1.2/../../../../nios2-elf/lib\libm.a(lib_a-s_expm1.o)
 .debug_abbrev  0x00008922       0xc5 c:/develop/altera/11.1/nios2eds/bin/gnu/h-i686-mingw32/bin/../lib/gcc/nios2-elf/4.1.2/../../../../nios2-elf/lib\libm.a(lib_a-s_finite.o)
 .debug_abbrev  0x000089e7       0x79 c:/develop/altera/11.1/nios2eds/bin/gnu/h-i686-mingw32/bin/../lib/gcc/nios2-elf/4.1.2/../../../../nios2-elf/lib\libm.a(lib_a-s_isnand.o)
 .debug_abbrev  0x00008a60       0x53 c:/develop/altera/11.1/nios2eds/bin/gnu/h-i686-mingw32/bin/../lib/gcc/nios2-elf/4.1.2/../../../../nios2-elf/lib\libm.a(lib_a-s_lib_ver.o)
 .debug_abbrev  0x00008ab3       0x95 c:/develop/altera/11.1/nios2eds/bin/gnu/h-i686-mingw32/bin/../lib/gcc/nios2-elf/4.1.2/../../../../nios2-elf/lib\libm.a(lib_a-s_matherr.o)
 .debug_abbrev  0x00008b48       0xd5 c:/develop/altera/11.1/nios2eds/bin/gnu/h-i686-mingw32/bin/../lib/gcc/nios2-elf/4.1.2/../../../../nios2-elf/lib\libm.a(lib_a-s_nan.o)
 .debug_abbrev  0x00008c1d      0x11b c:/develop/altera/11.1/nios2eds/bin/gnu/h-i686-mingw32/bin/../lib/gcc/nios2-elf/4.1.2/../../../../nios2-elf/lib\libm.a(lib_a-s_rint.o)
 .debug_abbrev  0x00008d38       0x5d c:/develop/altera/11.1/nios2eds/bin/gnu/h-i686-mingw32/bin/../lib/gcc/nios2-elf/4.1.2\libgcc.a(_fixunsdfsi.o)
 .debug_abbrev  0x00008d95      0x1d2 c:/develop/altera/11.1/nios2eds/bin/gnu/h-i686-mingw32/bin/../lib/gcc/nios2-elf/4.1.2\libgcc.a(_addsub_df.o)
 .debug_abbrev  0x00008f67      0x204 c:/develop/altera/11.1/nios2eds/bin/gnu/h-i686-mingw32/bin/../lib/gcc/nios2-elf/4.1.2\libgcc.a(_mul_df.o)
 .debug_abbrev  0x0000916b      0x1e3 c:/develop/altera/11.1/nios2eds/bin/gnu/h-i686-mingw32/bin/../lib/gcc/nios2-elf/4.1.2\libgcc.a(_div_df.o)
 .debug_abbrev  0x0000934e      0x151 c:/develop/altera/11.1/nios2eds/bin/gnu/h-i686-mingw32/bin/../lib/gcc/nios2-elf/4.1.2\libgcc.a(_eq_df.o)
 .debug_abbrev  0x0000949f      0x151 c:/develop/altera/11.1/nios2eds/bin/gnu/h-i686-mingw32/bin/../lib/gcc/nios2-elf/4.1.2\libgcc.a(_ne_df.o)
 .debug_abbrev  0x000095f0      0x151 c:/develop/altera/11.1/nios2eds/bin/gnu/h-i686-mingw32/bin/../lib/gcc/nios2-elf/4.1.2\libgcc.a(_gt_df.o)
 .debug_abbrev  0x00009741      0x151 c:/develop/altera/11.1/nios2eds/bin/gnu/h-i686-mingw32/bin/../lib/gcc/nios2-elf/4.1.2\libgcc.a(_ge_df.o)
 .debug_abbrev  0x00009892      0x151 c:/develop/altera/11.1/nios2eds/bin/gnu/h-i686-mingw32/bin/../lib/gcc/nios2-elf/4.1.2\libgcc.a(_lt_df.o)
 .debug_abbrev  0x000099e3      0x151 c:/develop/altera/11.1/nios2eds/bin/gnu/h-i686-mingw32/bin/../lib/gcc/nios2-elf/4.1.2\libgcc.a(_le_df.o)
 .debug_abbrev  0x00009b34      0x13f c:/develop/altera/11.1/nios2eds/bin/gnu/h-i686-mingw32/bin/../lib/gcc/nios2-elf/4.1.2\libgcc.a(_si_to_df.o)
 .debug_abbrev  0x00009c73      0x176 c:/develop/altera/11.1/nios2eds/bin/gnu/h-i686-mingw32/bin/../lib/gcc/nios2-elf/4.1.2\libgcc.a(_df_to_si.o)
 .debug_abbrev  0x00009de9       0xba c:/develop/altera/11.1/nios2eds/bin/gnu/h-i686-mingw32/bin/../lib/gcc/nios2-elf/4.1.2\libgcc.a(_thenan_df.o)
 .debug_abbrev  0x00009ea3      0x155 c:/develop/altera/11.1/nios2eds/bin/gnu/h-i686-mingw32/bin/../lib/gcc/nios2-elf/4.1.2\libgcc.a(_usi_to_df.o)
 .debug_abbrev  0x00009ff8       0xe0 c:/develop/altera/11.1/nios2eds/bin/gnu/h-i686-mingw32/bin/../lib/gcc/nios2-elf/4.1.2\libgcc.a(lib2-divmod.o)
 .debug_abbrev  0x0000a0d8       0xee c:/develop/altera/11.1/nios2eds/bin/gnu/h-i686-mingw32/bin/../lib/gcc/nios2-elf/4.1.2\libgcc.a(_muldi3.o)
 .debug_abbrev  0x0000a1c6       0xb9 c:/develop/altera/11.1/nios2eds/bin/gnu/h-i686-mingw32/bin/../lib/gcc/nios2-elf/4.1.2\libgcc.a(_clzsi2.o)
 .debug_abbrev  0x0000a27f      0x1b1 c:/develop/altera/11.1/nios2eds/bin/gnu/h-i686-mingw32/bin/../lib/gcc/nios2-elf/4.1.2\libgcc.a(_pack_df.o)
 .debug_abbrev  0x0000a430      0x149 c:/develop/altera/11.1/nios2eds/bin/gnu/h-i686-mingw32/bin/../lib/gcc/nios2-elf/4.1.2\libgcc.a(_unpack_df.o)
 .debug_abbrev  0x0000a579      0x132 c:/develop/altera/11.1/nios2eds/bin/gnu/h-i686-mingw32/bin/../lib/gcc/nios2-elf/4.1.2\libgcc.a(_fpcmp_parts_df.o)
 .debug_abbrev  0x0000a6ab       0x61 c:/develop/altera/11.1/nios2eds/bin/gnu/h-i686-mingw32/bin/../lib/gcc/nios2-elf/4.1.2\libgcc.a(_clz.o)
 .debug_abbrev  0x0000a70c       0x3f c:/develop/altera/11.1/nios2eds/bin/gnu/h-i686-mingw32/bin/../lib/gcc/nios2-elf/4.1.2/../../../../nios2-elf/lib\libc.a(lib_a-abort.o)
 .debug_abbrev  0x0000a74b      0x18e c:/develop/altera/11.1/nios2eds/bin/gnu/h-i686-mingw32/bin/../lib/gcc/nios2-elf/4.1.2/../../../../nios2-elf/lib\libc.a(lib_a-clock.o)
 .debug_abbrev  0x0000a8d9       0x61 c:/develop/altera/11.1/nios2eds/bin/gnu/h-i686-mingw32/bin/../lib/gcc/nios2-elf/4.1.2/../../../../nios2-elf/lib\libc.a(lib_a-ctype_.o)
 .debug_abbrev  0x0000a93a       0x5f c:/develop/altera/11.1/nios2eds/bin/gnu/h-i686-mingw32/bin/../lib/gcc/nios2-elf/4.1.2/../../../../nios2-elf/lib\libc.a(lib_a-difftime.o)
 .debug_abbrev  0x0000a999      0x15f c:/develop/altera/11.1/nios2eds/bin/gnu/h-i686-mingw32/bin/../lib/gcc/nios2-elf/4.1.2/../../../../nios2-elf/lib\libc.a(lib_a-errno.o)
 .debug_abbrev  0x0000aaf8      0x16e c:/develop/altera/11.1/nios2eds/bin/gnu/h-i686-mingw32/bin/../lib/gcc/nios2-elf/4.1.2/../../../../nios2-elf/lib\libc.a(lib_a-exit.o)
 .debug_abbrev  0x0000ac66      0x1a7 c:/develop/altera/11.1/nios2eds/bin/gnu/h-i686-mingw32/bin/../lib/gcc/nios2-elf/4.1.2/../../../../nios2-elf/lib\libc.a(lib_a-fclose.o)
 .debug_abbrev  0x0000ae0d      0x1c6 c:/develop/altera/11.1/nios2eds/bin/gnu/h-i686-mingw32/bin/../lib/gcc/nios2-elf/4.1.2/../../../../nios2-elf/lib\libc.a(lib_a-fflush.o)
 .debug_abbrev  0x0000afd3      0x198 c:/develop/altera/11.1/nios2eds/bin/gnu/h-i686-mingw32/bin/../lib/gcc/nios2-elf/4.1.2/../../../../nios2-elf/lib\libc.a(lib_a-fgets.o)
 .debug_abbrev  0x0000b16b      0x24c c:/develop/altera/11.1/nios2eds/bin/gnu/h-i686-mingw32/bin/../lib/gcc/nios2-elf/4.1.2/../../../../nios2-elf/lib\libc.a(lib_a-findfp.o)
 .debug_abbrev  0x0000b3b7      0x1b6 c:/develop/altera/11.1/nios2eds/bin/gnu/h-i686-mingw32/bin/../lib/gcc/nios2-elf/4.1.2/../../../../nios2-elf/lib\libc.a(lib_a-fopen.o)
 .debug_abbrev  0x0000b56d      0x197 c:/develop/altera/11.1/nios2eds/bin/gnu/h-i686-mingw32/bin/../lib/gcc/nios2-elf/4.1.2/../../../../nios2-elf/lib\libc.a(lib_a-fprintf.o)
 .debug_abbrev  0x0000b704      0x20d c:/develop/altera/11.1/nios2eds/bin/gnu/h-i686-mingw32/bin/../lib/gcc/nios2-elf/4.1.2/../../../../nios2-elf/lib\libc.a(lib_a-fread.o)
 .debug_abbrev  0x0000b911      0x1d9 c:/develop/altera/11.1/nios2eds/bin/gnu/h-i686-mingw32/bin/../lib/gcc/nios2-elf/4.1.2/../../../../nios2-elf/lib\libc.a(lib_a-freer.o)
 .debug_abbrev  0x0000baea      0x1b6 c:/develop/altera/11.1/nios2eds/bin/gnu/h-i686-mingw32/bin/../lib/gcc/nios2-elf/4.1.2/../../../../nios2-elf/lib\libc.a(lib_a-freopen.o)
 .debug_abbrev  0x0000bca0      0x191 c:/develop/altera/11.1/nios2eds/bin/gnu/h-i686-mingw32/bin/../lib/gcc/nios2-elf/4.1.2/../../../../nios2-elf/lib\libc.a(lib_a-fscanf.o)
 .debug_abbrev  0x0000be31      0x208 c:/develop/altera/11.1/nios2eds/bin/gnu/h-i686-mingw32/bin/../lib/gcc/nios2-elf/4.1.2/../../../../nios2-elf/lib\libc.a(lib_a-fseek.o)
 .debug_abbrev  0x0000c039      0x18e c:/develop/altera/11.1/nios2eds/bin/gnu/h-i686-mingw32/bin/../lib/gcc/nios2-elf/4.1.2/../../../../nios2-elf/lib\libc.a(lib_a-fstatr.o)
 .debug_abbrev  0x0000c1c7      0x198 c:/develop/altera/11.1/nios2eds/bin/gnu/h-i686-mingw32/bin/../lib/gcc/nios2-elf/4.1.2/../../../../nios2-elf/lib\libc.a(lib_a-ftell.o)
 .debug_abbrev  0x0000c35f      0x1e3 c:/develop/altera/11.1/nios2eds/bin/gnu/h-i686-mingw32/bin/../lib/gcc/nios2-elf/4.1.2/../../../../nios2-elf/lib\libc.a(lib_a-fwalk.o)
 .debug_abbrev  0x0000c542      0x1b1 c:/develop/altera/11.1/nios2eds/bin/gnu/h-i686-mingw32/bin/../lib/gcc/nios2-elf/4.1.2/../../../../nios2-elf/lib\libc.a(lib_a-fwrite.o)
 .debug_abbrev  0x0000c6f3      0x17f c:/develop/altera/11.1/nios2eds/bin/gnu/h-i686-mingw32/bin/../lib/gcc/nios2-elf/4.1.2/../../../../nios2-elf/lib\libc.a(lib_a-getc.o)
 .debug_abbrev  0x0000c872      0x198 c:/develop/altera/11.1/nios2eds/bin/gnu/h-i686-mingw32/bin/../lib/gcc/nios2-elf/4.1.2/../../../../nios2-elf/lib\libc.a(lib_a-getenv.o)
 .debug_abbrev  0x0000ca0a      0x19b c:/develop/altera/11.1/nios2eds/bin/gnu/h-i686-mingw32/bin/../lib/gcc/nios2-elf/4.1.2/../../../../nios2-elf/lib\libc.a(lib_a-getenv_r.o)
 .debug_abbrev  0x0000cba5      0x17f c:/develop/altera/11.1/nios2eds/bin/gnu/h-i686-mingw32/bin/../lib/gcc/nios2-elf/4.1.2/../../../../nios2-elf/lib\libc.a(lib_a-gmtime.o)
 .debug_abbrev  0x0000cd24       0x9c c:/develop/altera/11.1/nios2eds/bin/gnu/h-i686-mingw32/bin/../lib/gcc/nios2-elf/4.1.2/../../../../nios2-elf/lib\libc.a(lib_a-gmtime_r.o)
 .debug_abbrev  0x0000cdc0      0x157 c:/develop/altera/11.1/nios2eds/bin/gnu/h-i686-mingw32/bin/../lib/gcc/nios2-elf/4.1.2/../../../../nios2-elf/lib\libc.a(lib_a-impure.o)
 .debug_abbrev  0x0000cf17       0x3b c:/develop/altera/11.1/nios2eds/bin/gnu/h-i686-mingw32/bin/../lib/gcc/nios2-elf/4.1.2/../../../../nios2-elf/lib\libc.a(lib_a-int_errno.o)
 .debug_abbrev  0x0000cf52      0x17f c:/develop/altera/11.1/nios2eds/bin/gnu/h-i686-mingw32/bin/../lib/gcc/nios2-elf/4.1.2/../../../../nios2-elf/lib\libc.a(lib_a-lcltime.o)
 .debug_abbrev  0x0000d0d1       0x9c c:/develop/altera/11.1/nios2eds/bin/gnu/h-i686-mingw32/bin/../lib/gcc/nios2-elf/4.1.2/../../../../nios2-elf/lib\libc.a(lib_a-lcltime_r.o)
 .debug_abbrev  0x0000d16d      0x1ed c:/develop/altera/11.1/nios2eds/bin/gnu/h-i686-mingw32/bin/../lib/gcc/nios2-elf/4.1.2/../../../../nios2-elf/lib\libc.a(lib_a-locale.o)
 .debug_abbrev  0x0000d35a      0x197 c:/develop/altera/11.1/nios2eds/bin/gnu/h-i686-mingw32/bin/../lib/gcc/nios2-elf/4.1.2/../../../../nios2-elf/lib\libc.a(lib_a-makebuf.o)
 .debug_abbrev  0x0000d4f1      0x187 c:/develop/altera/11.1/nios2eds/bin/gnu/h-i686-mingw32/bin/../lib/gcc/nios2-elf/4.1.2/../../../../nios2-elf/lib\libc.a(lib_a-malloc.o)
 .debug_abbrev  0x0000d678      0x216 c:/develop/altera/11.1/nios2eds/bin/gnu/h-i686-mingw32/bin/../lib/gcc/nios2-elf/4.1.2/../../../../nios2-elf/lib\libc.a(lib_a-mallocr.o)
 .debug_abbrev  0x0000d88e       0xb5 c:/develop/altera/11.1/nios2eds/bin/gnu/h-i686-mingw32/bin/../lib/gcc/nios2-elf/4.1.2/../../../../nios2-elf/lib\libc.a(lib_a-memchr.o)
 .debug_abbrev  0x0000d943       0x7c c:/develop/altera/11.1/nios2eds/bin/gnu/h-i686-mingw32/bin/../lib/gcc/nios2-elf/4.1.2/../../../../nios2-elf/lib\libc.a(lib_a-memcmp.o)
 .debug_abbrev  0x0000d9bf       0xb5 c:/develop/altera/11.1/nios2eds/bin/gnu/h-i686-mingw32/bin/../lib/gcc/nios2-elf/4.1.2/../../../../nios2-elf/lib\libc.a(lib_a-memcpy.o)
 .debug_abbrev  0x0000da74       0xb8 c:/develop/altera/11.1/nios2eds/bin/gnu/h-i686-mingw32/bin/../lib/gcc/nios2-elf/4.1.2/../../../../nios2-elf/lib\libc.a(lib_a-memset.o)
 .debug_abbrev  0x0000db2c      0x145 c:/develop/altera/11.1/nios2eds/bin/gnu/h-i686-mingw32/bin/../lib/gcc/nios2-elf/4.1.2/../../../../nios2-elf/lib\libc.a(lib_a-mktime.o)
 .debug_abbrev  0x0000dc71      0x134 c:/develop/altera/11.1/nios2eds/bin/gnu/h-i686-mingw32/bin/../lib/gcc/nios2-elf/4.1.2/../../../../nios2-elf/lib\libc.a(lib_a-mktm_r.o)
 .debug_abbrev  0x0000dda5      0x18e c:/develop/altera/11.1/nios2eds/bin/gnu/h-i686-mingw32/bin/../lib/gcc/nios2-elf/4.1.2/../../../../nios2-elf/lib\libc.a(lib_a-openr.o)
 .debug_abbrev  0x0000df33      0x191 c:/develop/altera/11.1/nios2eds/bin/gnu/h-i686-mingw32/bin/../lib/gcc/nios2-elf/4.1.2/../../../../nios2-elf/lib\libc.a(lib_a-printf.o)
 .debug_abbrev  0x0000e0c4      0x170 c:/develop/altera/11.1/nios2eds/bin/gnu/h-i686-mingw32/bin/../lib/gcc/nios2-elf/4.1.2/../../../../nios2-elf/lib\libc.a(lib_a-putchar.o)
 .debug_abbrev  0x0000e234      0x1ac c:/develop/altera/11.1/nios2eds/bin/gnu/h-i686-mingw32/bin/../lib/gcc/nios2-elf/4.1.2/../../../../nios2-elf/lib\libc.a(lib_a-puts.o)
 .debug_abbrev  0x0000e3e0      0x185 c:/develop/altera/11.1/nios2eds/bin/gnu/h-i686-mingw32/bin/../lib/gcc/nios2-elf/4.1.2/../../../../nios2-elf/lib\libc.a(lib_a-rand.o)
 .debug_abbrev  0x0000e565      0x17f c:/develop/altera/11.1/nios2eds/bin/gnu/h-i686-mingw32/bin/../lib/gcc/nios2-elf/4.1.2/../../../../nios2-elf/lib\libc.a(lib_a-realloc.o)
 .debug_abbrev  0x0000e6e4      0x1c3 c:/develop/altera/11.1/nios2eds/bin/gnu/h-i686-mingw32/bin/../lib/gcc/nios2-elf/4.1.2/../../../../nios2-elf/lib\libc.a(lib_a-reallocr.o)
 .debug_abbrev  0x0000e8a7      0x187 c:/develop/altera/11.1/nios2eds/bin/gnu/h-i686-mingw32/bin/../lib/gcc/nios2-elf/4.1.2/../../../../nios2-elf/lib\libc.a(lib_a-refill.o)
 .debug_abbrev  0x0000ea2e      0x189 c:/develop/altera/11.1/nios2eds/bin/gnu/h-i686-mingw32/bin/../lib/gcc/nios2-elf/4.1.2/../../../../nios2-elf/lib\libc.a(lib_a-rget.o)
 .debug_abbrev  0x0000ebb7      0x18c c:/develop/altera/11.1/nios2eds/bin/gnu/h-i686-mingw32/bin/../lib/gcc/nios2-elf/4.1.2/../../../../nios2-elf/lib\libc.a(lib_a-sbrkr.o)
 .debug_abbrev  0x0000ed43      0x19b c:/develop/altera/11.1/nios2eds/bin/gnu/h-i686-mingw32/bin/../lib/gcc/nios2-elf/4.1.2/../../../../nios2-elf/lib\libc.a(lib_a-setvbuf.o)
 .debug_abbrev  0x0000eede      0x1cb c:/develop/altera/11.1/nios2eds/bin/gnu/h-i686-mingw32/bin/../lib/gcc/nios2-elf/4.1.2/../../../../nios2-elf/lib\libc.a(lib_a-signal.o)
 .debug_abbrev  0x0000f0a9      0x1a5 c:/develop/altera/11.1/nios2eds/bin/gnu/h-i686-mingw32/bin/../lib/gcc/nios2-elf/4.1.2/../../../../nios2-elf/lib\libc.a(lib_a-signalr.o)
 .debug_abbrev  0x0000f24e      0x191 c:/develop/altera/11.1/nios2eds/bin/gnu/h-i686-mingw32/bin/../lib/gcc/nios2-elf/4.1.2/../../../../nios2-elf/lib\libc.a(lib_a-sprintf.o)
 .debug_abbrev  0x0000f3df      0x1c9 c:/develop/altera/11.1/nios2eds/bin/gnu/h-i686-mingw32/bin/../lib/gcc/nios2-elf/4.1.2/../../../../nios2-elf/lib\libc.a(lib_a-stdio.o)
 .debug_abbrev  0x0000f5a8       0x80 c:/develop/altera/11.1/nios2eds/bin/gnu/h-i686-mingw32/bin/../lib/gcc/nios2-elf/4.1.2/../../../../nios2-elf/lib\libc.a(lib_a-strchr.o)
 .debug_abbrev  0x0000f628       0x80 c:/develop/altera/11.1/nios2eds/bin/gnu/h-i686-mingw32/bin/../lib/gcc/nios2-elf/4.1.2/../../../../nios2-elf/lib\libc.a(lib_a-strcmp.o)
 .debug_abbrev  0x0000f6a8       0x60 c:/develop/altera/11.1/nios2eds/bin/gnu/h-i686-mingw32/bin/../lib/gcc/nios2-elf/4.1.2/../../../../nios2-elf/lib\libc.a(lib_a-strcoll.o)
 .debug_abbrev  0x0000f708       0x8f c:/develop/altera/11.1/nios2eds/bin/gnu/h-i686-mingw32/bin/../lib/gcc/nios2-elf/4.1.2/../../../../nios2-elf/lib\libc.a(lib_a-strcpy.o)
 .debug_abbrev  0x0000f797       0x68 c:/develop/altera/11.1/nios2eds/bin/gnu/h-i686-mingw32/bin/../lib/gcc/nios2-elf/4.1.2/../../../../nios2-elf/lib\libc.a(lib_a-strerror.o)
 .debug_abbrev  0x0000f7ff      0x13c c:/develop/altera/11.1/nios2eds/bin/gnu/h-i686-mingw32/bin/../lib/gcc/nios2-elf/4.1.2/../../../../nios2-elf/lib\libc.a(lib_a-strftime.o)
 .debug_abbrev  0x0000f93b       0x8b c:/develop/altera/11.1/nios2eds/bin/gnu/h-i686-mingw32/bin/../lib/gcc/nios2-elf/4.1.2/../../../../nios2-elf/lib\libc.a(lib_a-strlen.o)
 .debug_abbrev  0x0000f9c6       0x8d c:/develop/altera/11.1/nios2eds/bin/gnu/h-i686-mingw32/bin/../lib/gcc/nios2-elf/4.1.2/../../../../nios2-elf/lib\libc.a(lib_a-strncmp.o)
 .debug_abbrev  0x0000fa53       0x6f c:/develop/altera/11.1/nios2eds/bin/gnu/h-i686-mingw32/bin/../lib/gcc/nios2-elf/4.1.2/../../../../nios2-elf/lib\libc.a(lib_a-strpbrk.o)
 .debug_abbrev  0x0000fac2       0x98 c:/develop/altera/11.1/nios2eds/bin/gnu/h-i686-mingw32/bin/../lib/gcc/nios2-elf/4.1.2/../../../../nios2-elf/lib\libc.a(lib_a-strspn.o)
 .debug_abbrev  0x0000fb5a      0x19a c:/develop/altera/11.1/nios2eds/bin/gnu/h-i686-mingw32/bin/../lib/gcc/nios2-elf/4.1.2/../../../../nios2-elf/lib\libc.a(lib_a-strstr.o)
 .debug_abbrev  0x0000fcf4      0x2e8 c:/develop/altera/11.1/nios2eds/bin/gnu/h-i686-mingw32/bin/../lib/gcc/nios2-elf/4.1.2/../../../../nios2-elf/lib\libc.a(lib_a-strtod.o)
 .debug_abbrev  0x0000ffdc      0x17f c:/develop/altera/11.1/nios2eds/bin/gnu/h-i686-mingw32/bin/../lib/gcc/nios2-elf/4.1.2/../../../../nios2-elf/lib\libc.a(lib_a-time.o)
 .debug_abbrev  0x0001015b      0x18a c:/develop/altera/11.1/nios2eds/bin/gnu/h-i686-mingw32/bin/../lib/gcc/nios2-elf/4.1.2/../../../../nios2-elf/lib\libc.a(lib_a-timesr.o)
 .debug_abbrev  0x000102e5      0x1ee c:/develop/altera/11.1/nios2eds/bin/gnu/h-i686-mingw32/bin/../lib/gcc/nios2-elf/4.1.2/../../../../nios2-elf/lib\libc.a(lib_a-tmpnam.o)
 .debug_abbrev  0x000104d3       0x4e c:/develop/altera/11.1/nios2eds/bin/gnu/h-i686-mingw32/bin/../lib/gcc/nios2-elf/4.1.2/../../../../nios2-elf/lib\libc.a(lib_a-tzlock.o)
 .debug_abbrev  0x00010521       0x56 c:/develop/altera/11.1/nios2eds/bin/gnu/h-i686-mingw32/bin/../lib/gcc/nios2-elf/4.1.2/../../../../nios2-elf/lib\libc.a(lib_a-tzvars.o)
 .debug_abbrev  0x00010577       0x5b c:/develop/altera/11.1/nios2eds/bin/gnu/h-i686-mingw32/bin/../lib/gcc/nios2-elf/4.1.2/../../../../nios2-elf/lib\libc.a(lib_a-u_strerr.o)
 .debug_abbrev  0x000105d2      0x1a7 c:/develop/altera/11.1/nios2eds/bin/gnu/h-i686-mingw32/bin/../lib/gcc/nios2-elf/4.1.2/../../../../nios2-elf/lib\libc.a(lib_a-ungetc.o)
 .debug_abbrev  0x00010779      0x30a c:/develop/altera/11.1/nios2eds/bin/gnu/h-i686-mingw32/bin/../lib/gcc/nios2-elf/4.1.2/../../../../nios2-elf/lib\libc.a(lib_a-vfprintf.o)
 .debug_abbrev  0x00010a83      0x286 c:/develop/altera/11.1/nios2eds/bin/gnu/h-i686-mingw32/bin/../lib/gcc/nios2-elf/4.1.2/../../../../nios2-elf/lib\libc.a(lib_a-vfscanf.o)
 .debug_abbrev  0x00010d09      0x184 c:/develop/altera/11.1/nios2eds/bin/gnu/h-i686-mingw32/bin/../lib/gcc/nios2-elf/4.1.2/../../../../nios2-elf/lib\libc.a(lib_a-writer.o)
 .debug_abbrev  0x00010e8d      0x170 c:/develop/altera/11.1/nios2eds/bin/gnu/h-i686-mingw32/bin/../lib/gcc/nios2-elf/4.1.2/../../../../nios2-elf/lib\libc.a(lib_a-wsetup.o)
 .debug_abbrev  0x00010ffd      0x1de c:/develop/altera/11.1/nios2eds/bin/gnu/h-i686-mingw32/bin/../lib/gcc/nios2-elf/4.1.2/../../../../nios2-elf/lib\libc.a(lib_a-__call_atexit.o)
 .debug_abbrev  0x000111db       0x50 c:/develop/altera/11.1/nios2eds/bin/gnu/h-i686-mingw32/bin/../lib/gcc/nios2-elf/4.1.2/../../../../nios2-elf/lib\libc.a(lib_a-abs.o)
 .debug_abbrev  0x0001122b      0x17f c:/develop/altera/11.1/nios2eds/bin/gnu/h-i686-mingw32/bin/../lib/gcc/nios2-elf/4.1.2/../../../../nios2-elf/lib\libc.a(lib_a-closer.o)
 .debug_abbrev  0x000113aa       0xa4 c:/develop/altera/11.1/nios2eds/bin/gnu/h-i686-mingw32/bin/../lib/gcc/nios2-elf/4.1.2/../../../../nios2-elf/lib\libc.a(lib_a-div.o)
 .debug_abbrev  0x0001144e      0x232 c:/develop/altera/11.1/nios2eds/bin/gnu/h-i686-mingw32/bin/../lib/gcc/nios2-elf/4.1.2/../../../../nios2-elf/lib\libc.a(lib_a-dtoa.o)
 .debug_abbrev  0x00011680       0x5a c:/develop/altera/11.1/nios2eds/bin/gnu/h-i686-mingw32/bin/../lib/gcc/nios2-elf/4.1.2/../../../../nios2-elf/lib\libc.a(lib_a-environ.o)
 .debug_abbrev  0x000116da      0x17d c:/develop/altera/11.1/nios2eds/bin/gnu/h-i686-mingw32/bin/../lib/gcc/nios2-elf/4.1.2/../../../../nios2-elf/lib\libc.a(lib_a-flags.o)
 .debug_abbrev  0x00011857      0x1a3 c:/develop/altera/11.1/nios2eds/bin/gnu/h-i686-mingw32/bin/../lib/gcc/nios2-elf/4.1.2/../../../../nios2-elf/lib\libc.a(lib_a-fvwrite.o)
 .debug_abbrev  0x000119fa      0x273 c:/develop/altera/11.1/nios2eds/bin/gnu/h-i686-mingw32/bin/../lib/gcc/nios2-elf/4.1.2/../../../../nios2-elf/lib\libc.a(lib_a-gdtoa-gethex.o)
 .debug_abbrev  0x00011c6d      0x117 c:/develop/altera/11.1/nios2eds/bin/gnu/h-i686-mingw32/bin/../lib/gcc/nios2-elf/4.1.2/../../../../nios2-elf/lib\libc.a(lib_a-gdtoa-hexnan.o)
 .debug_abbrev  0x00011d84      0x18e c:/develop/altera/11.1/nios2eds/bin/gnu/h-i686-mingw32/bin/../lib/gcc/nios2-elf/4.1.2/../../../../nios2-elf/lib\libc.a(lib_a-gettimeofdayr.o)
 .debug_abbrev  0x00011f12       0xa5 c:/develop/altera/11.1/nios2eds/bin/gnu/h-i686-mingw32/bin/../lib/gcc/nios2-elf/4.1.2/../../../../nios2-elf/lib\libc.a(lib_a-gettzinfo.o)
 .debug_abbrev  0x00011fb7      0x17f c:/develop/altera/11.1/nios2eds/bin/gnu/h-i686-mingw32/bin/../lib/gcc/nios2-elf/4.1.2/../../../../nios2-elf/lib\libc.a(lib_a-isattyr.o)
 .debug_abbrev  0x00012136       0x9f c:/develop/altera/11.1/nios2eds/bin/gnu/h-i686-mingw32/bin/../lib/gcc/nios2-elf/4.1.2/../../../../nios2-elf/lib\libc.a(lib_a-iswspace.o)
 .debug_abbrev  0x000121d5       0x50 c:/develop/altera/11.1/nios2eds/bin/gnu/h-i686-mingw32/bin/../lib/gcc/nios2-elf/4.1.2/../../../../nios2-elf/lib\libc.a(lib_a-labs.o)
 .debug_abbrev  0x00012225      0x18e c:/develop/altera/11.1/nios2eds/bin/gnu/h-i686-mingw32/bin/../lib/gcc/nios2-elf/4.1.2/../../../../nios2-elf/lib\libc.a(lib_a-lseekr.o)
 .debug_abbrev  0x000123b3      0x17f c:/develop/altera/11.1/nios2eds/bin/gnu/h-i686-mingw32/bin/../lib/gcc/nios2-elf/4.1.2/../../../../nios2-elf/lib\libc.a(lib_a-mbrtowc.o)
 .debug_abbrev  0x00012532      0x18a c:/develop/altera/11.1/nios2eds/bin/gnu/h-i686-mingw32/bin/../lib/gcc/nios2-elf/4.1.2/../../../../nios2-elf/lib\libc.a(lib_a-mbtowc_r.o)
 .debug_abbrev  0x000126bc       0xb5 c:/develop/altera/11.1/nios2eds/bin/gnu/h-i686-mingw32/bin/../lib/gcc/nios2-elf/4.1.2/../../../../nios2-elf/lib\libc.a(lib_a-memmove.o)
 .debug_abbrev  0x00012771      0x297 c:/develop/altera/11.1/nios2eds/bin/gnu/h-i686-mingw32/bin/../lib/gcc/nios2-elf/4.1.2/../../../../nios2-elf/lib\libc.a(lib_a-mprec.o)
 .debug_abbrev  0x00012a08      0x17f c:/develop/altera/11.1/nios2eds/bin/gnu/h-i686-mingw32/bin/../lib/gcc/nios2-elf/4.1.2/../../../../nios2-elf/lib\libc.a(lib_a-putc.o)
 .debug_abbrev  0x00012b87      0x17f c:/develop/altera/11.1/nios2eds/bin/gnu/h-i686-mingw32/bin/../lib/gcc/nios2-elf/4.1.2/../../../../nios2-elf/lib\libc.a(lib_a-readr.o)
 .debug_abbrev  0x00012d06       0x79 c:/develop/altera/11.1/nios2eds/bin/gnu/h-i686-mingw32/bin/../lib/gcc/nios2-elf/4.1.2/../../../../nios2-elf/lib\libc.a(lib_a-s_isinfd.o)
 .debug_abbrev  0x00012d7f       0x93 c:/develop/altera/11.1/nios2eds/bin/gnu/h-i686-mingw32/bin/../lib/gcc/nios2-elf/4.1.2/../../../../nios2-elf/lib\libc.a(lib_a-sccl.o)
 .debug_abbrev  0x00012e12       0x6d c:/develop/altera/11.1/nios2eds/bin/gnu/h-i686-mingw32/bin/../lib/gcc/nios2-elf/4.1.2/../../../../nios2-elf/lib\libc.a(lib_a-sf_nan.o)
 .debug_abbrev  0x00012e7f      0x1a2 c:/develop/altera/11.1/nios2eds/bin/gnu/h-i686-mingw32/bin/../lib/gcc/nios2-elf/4.1.2/../../../../nios2-elf/lib\libc.a(lib_a-snprintf.o)
 .debug_abbrev  0x00013021      0x1c7 c:/develop/altera/11.1/nios2eds/bin/gnu/h-i686-mingw32/bin/../lib/gcc/nios2-elf/4.1.2/../../../../nios2-elf/lib\libc.a(lib_a-strtol.o)
 .debug_abbrev  0x000131e8      0x18e c:/develop/altera/11.1/nios2eds/bin/gnu/h-i686-mingw32/bin/../lib/gcc/nios2-elf/4.1.2/../../../../nios2-elf/lib\libc.a(lib_a-strtoll_r.o)
 .debug_abbrev  0x00013376      0x1c5 c:/develop/altera/11.1/nios2eds/bin/gnu/h-i686-mingw32/bin/../lib/gcc/nios2-elf/4.1.2/../../../../nios2-elf/lib\libc.a(lib_a-strtoul.o)
 .debug_abbrev  0x0001353b      0x18c c:/develop/altera/11.1/nios2eds/bin/gnu/h-i686-mingw32/bin/../lib/gcc/nios2-elf/4.1.2/../../../../nios2-elf/lib\libc.a(lib_a-strtoull_r.o)
 .debug_abbrev  0x000136c7      0x198 c:/develop/altera/11.1/nios2eds/bin/gnu/h-i686-mingw32/bin/../lib/gcc/nios2-elf/4.1.2/../../../../nios2-elf/lib\libc.a(lib_a-wbuf.o)
 .debug_abbrev  0x0001385f      0x1b8 c:/develop/altera/11.1/nios2eds/bin/gnu/h-i686-mingw32/bin/../lib/gcc/nios2-elf/4.1.2/../../../../nios2-elf/lib\libc.a(lib_a-callocr.o)
 .debug_abbrev  0x00013a17      0x16b c:/develop/altera/11.1/nios2eds/bin/gnu/h-i686-mingw32/bin/../lib/gcc/nios2-elf/4.1.2\libgcc.a(_udivdi3.o)
 .debug_abbrev  0x00013b82      0x18e c:/develop/altera/11.1/nios2eds/bin/gnu/h-i686-mingw32/bin/../lib/gcc/nios2-elf/4.1.2\libgcc.a(_umoddi3.o)
 .debug_abbrev  0x00013d10      0x151 c:/develop/altera/11.1/nios2eds/bin/gnu/h-i686-mingw32/bin/../lib/gcc/nios2-elf/4.1.2\libgcc.a(_ne_sf.o)
 .debug_abbrev  0x00013e61      0x151 c:/develop/altera/11.1/nios2eds/bin/gnu/h-i686-mingw32/bin/../lib/gcc/nios2-elf/4.1.2\libgcc.a(_gt_sf.o)
 .debug_abbrev  0x00013fb2      0x151 c:/develop/altera/11.1/nios2eds/bin/gnu/h-i686-mingw32/bin/../lib/gcc/nios2-elf/4.1.2\libgcc.a(_lt_sf.o)
 .debug_abbrev  0x00014103      0x137 c:/develop/altera/11.1/nios2eds/bin/gnu/h-i686-mingw32/bin/../lib/gcc/nios2-elf/4.1.2\libgcc.a(_df_to_sf.o)
 .debug_abbrev  0x0001423a      0x158 c:/develop/altera/11.1/nios2eds/bin/gnu/h-i686-mingw32/bin/../lib/gcc/nios2-elf/4.1.2\libgcc.a(_unpack_sf.o)
 .debug_abbrev  0x00014392      0x132 c:/develop/altera/11.1/nios2eds/bin/gnu/h-i686-mingw32/bin/../lib/gcc/nios2-elf/4.1.2\libgcc.a(_fpcmp_parts_sf.o)
 .debug_abbrev  0x000144c4      0x100 c:/develop/altera/11.1/nios2eds/bin/gnu/h-i686-mingw32/bin/../lib/gcc/nios2-elf/4.1.2\libgcc.a(_make_sf.o)
 .debug_abbrev  0x000145c4      0x1aa c:/develop/altera/11.1/nios2eds/bin/gnu/h-i686-mingw32/bin/../lib/gcc/nios2-elf/4.1.2\libgcc.a(_pack_sf.o)
 .debug_abbrev  0x0001476e      0x122 ../Cineraria_DE0_HAL_bsp/\libhal_bsp.a(alt_close.o)
 .debug_abbrev  0x00014890       0xd6 ../Cineraria_DE0_HAL_bsp/\libhal_bsp.a(alt_dev.o)
 .debug_abbrev  0x00014966      0x172 ../Cineraria_DE0_HAL_bsp/\libhal_bsp.a(alt_env_lock.o)
 .debug_abbrev  0x00014ad8       0x5e ../Cineraria_DE0_HAL_bsp/\libhal_bsp.a(alt_errno.o)
 .debug_abbrev  0x00014b36       0x9f ../Cineraria_DE0_HAL_bsp/\libhal_bsp.a(alt_exit.o)
 .debug_abbrev  0x00014bd5      0x101 ../Cineraria_DE0_HAL_bsp/\libhal_bsp.a(alt_fs_reg.o)
 .debug_abbrev  0x00014cd6      0x124 ../Cineraria_DE0_HAL_bsp/\libhal_bsp.a(alt_fstat.o)
 .debug_abbrev  0x00014dfa       0x36 ../Cineraria_DE0_HAL_bsp/\libhal_bsp.a(alt_getpid.o)
 .debug_abbrev  0x00014e30       0xff ../Cineraria_DE0_HAL_bsp/\libhal_bsp.a(alt_gettod.o)
 .debug_abbrev  0x00014f2f      0x124 ../Cineraria_DE0_HAL_bsp/\libhal_bsp.a(alt_isatty.o)
 .debug_abbrev  0x00015053       0xa2 ../Cineraria_DE0_HAL_bsp/\libhal_bsp.a(alt_kill.o)
 .debug_abbrev  0x000150f5      0x122 ../Cineraria_DE0_HAL_bsp/\libhal_bsp.a(alt_lseek.o)
 .debug_abbrev  0x00015217       0xb7 ../Cineraria_DE0_HAL_bsp/\libhal_bsp.a(alt_main.o)
 .debug_abbrev  0x000152ce      0x172 ../Cineraria_DE0_HAL_bsp/\libhal_bsp.a(alt_malloc_lock.o)
 .debug_abbrev  0x00015440      0x179 ../Cineraria_DE0_HAL_bsp/\libhal_bsp.a(alt_open.o)
 .debug_abbrev  0x000155b9      0x131 ../Cineraria_DE0_HAL_bsp/\libhal_bsp.a(alt_read.o)
 .debug_abbrev  0x000156ea       0xdb ../Cineraria_DE0_HAL_bsp/\libhal_bsp.a(alt_release_fd.o)
 .debug_abbrev  0x000157c5      0x10b ../Cineraria_DE0_HAL_bsp/\libhal_bsp.a(alt_sbrk.o)
 .debug_abbrev  0x000158d0      0x15f ../Cineraria_DE0_HAL_bsp/\libhal_bsp.a(alt_tick.o)
 .debug_abbrev  0x00015a2f       0xe3 ../Cineraria_DE0_HAL_bsp/\libhal_bsp.a(alt_times.o)
 .debug_abbrev  0x00015b12      0x136 ../Cineraria_DE0_HAL_bsp/\libhal_bsp.a(alt_write.o)
 .debug_abbrev  0x00015c48      0x17a ../Cineraria_DE0_HAL_bsp/\libhal_bsp.a(alt_sys_init.o)
 .debug_abbrev  0x00015dc2      0x204 ../Cineraria_DE0_HAL_bsp/\libhal_bsp.a(altera_avalon_cfi_flash.o)
 .debug_abbrev  0x00015fc6      0x1a3 ../Cineraria_DE0_HAL_bsp/\libhal_bsp.a(altera_avalon_cfi_flash_table.o)
 .debug_abbrev  0x00016169      0x278 ../Cineraria_DE0_HAL_bsp/\libhal_bsp.a(altera_avalon_epcs_flash_controller.o)
 .debug_abbrev  0x000163e1      0x113 ../Cineraria_DE0_HAL_bsp/\libhal_bsp.a(altera_avalon_jtag_uart_fd.o)
 .debug_abbrev  0x000164f4      0x1a5 ../Cineraria_DE0_HAL_bsp/\libhal_bsp.a(altera_avalon_jtag_uart_init.o)
 .debug_abbrev  0x00016699      0x10a ../Cineraria_DE0_HAL_bsp/\libhal_bsp.a(altera_avalon_jtag_uart_ioctl.o)
 .debug_abbrev  0x000167a3      0x194 ../Cineraria_DE0_HAL_bsp/\libhal_bsp.a(altera_avalon_jtag_uart_read.o)
 .debug_abbrev  0x00016937      0x18c ../Cineraria_DE0_HAL_bsp/\libhal_bsp.a(altera_avalon_jtag_uart_write.o)
 .debug_abbrev  0x00016ac3      0x158 ../Cineraria_DE0_HAL_bsp/\libhal_bsp.a(altera_avalon_timer_sc.o)
 .debug_abbrev  0x00016c1b      0x104 ../Cineraria_DE0_HAL_bsp/\libhal_bsp.a(altera_avalon_uart_fd.o)
 .debug_abbrev  0x00016d1f      0x1b8 ../Cineraria_DE0_HAL_bsp/\libhal_bsp.a(altera_avalon_uart_init.o)
 .debug_abbrev  0x00016ed7      0x178 ../Cineraria_DE0_HAL_bsp/\libhal_bsp.a(altera_avalon_uart_read.o)
 .debug_abbrev  0x0001704f      0x169 ../Cineraria_DE0_HAL_bsp/\libhal_bsp.a(altera_avalon_uart_write.o)
 .debug_abbrev  0x000171b8      0x104 ../Cineraria_DE0_HAL_bsp/\libhal_bsp.a(epcs_commands.o)
 .debug_abbrev  0x000172bc      0x179 ../Cineraria_DE0_HAL_bsp/\libhal_bsp.a(alt_alarm_start.o)
 .debug_abbrev  0x00017435       0x89 ../Cineraria_DE0_HAL_bsp/\libhal_bsp.a(alt_dcache_flush.o)
 .debug_abbrev  0x000174be      0x117 ../Cineraria_DE0_HAL_bsp/\libhal_bsp.a(alt_dev_llist_insert.o)
 .debug_abbrev  0x000175d5       0x76 ../Cineraria_DE0_HAL_bsp/\libhal_bsp.a(alt_do_ctors.o)
 .debug_abbrev  0x0001764b       0x76 ../Cineraria_DE0_HAL_bsp/\libhal_bsp.a(alt_do_dtors.o)
 .debug_abbrev  0x000176c1       0xeb ../Cineraria_DE0_HAL_bsp/\libhal_bsp.a(alt_find_dev.o)
 .debug_abbrev  0x000177ac       0xed ../Cineraria_DE0_HAL_bsp/\libhal_bsp.a(alt_find_file.o)
 .debug_abbrev  0x00017899      0x114 ../Cineraria_DE0_HAL_bsp/\libhal_bsp.a(alt_flash_dev.o)
 .debug_abbrev  0x000179ad      0x117 ../Cineraria_DE0_HAL_bsp/\libhal_bsp.a(alt_get_fd.o)
 .debug_abbrev  0x00017ac4      0x160 ../Cineraria_DE0_HAL_bsp/\libhal_bsp.a(alt_iic.o)
 .debug_abbrev  0x00017c24      0x17c ../Cineraria_DE0_HAL_bsp/\libhal_bsp.a(alt_iic_isr_register.o)
 .debug_abbrev  0x00017da0      0x10e ../Cineraria_DE0_HAL_bsp/\libhal_bsp.a(alt_io_redirect.o)
 .debug_abbrev  0x00017eae       0x12 ../Cineraria_DE0_HAL_bsp/\libhal_bsp.a(alt_irq_entry.o)
 .debug_abbrev  0x00017ec0      0x115 ../Cineraria_DE0_HAL_bsp/\libhal_bsp.a(alt_irq_handler.o)
 .debug_abbrev  0x00017fd5       0x44 ../Cineraria_DE0_HAL_bsp/\libhal_bsp.a(alt_irq_vars.o)
 .debug_abbrev  0x00018019       0x3f ../Cineraria_DE0_HAL_bsp/\libhal_bsp.a(altera_nios2_irq.o)
 .debug_abbrev  0x00018058      0x1b4 ../Cineraria_DE0_HAL_bsp/\libhal_bsp.a(altera_avalon_cfi_flash_amd.o)
 .debug_abbrev  0x0001820c      0x12f ../Cineraria_DE0_HAL_bsp/\libhal_bsp.a(altera_avalon_cfi_flash_intel.o)
 .debug_abbrev  0x0001833b       0xb0 ../Cineraria_DE0_HAL_bsp/\libhal_bsp.a(altera_avalon_spi.o)
 .debug_abbrev  0x000183eb       0x12 ../Cineraria_DE0_HAL_bsp/\libhal_bsp.a(alt_exception_entry.o)
 .debug_abbrev  0x000183fd       0x5d ../Cineraria_DE0_HAL_bsp/\libhal_bsp.a(alt_usleep.o)
 .debug_abbrev  0x0001845a       0x79 ../Cineraria_DE0_HAL_bsp/\libhal_bsp.a(alt_busy_sleep.o)
 .debug_abbrev  0x000184d3       0xb7 c:/develop/altera/11.1/nios2eds/bin/gnu/h-i686-mingw32/bin/../lib/gcc/nios2-elf/4.1.2/../../../../nios2-elf/lib\libc.a(lib_a-atexit.o)
 .debug_abbrev  0x0001858a      0x1ae c:/develop/altera/11.1/nios2eds/bin/gnu/h-i686-mingw32/bin/../lib/gcc/nios2-elf/4.1.2/../../../../nios2-elf/lib\libc.a(lib_a-__atexit.o)

.debug_line     0x00000000    0x50554
 *(.debug_line)
 .debug_line    0x00000000       0x57 ../Cineraria_DE0_HAL_bsp//obj/HAL/src/crt0.o
 .debug_line    0x00000057     0x1e71 obj/default/lua/lapi.o
 .debug_line    0x00001ec8     0x17c3 obj/default/lua/lauxlib.o
 .debug_line    0x0000368b      0xf71 obj/default/lua/lbaselib.o
 .debug_line    0x000045fc      0x72e obj/default/lua/lbitlib.o
 .debug_line    0x00004d2a     0x1908 obj/default/lua/lcode.o
 .debug_line    0x00006632      0x563 obj/default/lua/lcorolib.o
 .debug_line    0x00006b95       0xdd obj/default/lua/lctype.o
 .debug_line    0x00006c72      0xdb5 obj/default/lua/ldblib.o
 .debug_line    0x00007a27      0xf25 obj/default/lua/ldebug.o
 .debug_line    0x0000894c     0x12f3 obj/default/lua/ldo.o
 .debug_line    0x00009c3f      0x4f0 obj/default/lua/ldump.o
 .debug_line    0x0000a12f      0x627 obj/default/lua/lfunc.o
 .debug_line    0x0000a756     0x18b5 obj/default/lua/lgc.o
 .debug_line    0x0000c00b      0x248 obj/default/lua/linit.o
 .debug_line    0x0000c253     0x1154 obj/default/lua/liolib.o
 .debug_line    0x0000d3a7      0xf0d obj/default/lua/llex.o
 .debug_line    0x0000e2b4      0x97f obj/default/lua/lmathlib.o
 .debug_line    0x0000ec33      0x230 obj/default/lua/lmem.o
 .debug_line    0x0000ee63      0xb76 obj/default/lua/loadlib.o
 .debug_line    0x0000f9d9      0xa41 obj/default/lua/lobject.o
 .debug_line    0x0001041a       0xed obj/default/lua/lopcodes.o
 .debug_line    0x00010507      0x875 obj/default/lua/loslib.o
 .debug_line    0x00010d7c     0x26f9 obj/default/lua/lparser.o
 .debug_line    0x00013475      0x7f1 obj/default/lua/lstate.o
 .debug_line    0x00013c66      0x4ee obj/default/lua/lstring.o
 .debug_line    0x00014154     0x19fc obj/default/lua/lstrlib.o
 .debug_line    0x00015b50      0xe32 obj/default/lua/ltable.o
 .debug_line    0x00016982      0x906 obj/default/lua/ltablib.o
 .debug_line    0x00017288      0x375 obj/default/lua/ltm.o
 .debug_line    0x000175fd      0x7cb obj/default/lua/lundump.o
 .debug_line    0x00017dc8     0x11c9 obj/default/lua/lvm.o
 .debug_line    0x00018f91      0x3f6 obj/default/lua/lzio.o
 .debug_line    0x00019387      0x331 obj/default/min.o
 .debug_line    0x000196b8     0x3041 obj/default/mmcfs/fatfs/ff.o
 .debug_line    0x0001c6f9      0x86d obj/default/mmcfs/fatfs/mmcbb.o
 .debug_line    0x0001cf66      0x12f obj/default/mmcfs/fatfs/option/cc932.o
 .debug_line    0x0001d095      0x1e3 obj/default/mmcfs/gettime.o
 .debug_line    0x0001d278      0x341 obj/default/mmcfs/mmc_spi.o
 .debug_line    0x0001d5b9      0x591 obj/default/mmcfs/mmcfs.o
 .debug_line    0x0001db4a      0x392 c:/develop/altera/11.1/nios2eds/bin/gnu/h-i686-mingw32/bin/../lib/gcc/nios2-elf/4.1.2/../../../../nios2-elf/lib\libm.a(lib_a-s_atan.o)
 .debug_line    0x0001dedc      0x310 c:/develop/altera/11.1/nios2eds/bin/gnu/h-i686-mingw32/bin/../lib/gcc/nios2-elf/4.1.2/../../../../nios2-elf/lib\libm.a(lib_a-s_ceil.o)
 .debug_line    0x0001e1ec      0x29f c:/develop/altera/11.1/nios2eds/bin/gnu/h-i686-mingw32/bin/../lib/gcc/nios2-elf/4.1.2/../../../../nios2-elf/lib\libm.a(lib_a-s_cos.o)
 .debug_line    0x0001e48b      0x228 c:/develop/altera/11.1/nios2eds/bin/gnu/h-i686-mingw32/bin/../lib/gcc/nios2-elf/4.1.2/../../../../nios2-elf/lib\libm.a(lib_a-s_fabs.o)
 .debug_line    0x0001e6b3      0x307 c:/develop/altera/11.1/nios2eds/bin/gnu/h-i686-mingw32/bin/../lib/gcc/nios2-elf/4.1.2/../../../../nios2-elf/lib\libm.a(lib_a-s_floor.o)
 .debug_line    0x0001e9ba      0x2d1 c:/develop/altera/11.1/nios2eds/bin/gnu/h-i686-mingw32/bin/../lib/gcc/nios2-elf/4.1.2/../../../../nios2-elf/lib\libm.a(lib_a-s_frexp.o)
 .debug_line    0x0001ec8b      0x264 c:/develop/altera/11.1/nios2eds/bin/gnu/h-i686-mingw32/bin/../lib/gcc/nios2-elf/4.1.2/../../../../nios2-elf/lib\libm.a(lib_a-s_ldexp.o)
 .debug_line    0x0001eeef      0x308 c:/develop/altera/11.1/nios2eds/bin/gnu/h-i686-mingw32/bin/../lib/gcc/nios2-elf/4.1.2/../../../../nios2-elf/lib\libm.a(lib_a-s_modf.o)
 .debug_line    0x0001f1f7      0x32e c:/develop/altera/11.1/nios2eds/bin/gnu/h-i686-mingw32/bin/../lib/gcc/nios2-elf/4.1.2/../../../../nios2-elf/lib\libm.a(lib_a-s_scalbn.o)
 .debug_line    0x0001f525      0x29f c:/develop/altera/11.1/nios2eds/bin/gnu/h-i686-mingw32/bin/../lib/gcc/nios2-elf/4.1.2/../../../../nios2-elf/lib\libm.a(lib_a-s_sin.o)
 .debug_line    0x0001f7c4      0x291 c:/develop/altera/11.1/nios2eds/bin/gnu/h-i686-mingw32/bin/../lib/gcc/nios2-elf/4.1.2/../../../../nios2-elf/lib\libm.a(lib_a-s_tan.o)
 .debug_line    0x0001fa55      0x2ce c:/develop/altera/11.1/nios2eds/bin/gnu/h-i686-mingw32/bin/../lib/gcc/nios2-elf/4.1.2/../../../../nios2-elf/lib\libm.a(lib_a-s_tanh.o)
 .debug_line    0x0001fd23      0x30d c:/develop/altera/11.1/nios2eds/bin/gnu/h-i686-mingw32/bin/../lib/gcc/nios2-elf/4.1.2/../../../../nios2-elf/lib\libm.a(lib_a-w_acos.o)
 .debug_line    0x00020030      0x30d c:/develop/altera/11.1/nios2eds/bin/gnu/h-i686-mingw32/bin/../lib/gcc/nios2-elf/4.1.2/../../../../nios2-elf/lib\libm.a(lib_a-w_asin.o)
 .debug_line    0x0002033d      0x224 c:/develop/altera/11.1/nios2eds/bin/gnu/h-i686-mingw32/bin/../lib/gcc/nios2-elf/4.1.2/../../../../nios2-elf/lib\libm.a(lib_a-w_atan2.o)
 .debug_line    0x00020561      0x30d c:/develop/altera/11.1/nios2eds/bin/gnu/h-i686-mingw32/bin/../lib/gcc/nios2-elf/4.1.2/../../../../nios2-elf/lib\libm.a(lib_a-w_cosh.o)
 .debug_line    0x0002086e      0x376 c:/develop/altera/11.1/nios2eds/bin/gnu/h-i686-mingw32/bin/../lib/gcc/nios2-elf/4.1.2/../../../../nios2-elf/lib\libm.a(lib_a-w_exp.o)
 .debug_line    0x00020be4      0x31d c:/develop/altera/11.1/nios2eds/bin/gnu/h-i686-mingw32/bin/../lib/gcc/nios2-elf/4.1.2/../../../../nios2-elf/lib\libm.a(lib_a-w_fmod.o)
 .debug_line    0x00020f01      0x326 c:/develop/altera/11.1/nios2eds/bin/gnu/h-i686-mingw32/bin/../lib/gcc/nios2-elf/4.1.2/../../../../nios2-elf/lib\libm.a(lib_a-w_log.o)
 .debug_line    0x00021227      0x330 c:/develop/altera/11.1/nios2eds/bin/gnu/h-i686-mingw32/bin/../lib/gcc/nios2-elf/4.1.2/../../../../nios2-elf/lib\libm.a(lib_a-w_log10.o)
 .debug_line    0x00021557      0x5a1 c:/develop/altera/11.1/nios2eds/bin/gnu/h-i686-mingw32/bin/../lib/gcc/nios2-elf/4.1.2/../../../../nios2-elf/lib\libm.a(lib_a-w_pow.o)
 .debug_line    0x00021af8      0x31d c:/develop/altera/11.1/nios2eds/bin/gnu/h-i686-mingw32/bin/../lib/gcc/nios2-elf/4.1.2/../../../../nios2-elf/lib\libm.a(lib_a-w_sinh.o)
 .debug_line    0x00021e15      0x30d c:/develop/altera/11.1/nios2eds/bin/gnu/h-i686-mingw32/bin/../lib/gcc/nios2-elf/4.1.2/../../../../nios2-elf/lib\libm.a(lib_a-w_sqrt.o)
 .debug_line    0x00022122      0x33e c:/develop/altera/11.1/nios2eds/bin/gnu/h-i686-mingw32/bin/../lib/gcc/nios2-elf/4.1.2/../../../../nios2-elf/lib\libm.a(lib_a-e_acos.o)
 .debug_line    0x00022460      0x37a c:/develop/altera/11.1/nios2eds/bin/gnu/h-i686-mingw32/bin/../lib/gcc/nios2-elf/4.1.2/../../../../nios2-elf/lib\libm.a(lib_a-e_asin.o)
 .debug_line    0x000227da      0x383 c:/develop/altera/11.1/nios2eds/bin/gnu/h-i686-mingw32/bin/../lib/gcc/nios2-elf/4.1.2/../../../../nios2-elf/lib\libm.a(lib_a-e_atan2.o)
 .debug_line    0x00022b5d      0x314 c:/develop/altera/11.1/nios2eds/bin/gnu/h-i686-mingw32/bin/../lib/gcc/nios2-elf/4.1.2/../../../../nios2-elf/lib\libm.a(lib_a-e_cosh.o)
 .debug_line    0x00022e71      0x377 c:/develop/altera/11.1/nios2eds/bin/gnu/h-i686-mingw32/bin/../lib/gcc/nios2-elf/4.1.2/../../../../nios2-elf/lib\libm.a(lib_a-e_exp.o)
 .debug_line    0x000231e8      0x4f4 c:/develop/altera/11.1/nios2eds/bin/gnu/h-i686-mingw32/bin/../lib/gcc/nios2-elf/4.1.2/../../../../nios2-elf/lib\libm.a(lib_a-e_fmod.o)
 .debug_line    0x000236dc      0x4b1 c:/develop/altera/11.1/nios2eds/bin/gnu/h-i686-mingw32/bin/../lib/gcc/nios2-elf/4.1.2/../../../../nios2-elf/lib\libm.a(lib_a-e_log.o)
 .debug_line    0x00023b8d      0x2f5 c:/develop/altera/11.1/nios2eds/bin/gnu/h-i686-mingw32/bin/../lib/gcc/nios2-elf/4.1.2/../../../../nios2-elf/lib\libm.a(lib_a-e_log10.o)
 .debug_line    0x00023e82      0xad5 c:/develop/altera/11.1/nios2eds/bin/gnu/h-i686-mingw32/bin/../lib/gcc/nios2-elf/4.1.2/../../../../nios2-elf/lib\libm.a(lib_a-e_pow.o)
 .debug_line    0x00024957      0x658 c:/develop/altera/11.1/nios2eds/bin/gnu/h-i686-mingw32/bin/../lib/gcc/nios2-elf/4.1.2/../../../../nios2-elf/lib\libm.a(lib_a-e_rem_pio2.o)
 .debug_line    0x00024faf      0x2fc c:/develop/altera/11.1/nios2eds/bin/gnu/h-i686-mingw32/bin/../lib/gcc/nios2-elf/4.1.2/../../../../nios2-elf/lib\libm.a(lib_a-e_sinh.o)
 .debug_line    0x000252ab      0x4e0 c:/develop/altera/11.1/nios2eds/bin/gnu/h-i686-mingw32/bin/../lib/gcc/nios2-elf/4.1.2/../../../../nios2-elf/lib\libm.a(lib_a-e_sqrt.o)
 .debug_line    0x0002578b      0x2c3 c:/develop/altera/11.1/nios2eds/bin/gnu/h-i686-mingw32/bin/../lib/gcc/nios2-elf/4.1.2/../../../../nios2-elf/lib\libm.a(lib_a-k_cos.o)
 .debug_line    0x00025a4e      0x8d8 c:/develop/altera/11.1/nios2eds/bin/gnu/h-i686-mingw32/bin/../lib/gcc/nios2-elf/4.1.2/../../../../nios2-elf/lib\libm.a(lib_a-k_rem_pio2.o)
 .debug_line    0x00026326      0x2af c:/develop/altera/11.1/nios2eds/bin/gnu/h-i686-mingw32/bin/../lib/gcc/nios2-elf/4.1.2/../../../../nios2-elf/lib\libm.a(lib_a-k_sin.o)
 .debug_line    0x000265d5      0x40b c:/develop/altera/11.1/nios2eds/bin/gnu/h-i686-mingw32/bin/../lib/gcc/nios2-elf/4.1.2/../../../../nios2-elf/lib\libm.a(lib_a-k_tan.o)
 .debug_line    0x000269e0      0x22c c:/develop/altera/11.1/nios2eds/bin/gnu/h-i686-mingw32/bin/../lib/gcc/nios2-elf/4.1.2/../../../../nios2-elf/lib\libm.a(lib_a-s_copysign.o)
 .debug_line    0x00026c0c      0x505 c:/develop/altera/11.1/nios2eds/bin/gnu/h-i686-mingw32/bin/../lib/gcc/nios2-elf/4.1.2/../../../../nios2-elf/lib\libm.a(lib_a-s_expm1.o)
 .debug_line    0x00027111      0x212 c:/develop/altera/11.1/nios2eds/bin/gnu/h-i686-mingw32/bin/../lib/gcc/nios2-elf/4.1.2/../../../../nios2-elf/lib\libm.a(lib_a-s_finite.o)
 .debug_line    0x00027323      0x21a c:/develop/altera/11.1/nios2eds/bin/gnu/h-i686-mingw32/bin/../lib/gcc/nios2-elf/4.1.2/../../../../nios2-elf/lib\libm.a(lib_a-s_isnand.o)
 .debug_line    0x0002753d      0x1f9 c:/develop/altera/11.1/nios2eds/bin/gnu/h-i686-mingw32/bin/../lib/gcc/nios2-elf/4.1.2/../../../../nios2-elf/lib\libm.a(lib_a-s_lib_ver.o)
 .debug_line    0x00027736      0x20b c:/develop/altera/11.1/nios2eds/bin/gnu/h-i686-mingw32/bin/../lib/gcc/nios2-elf/4.1.2/../../../../nios2-elf/lib\libm.a(lib_a-s_matherr.o)
 .debug_line    0x00027941      0x20f c:/develop/altera/11.1/nios2eds/bin/gnu/h-i686-mingw32/bin/../lib/gcc/nios2-elf/4.1.2/../../../../nios2-elf/lib\libm.a(lib_a-s_nan.o)
 .debug_line    0x00027b50      0x32c c:/develop/altera/11.1/nios2eds/bin/gnu/h-i686-mingw32/bin/../lib/gcc/nios2-elf/4.1.2/../../../../nios2-elf/lib\libm.a(lib_a-s_rint.o)
 .debug_line    0x00027e7c       0xff c:/develop/altera/11.1/nios2eds/bin/gnu/h-i686-mingw32/bin/../lib/gcc/nios2-elf/4.1.2\libgcc.a(_fixunsdfsi.o)
 .debug_line    0x00027f7b      0x430 c:/develop/altera/11.1/nios2eds/bin/gnu/h-i686-mingw32/bin/../lib/gcc/nios2-elf/4.1.2\libgcc.a(_addsub_df.o)
 .debug_line    0x000283ab      0x3e5 c:/develop/altera/11.1/nios2eds/bin/gnu/h-i686-mingw32/bin/../lib/gcc/nios2-elf/4.1.2\libgcc.a(_mul_df.o)
 .debug_line    0x00028790      0x301 c:/develop/altera/11.1/nios2eds/bin/gnu/h-i686-mingw32/bin/../lib/gcc/nios2-elf/4.1.2\libgcc.a(_div_df.o)
 .debug_line    0x00028a91      0x129 c:/develop/altera/11.1/nios2eds/bin/gnu/h-i686-mingw32/bin/../lib/gcc/nios2-elf/4.1.2\libgcc.a(_eq_df.o)
 .debug_line    0x00028bba      0x129 c:/develop/altera/11.1/nios2eds/bin/gnu/h-i686-mingw32/bin/../lib/gcc/nios2-elf/4.1.2\libgcc.a(_ne_df.o)
 .debug_line    0x00028ce3      0x129 c:/develop/altera/11.1/nios2eds/bin/gnu/h-i686-mingw32/bin/../lib/gcc/nios2-elf/4.1.2\libgcc.a(_gt_df.o)
 .debug_line    0x00028e0c      0x129 c:/develop/altera/11.1/nios2eds/bin/gnu/h-i686-mingw32/bin/../lib/gcc/nios2-elf/4.1.2\libgcc.a(_ge_df.o)
 .debug_line    0x00028f35      0x129 c:/develop/altera/11.1/nios2eds/bin/gnu/h-i686-mingw32/bin/../lib/gcc/nios2-elf/4.1.2\libgcc.a(_lt_df.o)
 .debug_line    0x0002905e      0x129 c:/develop/altera/11.1/nios2eds/bin/gnu/h-i686-mingw32/bin/../lib/gcc/nios2-elf/4.1.2\libgcc.a(_le_df.o)
 .debug_line    0x00029187      0x175 c:/develop/altera/11.1/nios2eds/bin/gnu/h-i686-mingw32/bin/../lib/gcc/nios2-elf/4.1.2\libgcc.a(_si_to_df.o)
 .debug_line    0x000292fc      0x149 c:/develop/altera/11.1/nios2eds/bin/gnu/h-i686-mingw32/bin/../lib/gcc/nios2-elf/4.1.2\libgcc.a(_df_to_si.o)
 .debug_line    0x00029445       0x94 c:/develop/altera/11.1/nios2eds/bin/gnu/h-i686-mingw32/bin/../lib/gcc/nios2-elf/4.1.2\libgcc.a(_thenan_df.o)
 .debug_line    0x000294d9      0x189 c:/develop/altera/11.1/nios2eds/bin/gnu/h-i686-mingw32/bin/../lib/gcc/nios2-elf/4.1.2\libgcc.a(_usi_to_df.o)
 .debug_line    0x00029662      0x24f c:/develop/altera/11.1/nios2eds/bin/gnu/h-i686-mingw32/bin/../lib/gcc/nios2-elf/4.1.2\libgcc.a(lib2-divmod.o)
 .debug_line    0x000298b1      0x11f c:/develop/altera/11.1/nios2eds/bin/gnu/h-i686-mingw32/bin/../lib/gcc/nios2-elf/4.1.2\libgcc.a(_muldi3.o)
 .debug_line    0x000299d0      0x105 c:/develop/altera/11.1/nios2eds/bin/gnu/h-i686-mingw32/bin/../lib/gcc/nios2-elf/4.1.2\libgcc.a(_clzsi2.o)
 .debug_line    0x00029ad5      0x222 c:/develop/altera/11.1/nios2eds/bin/gnu/h-i686-mingw32/bin/../lib/gcc/nios2-elf/4.1.2\libgcc.a(_pack_df.o)
 .debug_line    0x00029cf7      0x1e4 c:/develop/altera/11.1/nios2eds/bin/gnu/h-i686-mingw32/bin/../lib/gcc/nios2-elf/4.1.2\libgcc.a(_unpack_df.o)
 .debug_line    0x00029edb      0x187 c:/develop/altera/11.1/nios2eds/bin/gnu/h-i686-mingw32/bin/../lib/gcc/nios2-elf/4.1.2\libgcc.a(_fpcmp_parts_df.o)
 .debug_line    0x0002a062       0xaa c:/develop/altera/11.1/nios2eds/bin/gnu/h-i686-mingw32/bin/../lib/gcc/nios2-elf/4.1.2\libgcc.a(_clz.o)
 .debug_line    0x0002a10c      0x231 c:/develop/altera/11.1/nios2eds/bin/gnu/h-i686-mingw32/bin/../lib/gcc/nios2-elf/4.1.2/../../../../nios2-elf/lib\libc.a(lib_a-abort.o)
 .debug_line    0x0002a33d      0x238 c:/develop/altera/11.1/nios2eds/bin/gnu/h-i686-mingw32/bin/../lib/gcc/nios2-elf/4.1.2/../../../../nios2-elf/lib\libc.a(lib_a-clock.o)
 .debug_line    0x0002a575       0x7e c:/develop/altera/11.1/nios2eds/bin/gnu/h-i686-mingw32/bin/../lib/gcc/nios2-elf/4.1.2/../../../../nios2-elf/lib\libc.a(lib_a-ctype_.o)
 .debug_line    0x0002a5f3      0x204 c:/develop/altera/11.1/nios2eds/bin/gnu/h-i686-mingw32/bin/../lib/gcc/nios2-elf/4.1.2/../../../../nios2-elf/lib\libc.a(lib_a-difftime.o)
 .debug_line    0x0002a7f7      0x1ec c:/develop/altera/11.1/nios2eds/bin/gnu/h-i686-mingw32/bin/../lib/gcc/nios2-elf/4.1.2/../../../../nios2-elf/lib\libc.a(lib_a-errno.o)
 .debug_line    0x0002a9e3      0x238 c:/develop/altera/11.1/nios2eds/bin/gnu/h-i686-mingw32/bin/../lib/gcc/nios2-elf/4.1.2/../../../../nios2-elf/lib\libc.a(lib_a-exit.o)
 .debug_line    0x0002ac1b      0x2e8 c:/develop/altera/11.1/nios2eds/bin/gnu/h-i686-mingw32/bin/../lib/gcc/nios2-elf/4.1.2/../../../../nios2-elf/lib\libc.a(lib_a-fclose.o)
 .debug_line    0x0002af03      0x40d c:/develop/altera/11.1/nios2eds/bin/gnu/h-i686-mingw32/bin/../lib/gcc/nios2-elf/4.1.2/../../../../nios2-elf/lib\libc.a(lib_a-fflush.o)
 .debug_line    0x0002b310      0x38a c:/develop/altera/11.1/nios2eds/bin/gnu/h-i686-mingw32/bin/../lib/gcc/nios2-elf/4.1.2/../../../../nios2-elf/lib\libc.a(lib_a-fgets.o)
 .debug_line    0x0002b69a      0x601 c:/develop/altera/11.1/nios2eds/bin/gnu/h-i686-mingw32/bin/../lib/gcc/nios2-elf/4.1.2/../../../../nios2-elf/lib\libc.a(lib_a-findfp.o)
 .debug_line    0x0002bc9b      0x342 c:/develop/altera/11.1/nios2eds/bin/gnu/h-i686-mingw32/bin/../lib/gcc/nios2-elf/4.1.2/../../../../nios2-elf/lib\libc.a(lib_a-fopen.o)
 .debug_line    0x0002bfdd      0x284 c:/develop/altera/11.1/nios2eds/bin/gnu/h-i686-mingw32/bin/../lib/gcc/nios2-elf/4.1.2/../../../../nios2-elf/lib\libc.a(lib_a-fprintf.o)
 .debug_line    0x0002c261      0x456 c:/develop/altera/11.1/nios2eds/bin/gnu/h-i686-mingw32/bin/../lib/gcc/nios2-elf/4.1.2/../../../../nios2-elf/lib\libc.a(lib_a-fread.o)
 .debug_line    0x0002c6b7      0x5eb c:/develop/altera/11.1/nios2eds/bin/gnu/h-i686-mingw32/bin/../lib/gcc/nios2-elf/4.1.2/../../../../nios2-elf/lib\libc.a(lib_a-freer.o)
 .debug_line    0x0002cca2      0x43d c:/develop/altera/11.1/nios2eds/bin/gnu/h-i686-mingw32/bin/../lib/gcc/nios2-elf/4.1.2/../../../../nios2-elf/lib\libc.a(lib_a-freopen.o)
 .debug_line    0x0002d0df      0x286 c:/develop/altera/11.1/nios2eds/bin/gnu/h-i686-mingw32/bin/../lib/gcc/nios2-elf/4.1.2/../../../../nios2-elf/lib\libc.a(lib_a-fscanf.o)
 .debug_line    0x0002d365      0x5ab c:/develop/altera/11.1/nios2eds/bin/gnu/h-i686-mingw32/bin/../lib/gcc/nios2-elf/4.1.2/../../../../nios2-elf/lib\libc.a(lib_a-fseek.o)
 .debug_line    0x0002d910      0x264 c:/develop/altera/11.1/nios2eds/bin/gnu/h-i686-mingw32/bin/../lib/gcc/nios2-elf/4.1.2/../../../../nios2-elf/lib\libc.a(lib_a-fstatr.o)
 .debug_line    0x0002db74      0x2ea c:/develop/altera/11.1/nios2eds/bin/gnu/h-i686-mingw32/bin/../lib/gcc/nios2-elf/4.1.2/../../../../nios2-elf/lib\libc.a(lib_a-ftell.o)
 .debug_line    0x0002de5e      0x34a c:/develop/altera/11.1/nios2eds/bin/gnu/h-i686-mingw32/bin/../lib/gcc/nios2-elf/4.1.2/../../../../nios2-elf/lib\libc.a(lib_a-fwalk.o)
 .debug_line    0x0002e1a8      0x2d9 c:/develop/altera/11.1/nios2eds/bin/gnu/h-i686-mingw32/bin/../lib/gcc/nios2-elf/4.1.2/../../../../nios2-elf/lib\libc.a(lib_a-fwrite.o)
 .debug_line    0x0002e481      0x2a4 c:/develop/altera/11.1/nios2eds/bin/gnu/h-i686-mingw32/bin/../lib/gcc/nios2-elf/4.1.2/../../../../nios2-elf/lib\libc.a(lib_a-getc.o)
 .debug_line    0x0002e725      0x256 c:/develop/altera/11.1/nios2eds/bin/gnu/h-i686-mingw32/bin/../lib/gcc/nios2-elf/4.1.2/../../../../nios2-elf/lib\libc.a(lib_a-getenv.o)
 .debug_line    0x0002e97b      0x2b0 c:/develop/altera/11.1/nios2eds/bin/gnu/h-i686-mingw32/bin/../lib/gcc/nios2-elf/4.1.2/../../../../nios2-elf/lib\libc.a(lib_a-getenv_r.o)
 .debug_line    0x0002ec2b      0x216 c:/develop/altera/11.1/nios2eds/bin/gnu/h-i686-mingw32/bin/../lib/gcc/nios2-elf/4.1.2/../../../../nios2-elf/lib\libc.a(lib_a-gmtime.o)
 .debug_line    0x0002ee41      0x20c c:/develop/altera/11.1/nios2eds/bin/gnu/h-i686-mingw32/bin/../lib/gcc/nios2-elf/4.1.2/../../../../nios2-elf/lib\libc.a(lib_a-gmtime_r.o)
 .debug_line    0x0002f04d      0x22d c:/develop/altera/11.1/nios2eds/bin/gnu/h-i686-mingw32/bin/../lib/gcc/nios2-elf/4.1.2/../../../../nios2-elf/lib\libc.a(lib_a-impure.o)
 .debug_line    0x0002f27a      0x1df c:/develop/altera/11.1/nios2eds/bin/gnu/h-i686-mingw32/bin/../lib/gcc/nios2-elf/4.1.2/../../../../nios2-elf/lib\libc.a(lib_a-int_errno.o)
 .debug_line    0x0002f459      0x20b c:/develop/altera/11.1/nios2eds/bin/gnu/h-i686-mingw32/bin/../lib/gcc/nios2-elf/4.1.2/../../../../nios2-elf/lib\libc.a(lib_a-lcltime.o)
 .debug_line    0x0002f664      0x20d c:/develop/altera/11.1/nios2eds/bin/gnu/h-i686-mingw32/bin/../lib/gcc/nios2-elf/4.1.2/../../../../nios2-elf/lib\libc.a(lib_a-lcltime_r.o)
 .debug_line    0x0002f871      0x2c8 c:/develop/altera/11.1/nios2eds/bin/gnu/h-i686-mingw32/bin/../lib/gcc/nios2-elf/4.1.2/../../../../nios2-elf/lib\libc.a(lib_a-locale.o)
 .debug_line    0x0002fb39      0x3c3 c:/develop/altera/11.1/nios2eds/bin/gnu/h-i686-mingw32/bin/../lib/gcc/nios2-elf/4.1.2/../../../../nios2-elf/lib\libc.a(lib_a-makebuf.o)
 .debug_line    0x0002fefc      0x24b c:/develop/altera/11.1/nios2eds/bin/gnu/h-i686-mingw32/bin/../lib/gcc/nios2-elf/4.1.2/../../../../nios2-elf/lib\libc.a(lib_a-malloc.o)
 .debug_line    0x00030147      0x80a c:/develop/altera/11.1/nios2eds/bin/gnu/h-i686-mingw32/bin/../lib/gcc/nios2-elf/4.1.2/../../../../nios2-elf/lib\libc.a(lib_a-mallocr.o)
 .debug_line    0x00030951      0x303 c:/develop/altera/11.1/nios2eds/bin/gnu/h-i686-mingw32/bin/../lib/gcc/nios2-elf/4.1.2/../../../../nios2-elf/lib\libc.a(lib_a-memchr.o)
 .debug_line    0x00030c54      0x29f c:/develop/altera/11.1/nios2eds/bin/gnu/h-i686-mingw32/bin/../lib/gcc/nios2-elf/4.1.2/../../../../nios2-elf/lib\libc.a(lib_a-memcmp.o)
 .debug_line    0x00030ef3      0x1ac c:/develop/altera/11.1/nios2eds/bin/gnu/h-i686-mingw32/bin/../lib/gcc/nios2-elf/4.1.2/../../../../nios2-elf/lib\libc.a(lib_a-memcpy.o)
 .debug_line    0x0003109f      0x301 c:/develop/altera/11.1/nios2eds/bin/gnu/h-i686-mingw32/bin/../lib/gcc/nios2-elf/4.1.2/../../../../nios2-elf/lib\libc.a(lib_a-memset.o)
 .debug_line    0x000313a0      0x704 c:/develop/altera/11.1/nios2eds/bin/gnu/h-i686-mingw32/bin/../lib/gcc/nios2-elf/4.1.2/../../../../nios2-elf/lib\libc.a(lib_a-mktime.o)
 .debug_line    0x00031aa4      0x80c c:/develop/altera/11.1/nios2eds/bin/gnu/h-i686-mingw32/bin/../lib/gcc/nios2-elf/4.1.2/../../../../nios2-elf/lib\libc.a(lib_a-mktm_r.o)
 .debug_line    0x000322b0      0x27b c:/develop/altera/11.1/nios2eds/bin/gnu/h-i686-mingw32/bin/../lib/gcc/nios2-elf/4.1.2/../../../../nios2-elf/lib\libc.a(lib_a-openr.o)
 .debug_line    0x0003252b      0x29b c:/develop/altera/11.1/nios2eds/bin/gnu/h-i686-mingw32/bin/../lib/gcc/nios2-elf/4.1.2/../../../../nios2-elf/lib\libc.a(lib_a-printf.o)
 .debug_line    0x000327c6      0x264 c:/develop/altera/11.1/nios2eds/bin/gnu/h-i686-mingw32/bin/../lib/gcc/nios2-elf/4.1.2/../../../../nios2-elf/lib\libc.a(lib_a-putchar.o)
 .debug_line    0x00032a2a      0x2f7 c:/develop/altera/11.1/nios2eds/bin/gnu/h-i686-mingw32/bin/../lib/gcc/nios2-elf/4.1.2/../../../../nios2-elf/lib\libc.a(lib_a-puts.o)
 .debug_line    0x00032d21      0x23d c:/develop/altera/11.1/nios2eds/bin/gnu/h-i686-mingw32/bin/../lib/gcc/nios2-elf/4.1.2/../../../../nios2-elf/lib\libc.a(lib_a-rand.o)
 .debug_line    0x00032f5e      0x22c c:/develop/altera/11.1/nios2eds/bin/gnu/h-i686-mingw32/bin/../lib/gcc/nios2-elf/4.1.2/../../../../nios2-elf/lib\libc.a(lib_a-realloc.o)
 .debug_line    0x0003318a      0x58a c:/develop/altera/11.1/nios2eds/bin/gnu/h-i686-mingw32/bin/../lib/gcc/nios2-elf/4.1.2/../../../../nios2-elf/lib\libc.a(lib_a-reallocr.o)
 .debug_line    0x00033714      0x3c4 c:/develop/altera/11.1/nios2eds/bin/gnu/h-i686-mingw32/bin/../lib/gcc/nios2-elf/4.1.2/../../../../nios2-elf/lib\libc.a(lib_a-refill.o)
 .debug_line    0x00033ad8      0x28d c:/develop/altera/11.1/nios2eds/bin/gnu/h-i686-mingw32/bin/../lib/gcc/nios2-elf/4.1.2/../../../../nios2-elf/lib\libc.a(lib_a-rget.o)
 .debug_line    0x00033d65      0x299 c:/develop/altera/11.1/nios2eds/bin/gnu/h-i686-mingw32/bin/../lib/gcc/nios2-elf/4.1.2/../../../../nios2-elf/lib\libc.a(lib_a-sbrkr.o)
 .debug_line    0x00033ffe      0x398 c:/develop/altera/11.1/nios2eds/bin/gnu/h-i686-mingw32/bin/../lib/gcc/nios2-elf/4.1.2/../../../../nios2-elf/lib\libc.a(lib_a-setvbuf.o)
 .debug_line    0x00034396      0x4de c:/develop/altera/11.1/nios2eds/bin/gnu/h-i686-mingw32/bin/../lib/gcc/nios2-elf/4.1.2/../../../../nios2-elf/lib\libc.a(lib_a-signal.o)
 .debug_line    0x00034874      0x278 c:/develop/altera/11.1/nios2eds/bin/gnu/h-i686-mingw32/bin/../lib/gcc/nios2-elf/4.1.2/../../../../nios2-elf/lib\libc.a(lib_a-signalr.o)
 .debug_line    0x00034aec      0x322 c:/develop/altera/11.1/nios2eds/bin/gnu/h-i686-mingw32/bin/../lib/gcc/nios2-elf/4.1.2/../../../../nios2-elf/lib\libc.a(lib_a-sprintf.o)
 .debug_line    0x00034e0e      0x38c c:/develop/altera/11.1/nios2eds/bin/gnu/h-i686-mingw32/bin/../lib/gcc/nios2-elf/4.1.2/../../../../nios2-elf/lib\libc.a(lib_a-stdio.o)
 .debug_line    0x0003519a      0x2c7 c:/develop/altera/11.1/nios2eds/bin/gnu/h-i686-mingw32/bin/../lib/gcc/nios2-elf/4.1.2/../../../../nios2-elf/lib\libc.a(lib_a-strchr.o)
 .debug_line    0x00035461      0x2d5 c:/develop/altera/11.1/nios2eds/bin/gnu/h-i686-mingw32/bin/../lib/gcc/nios2-elf/4.1.2/../../../../nios2-elf/lib\libc.a(lib_a-strcmp.o)
 .debug_line    0x00035736      0x23e c:/develop/altera/11.1/nios2eds/bin/gnu/h-i686-mingw32/bin/../lib/gcc/nios2-elf/4.1.2/../../../../nios2-elf/lib\libc.a(lib_a-strcoll.o)
 .debug_line    0x00035974      0x287 c:/develop/altera/11.1/nios2eds/bin/gnu/h-i686-mingw32/bin/../lib/gcc/nios2-elf/4.1.2/../../../../nios2-elf/lib\libc.a(lib_a-strcpy.o)
 .debug_line    0x00035bfb      0x4e1 c:/develop/altera/11.1/nios2eds/bin/gnu/h-i686-mingw32/bin/../lib/gcc/nios2-elf/4.1.2/../../../../nios2-elf/lib\libc.a(lib_a-strerror.o)
 .debug_line    0x000360dc      0xc5f c:/develop/altera/11.1/nios2eds/bin/gnu/h-i686-mingw32/bin/../lib/gcc/nios2-elf/4.1.2/../../../../nios2-elf/lib\libc.a(lib_a-strftime.o)
 .debug_line    0x00036d3b      0x26d c:/develop/altera/11.1/nios2eds/bin/gnu/h-i686-mingw32/bin/../lib/gcc/nios2-elf/4.1.2/../../../../nios2-elf/lib\libc.a(lib_a-strlen.o)
 .debug_line    0x00036fa8      0x2fe c:/develop/altera/11.1/nios2eds/bin/gnu/h-i686-mingw32/bin/../lib/gcc/nios2-elf/4.1.2/../../../../nios2-elf/lib\libc.a(lib_a-strncmp.o)
 .debug_line    0x000372a6      0x2a0 c:/develop/altera/11.1/nios2eds/bin/gnu/h-i686-mingw32/bin/../lib/gcc/nios2-elf/4.1.2/../../../../nios2-elf/lib\libc.a(lib_a-strpbrk.o)
 .debug_line    0x00037546      0x28d c:/develop/altera/11.1/nios2eds/bin/gnu/h-i686-mingw32/bin/../lib/gcc/nios2-elf/4.1.2/../../../../nios2-elf/lib\libc.a(lib_a-strspn.o)
 .debug_line    0x000377d3      0x6cd c:/develop/altera/11.1/nios2eds/bin/gnu/h-i686-mingw32/bin/../lib/gcc/nios2-elf/4.1.2/../../../../nios2-elf/lib\libc.a(lib_a-strstr.o)
 .debug_line    0x00037ea0      0xfe4 c:/develop/altera/11.1/nios2eds/bin/gnu/h-i686-mingw32/bin/../lib/gcc/nios2-elf/4.1.2/../../../../nios2-elf/lib\libc.a(lib_a-strtod.o)
 .debug_line    0x00038e84      0x247 c:/develop/altera/11.1/nios2eds/bin/gnu/h-i686-mingw32/bin/../lib/gcc/nios2-elf/4.1.2/../../../../nios2-elf/lib\libc.a(lib_a-time.o)
 .debug_line    0x000390cb      0x233 c:/develop/altera/11.1/nios2eds/bin/gnu/h-i686-mingw32/bin/../lib/gcc/nios2-elf/4.1.2/../../../../nios2-elf/lib\libc.a(lib_a-timesr.o)
 .debug_line    0x000392fe      0x3f2 c:/develop/altera/11.1/nios2eds/bin/gnu/h-i686-mingw32/bin/../lib/gcc/nios2-elf/4.1.2/../../../../nios2-elf/lib\libc.a(lib_a-tmpnam.o)
 .debug_line    0x000396f0      0x20a c:/develop/altera/11.1/nios2eds/bin/gnu/h-i686-mingw32/bin/../lib/gcc/nios2-elf/4.1.2/../../../../nios2-elf/lib\libc.a(lib_a-tzlock.o)
 .debug_line    0x000398fa      0x1e8 c:/develop/altera/11.1/nios2eds/bin/gnu/h-i686-mingw32/bin/../lib/gcc/nios2-elf/4.1.2/../../../../nios2-elf/lib\libc.a(lib_a-tzvars.o)
 .debug_line    0x00039ae2       0x91 c:/develop/altera/11.1/nios2eds/bin/gnu/h-i686-mingw32/bin/../lib/gcc/nios2-elf/4.1.2/../../../../nios2-elf/lib\libc.a(lib_a-u_strerr.o)
 .debug_line    0x00039b73      0x49f c:/develop/altera/11.1/nios2eds/bin/gnu/h-i686-mingw32/bin/../lib/gcc/nios2-elf/4.1.2/../../../../nios2-elf/lib\libc.a(lib_a-ungetc.o)
 .debug_line    0x0003a012     0x110c c:/develop/altera/11.1/nios2eds/bin/gnu/h-i686-mingw32/bin/../lib/gcc/nios2-elf/4.1.2/../../../../nios2-elf/lib\libc.a(lib_a-vfprintf.o)
 .debug_line    0x0003b11e     0x103d c:/develop/altera/11.1/nios2eds/bin/gnu/h-i686-mingw32/bin/../lib/gcc/nios2-elf/4.1.2/../../../../nios2-elf/lib\libc.a(lib_a-vfscanf.o)
 .debug_line    0x0003c15b      0x29a c:/develop/altera/11.1/nios2eds/bin/gnu/h-i686-mingw32/bin/../lib/gcc/nios2-elf/4.1.2/../../../../nios2-elf/lib\libc.a(lib_a-writer.o)
 .debug_line    0x0003c3f5      0x2f0 c:/develop/altera/11.1/nios2eds/bin/gnu/h-i686-mingw32/bin/../lib/gcc/nios2-elf/4.1.2/../../../../nios2-elf/lib\libc.a(lib_a-wsetup.o)
 .debug_line    0x0003c6e5      0x367 c:/develop/altera/11.1/nios2eds/bin/gnu/h-i686-mingw32/bin/../lib/gcc/nios2-elf/4.1.2/../../../../nios2-elf/lib\libc.a(lib_a-__call_atexit.o)
 .debug_line    0x0003ca4c      0x1f1 c:/develop/altera/11.1/nios2eds/bin/gnu/h-i686-mingw32/bin/../lib/gcc/nios2-elf/4.1.2/../../../../nios2-elf/lib\libc.a(lib_a-abs.o)
 .debug_line    0x0003cc3d      0x29a c:/develop/altera/11.1/nios2eds/bin/gnu/h-i686-mingw32/bin/../lib/gcc/nios2-elf/4.1.2/../../../../nios2-elf/lib\libc.a(lib_a-closer.o)
 .debug_line    0x0003ced7      0x231 c:/develop/altera/11.1/nios2eds/bin/gnu/h-i686-mingw32/bin/../lib/gcc/nios2-elf/4.1.2/../../../../nios2-elf/lib\libc.a(lib_a-div.o)
 .debug_line    0x0003d108     0x12c6 c:/develop/altera/11.1/nios2eds/bin/gnu/h-i686-mingw32/bin/../lib/gcc/nios2-elf/4.1.2/../../../../nios2-elf/lib\libc.a(lib_a-dtoa.o)
 .debug_line    0x0003e3ce       0x80 c:/develop/altera/11.1/nios2eds/bin/gnu/h-i686-mingw32/bin/../lib/gcc/nios2-elf/4.1.2/../../../../nios2-elf/lib\libc.a(lib_a-environ.o)
 .debug_line    0x0003e44e      0x296 c:/develop/altera/11.1/nios2eds/bin/gnu/h-i686-mingw32/bin/../lib/gcc/nios2-elf/4.1.2/../../../../nios2-elf/lib\libc.a(lib_a-flags.o)
 .debug_line    0x0003e6e4      0x641 c:/develop/altera/11.1/nios2eds/bin/gnu/h-i686-mingw32/bin/../lib/gcc/nios2-elf/4.1.2/../../../../nios2-elf/lib\libc.a(lib_a-fvwrite.o)
 .debug_line    0x0003ed25      0x8c5 c:/develop/altera/11.1/nios2eds/bin/gnu/h-i686-mingw32/bin/../lib/gcc/nios2-elf/4.1.2/../../../../nios2-elf/lib\libc.a(lib_a-gdtoa-gethex.o)
 .debug_line    0x0003f5ea      0x47b c:/develop/altera/11.1/nios2eds/bin/gnu/h-i686-mingw32/bin/../lib/gcc/nios2-elf/4.1.2/../../../../nios2-elf/lib\libc.a(lib_a-gdtoa-hexnan.o)
 .debug_line    0x0003fa65      0x27a c:/develop/altera/11.1/nios2eds/bin/gnu/h-i686-mingw32/bin/../lib/gcc/nios2-elf/4.1.2/../../../../nios2-elf/lib\libc.a(lib_a-gettimeofdayr.o)
 .debug_line    0x0003fcdf      0x1fd c:/develop/altera/11.1/nios2eds/bin/gnu/h-i686-mingw32/bin/../lib/gcc/nios2-elf/4.1.2/../../../../nios2-elf/lib\libc.a(lib_a-gettzinfo.o)
 .debug_line    0x0003fedc      0x29b c:/develop/altera/11.1/nios2eds/bin/gnu/h-i686-mingw32/bin/../lib/gcc/nios2-elf/4.1.2/../../../../nios2-elf/lib\libc.a(lib_a-isattyr.o)
 .debug_line    0x00040177      0x1fb c:/develop/altera/11.1/nios2eds/bin/gnu/h-i686-mingw32/bin/../lib/gcc/nios2-elf/4.1.2/../../../../nios2-elf/lib\libc.a(lib_a-iswspace.o)
 .debug_line    0x00040372      0x1f2 c:/develop/altera/11.1/nios2eds/bin/gnu/h-i686-mingw32/bin/../lib/gcc/nios2-elf/4.1.2/../../../../nios2-elf/lib\libc.a(lib_a-labs.o)
 .debug_line    0x00040564      0x29a c:/develop/altera/11.1/nios2eds/bin/gnu/h-i686-mingw32/bin/../lib/gcc/nios2-elf/4.1.2/../../../../nios2-elf/lib\libc.a(lib_a-lseekr.o)
 .debug_line    0x000407fe      0x2c6 c:/develop/altera/11.1/nios2eds/bin/gnu/h-i686-mingw32/bin/../lib/gcc/nios2-elf/4.1.2/../../../../nios2-elf/lib\libc.a(lib_a-mbrtowc.o)
 .debug_line    0x00040ac4      0x236 c:/develop/altera/11.1/nios2eds/bin/gnu/h-i686-mingw32/bin/../lib/gcc/nios2-elf/4.1.2/../../../../nios2-elf/lib\libc.a(lib_a-mbtowc_r.o)
 .debug_line    0x00040cfa      0x30a c:/develop/altera/11.1/nios2eds/bin/gnu/h-i686-mingw32/bin/../lib/gcc/nios2-elf/4.1.2/../../../../nios2-elf/lib\libc.a(lib_a-memmove.o)
 .debug_line    0x00041004     0x1243 c:/develop/altera/11.1/nios2eds/bin/gnu/h-i686-mingw32/bin/../lib/gcc/nios2-elf/4.1.2/../../../../nios2-elf/lib\libc.a(lib_a-mprec.o)
 .debug_line    0x00042247      0x2c4 c:/develop/altera/11.1/nios2eds/bin/gnu/h-i686-mingw32/bin/../lib/gcc/nios2-elf/4.1.2/../../../../nios2-elf/lib\libc.a(lib_a-putc.o)
 .debug_line    0x0004250b      0x299 c:/develop/altera/11.1/nios2eds/bin/gnu/h-i686-mingw32/bin/../lib/gcc/nios2-elf/4.1.2/../../../../nios2-elf/lib\libc.a(lib_a-readr.o)
 .debug_line    0x000427a4      0x222 c:/develop/altera/11.1/nios2eds/bin/gnu/h-i686-mingw32/bin/../lib/gcc/nios2-elf/4.1.2/../../../../nios2-elf/lib\libc.a(lib_a-s_isinfd.o)
 .debug_line    0x000429c6      0x2c9 c:/develop/altera/11.1/nios2eds/bin/gnu/h-i686-mingw32/bin/../lib/gcc/nios2-elf/4.1.2/../../../../nios2-elf/lib\libc.a(lib_a-sccl.o)
 .debug_line    0x00042c8f      0x208 c:/develop/altera/11.1/nios2eds/bin/gnu/h-i686-mingw32/bin/../lib/gcc/nios2-elf/4.1.2/../../../../nios2-elf/lib\libc.a(lib_a-sf_nan.o)
 .debug_line    0x00042e97      0x3a7 c:/develop/altera/11.1/nios2eds/bin/gnu/h-i686-mingw32/bin/../lib/gcc/nios2-elf/4.1.2/../../../../nios2-elf/lib\libc.a(lib_a-snprintf.o)
 .debug_line    0x0004323e      0x403 c:/develop/altera/11.1/nios2eds/bin/gnu/h-i686-mingw32/bin/../lib/gcc/nios2-elf/4.1.2/../../../../nios2-elf/lib\libc.a(lib_a-strtol.o)
 .debug_line    0x00043641      0x406 c:/develop/altera/11.1/nios2eds/bin/gnu/h-i686-mingw32/bin/../lib/gcc/nios2-elf/4.1.2/../../../../nios2-elf/lib\libc.a(lib_a-strtoll_r.o)
 .debug_line    0x00043a47      0x3ba c:/develop/altera/11.1/nios2eds/bin/gnu/h-i686-mingw32/bin/../lib/gcc/nios2-elf/4.1.2/../../../../nios2-elf/lib\libc.a(lib_a-strtoul.o)
 .debug_line    0x00043e01      0x3af c:/develop/altera/11.1/nios2eds/bin/gnu/h-i686-mingw32/bin/../lib/gcc/nios2-elf/4.1.2/../../../../nios2-elf/lib\libc.a(lib_a-strtoull_r.o)
 .debug_line    0x000441b0      0x350 c:/develop/altera/11.1/nios2eds/bin/gnu/h-i686-mingw32/bin/../lib/gcc/nios2-elf/4.1.2/../../../../nios2-elf/lib\libc.a(lib_a-wbuf.o)
 .debug_line    0x00044500      0x25c c:/develop/altera/11.1/nios2eds/bin/gnu/h-i686-mingw32/bin/../lib/gcc/nios2-elf/4.1.2/../../../../nios2-elf/lib\libc.a(lib_a-callocr.o)
 .debug_line    0x0004475c      0x2f2 c:/develop/altera/11.1/nios2eds/bin/gnu/h-i686-mingw32/bin/../lib/gcc/nios2-elf/4.1.2\libgcc.a(_udivdi3.o)
 .debug_line    0x00044a4e      0x37d c:/develop/altera/11.1/nios2eds/bin/gnu/h-i686-mingw32/bin/../lib/gcc/nios2-elf/4.1.2\libgcc.a(_umoddi3.o)
 .debug_line    0x00044dcb      0x121 c:/develop/altera/11.1/nios2eds/bin/gnu/h-i686-mingw32/bin/../lib/gcc/nios2-elf/4.1.2\libgcc.a(_ne_sf.o)
 .debug_line    0x00044eec      0x121 c:/develop/altera/11.1/nios2eds/bin/gnu/h-i686-mingw32/bin/../lib/gcc/nios2-elf/4.1.2\libgcc.a(_gt_sf.o)
 .debug_line    0x0004500d      0x121 c:/develop/altera/11.1/nios2eds/bin/gnu/h-i686-mingw32/bin/../lib/gcc/nios2-elf/4.1.2\libgcc.a(_lt_sf.o)
 .debug_line    0x0004512e      0x121 c:/develop/altera/11.1/nios2eds/bin/gnu/h-i686-mingw32/bin/../lib/gcc/nios2-elf/4.1.2\libgcc.a(_df_to_sf.o)
 .debug_line    0x0004524f      0x197 c:/develop/altera/11.1/nios2eds/bin/gnu/h-i686-mingw32/bin/../lib/gcc/nios2-elf/4.1.2\libgcc.a(_unpack_sf.o)
 .debug_line    0x000453e6      0x177 c:/develop/altera/11.1/nios2eds/bin/gnu/h-i686-mingw32/bin/../lib/gcc/nios2-elf/4.1.2\libgcc.a(_fpcmp_parts_sf.o)
 .debug_line    0x0004555d       0xe1 c:/develop/altera/11.1/nios2eds/bin/gnu/h-i686-mingw32/bin/../lib/gcc/nios2-elf/4.1.2\libgcc.a(_make_sf.o)
 .debug_line    0x0004563e      0x1ca c:/develop/altera/11.1/nios2eds/bin/gnu/h-i686-mingw32/bin/../lib/gcc/nios2-elf/4.1.2\libgcc.a(_pack_sf.o)
 .debug_line    0x00045808      0x2b7 ../Cineraria_DE0_HAL_bsp/\libhal_bsp.a(alt_close.o)
 .debug_line    0x00045abf      0x256 ../Cineraria_DE0_HAL_bsp/\libhal_bsp.a(alt_dev.o)
 .debug_line    0x00045d15      0x21b ../Cineraria_DE0_HAL_bsp/\libhal_bsp.a(alt_env_lock.o)
 .debug_line    0x00045f30      0x1b4 ../Cineraria_DE0_HAL_bsp/\libhal_bsp.a(alt_errno.o)
 .debug_line    0x000460e4      0x1e6 ../Cineraria_DE0_HAL_bsp/\libhal_bsp.a(alt_exit.o)
 .debug_line    0x000462ca      0x25f ../Cineraria_DE0_HAL_bsp/\libhal_bsp.a(alt_fs_reg.o)
 .debug_line    0x00046529      0x2b1 ../Cineraria_DE0_HAL_bsp/\libhal_bsp.a(alt_fstat.o)
 .debug_line    0x000467da       0x69 ../Cineraria_DE0_HAL_bsp/\libhal_bsp.a(alt_getpid.o)
 .debug_line    0x00046843      0x36b ../Cineraria_DE0_HAL_bsp/\libhal_bsp.a(alt_gettod.o)
 .debug_line    0x00046bae      0x2a8 ../Cineraria_DE0_HAL_bsp/\libhal_bsp.a(alt_isatty.o)
 .debug_line    0x00046e56      0x262 ../Cineraria_DE0_HAL_bsp/\libhal_bsp.a(alt_kill.o)
 .debug_line    0x000470b8      0x2ad ../Cineraria_DE0_HAL_bsp/\libhal_bsp.a(alt_lseek.o)
 .debug_line    0x00047365      0x2e4 ../Cineraria_DE0_HAL_bsp/\libhal_bsp.a(alt_main.o)
 .debug_line    0x00047649      0x21e ../Cineraria_DE0_HAL_bsp/\libhal_bsp.a(alt_malloc_lock.o)
 .debug_line    0x00047867      0x338 ../Cineraria_DE0_HAL_bsp/\libhal_bsp.a(alt_open.o)
 .debug_line    0x00047b9f      0x2e4 ../Cineraria_DE0_HAL_bsp/\libhal_bsp.a(alt_read.o)
 .debug_line    0x00047e83       0xfd ../Cineraria_DE0_HAL_bsp/\libhal_bsp.a(alt_release_fd.o)
 .debug_line    0x00047f80      0x25e ../Cineraria_DE0_HAL_bsp/\libhal_bsp.a(alt_sbrk.o)
 .debug_line    0x000481de      0x320 ../Cineraria_DE0_HAL_bsp/\libhal_bsp.a(alt_tick.o)
 .debug_line    0x000484fe      0x29c ../Cineraria_DE0_HAL_bsp/\libhal_bsp.a(alt_times.o)
 .debug_line    0x0004879a      0x2e5 ../Cineraria_DE0_HAL_bsp/\libhal_bsp.a(alt_write.o)
 .debug_line    0x00048a7f      0x3c3 ../Cineraria_DE0_HAL_bsp/\libhal_bsp.a(alt_sys_init.o)
 .debug_line    0x00048e42      0x657 ../Cineraria_DE0_HAL_bsp/\libhal_bsp.a(altera_avalon_cfi_flash.o)
 .debug_line    0x00049499      0xac6 ../Cineraria_DE0_HAL_bsp/\libhal_bsp.a(altera_avalon_cfi_flash_table.o)
 .debug_line    0x00049f5f      0x7e0 ../Cineraria_DE0_HAL_bsp/\libhal_bsp.a(altera_avalon_epcs_flash_controller.o)
 .debug_line    0x0004a73f      0x222 ../Cineraria_DE0_HAL_bsp/\libhal_bsp.a(altera_avalon_jtag_uart_fd.o)
 .debug_line    0x0004a961      0x505 ../Cineraria_DE0_HAL_bsp/\libhal_bsp.a(altera_avalon_jtag_uart_init.o)
 .debug_line    0x0004ae66      0x317 ../Cineraria_DE0_HAL_bsp/\libhal_bsp.a(altera_avalon_jtag_uart_ioctl.o)
 .debug_line    0x0004b17d      0x441 ../Cineraria_DE0_HAL_bsp/\libhal_bsp.a(altera_avalon_jtag_uart_read.o)
 .debug_line    0x0004b5be      0x44f ../Cineraria_DE0_HAL_bsp/\libhal_bsp.a(altera_avalon_jtag_uart_write.o)
 .debug_line    0x0004ba0d      0x2c3 ../Cineraria_DE0_HAL_bsp/\libhal_bsp.a(altera_avalon_timer_sc.o)
 .debug_line    0x0004bcd0      0x1db ../Cineraria_DE0_HAL_bsp/\libhal_bsp.a(altera_avalon_uart_fd.o)
 .debug_line    0x0004beab      0x48c ../Cineraria_DE0_HAL_bsp/\libhal_bsp.a(altera_avalon_uart_init.o)
 .debug_line    0x0004c337      0x455 ../Cineraria_DE0_HAL_bsp/\libhal_bsp.a(altera_avalon_uart_read.o)
 .debug_line    0x0004c78c      0x43d ../Cineraria_DE0_HAL_bsp/\libhal_bsp.a(altera_avalon_uart_write.o)
 .debug_line    0x0004cbc9      0x3d0 ../Cineraria_DE0_HAL_bsp/\libhal_bsp.a(epcs_commands.o)
 .debug_line    0x0004cf99      0x2c8 ../Cineraria_DE0_HAL_bsp/\libhal_bsp.a(alt_alarm_start.o)
 .debug_line    0x0004d261      0x1e3 ../Cineraria_DE0_HAL_bsp/\libhal_bsp.a(alt_dcache_flush.o)
 .debug_line    0x0004d444      0x26e ../Cineraria_DE0_HAL_bsp/\libhal_bsp.a(alt_dev_llist_insert.o)
 .debug_line    0x0004d6b2       0xa3 ../Cineraria_DE0_HAL_bsp/\libhal_bsp.a(alt_do_ctors.o)
 .debug_line    0x0004d755       0xa3 ../Cineraria_DE0_HAL_bsp/\libhal_bsp.a(alt_do_dtors.o)
 .debug_line    0x0004d7f8      0x287 ../Cineraria_DE0_HAL_bsp/\libhal_bsp.a(alt_find_dev.o)
 .debug_line    0x0004da7f      0x2b6 ../Cineraria_DE0_HAL_bsp/\libhal_bsp.a(alt_find_file.o)
 .debug_line    0x0004dd35      0x29c ../Cineraria_DE0_HAL_bsp/\libhal_bsp.a(alt_flash_dev.o)
 .debug_line    0x0004dfd1      0x2a9 ../Cineraria_DE0_HAL_bsp/\libhal_bsp.a(alt_get_fd.o)
 .debug_line    0x0004e27a      0x289 ../Cineraria_DE0_HAL_bsp/\libhal_bsp.a(alt_iic.o)
 .debug_line    0x0004e503      0x25d ../Cineraria_DE0_HAL_bsp/\libhal_bsp.a(alt_iic_isr_register.o)
 .debug_line    0x0004e760      0x32e ../Cineraria_DE0_HAL_bsp/\libhal_bsp.a(alt_io_redirect.o)
 .debug_line    0x0004ea8e       0x6b ../Cineraria_DE0_HAL_bsp/\libhal_bsp.a(alt_irq_entry.o)
 .debug_line    0x0004eaf9      0x26f ../Cineraria_DE0_HAL_bsp/\libhal_bsp.a(alt_irq_handler.o)
 .debug_line    0x0004ed68       0x72 ../Cineraria_DE0_HAL_bsp/\libhal_bsp.a(alt_irq_vars.o)
 .debug_line    0x0004edda      0x1d3 ../Cineraria_DE0_HAL_bsp/\libhal_bsp.a(altera_nios2_irq.o)
 .debug_line    0x0004efad      0x490 ../Cineraria_DE0_HAL_bsp/\libhal_bsp.a(altera_avalon_cfi_flash_amd.o)
 .debug_line    0x0004f43d      0x4b4 ../Cineraria_DE0_HAL_bsp/\libhal_bsp.a(altera_avalon_cfi_flash_intel.o)
 .debug_line    0x0004f8f1      0x239 ../Cineraria_DE0_HAL_bsp/\libhal_bsp.a(altera_avalon_spi.o)
 .debug_line    0x0004fb2a       0xab ../Cineraria_DE0_HAL_bsp/\libhal_bsp.a(alt_exception_entry.o)
 .debug_line    0x0004fbd5      0x211 ../Cineraria_DE0_HAL_bsp/\libhal_bsp.a(alt_usleep.o)
 .debug_line    0x0004fde6      0x25b ../Cineraria_DE0_HAL_bsp/\libhal_bsp.a(alt_busy_sleep.o)
 .debug_line    0x00050041      0x200 c:/develop/altera/11.1/nios2eds/bin/gnu/h-i686-mingw32/bin/../lib/gcc/nios2-elf/4.1.2/../../../../nios2-elf/lib\libc.a(lib_a-atexit.o)
 .debug_line    0x00050241      0x313 c:/develop/altera/11.1/nios2eds/bin/gnu/h-i686-mingw32/bin/../lib/gcc/nios2-elf/4.1.2/../../../../nios2-elf/lib\libc.a(lib_a-__atexit.o)

.debug_frame    0x00000000     0x8780
 *(.debug_frame)
 .debug_frame   0x00000000      0x824 obj/default/lua/lapi.o
 .debug_frame   0x00000824      0x670 obj/default/lua/lauxlib.o
 .debug_frame   0x00000e94      0x364 obj/default/lua/lbaselib.o
 .debug_frame   0x000011f8      0x1f8 obj/default/lua/lbitlib.o
 .debug_frame   0x000013f0      0x5b4 obj/default/lua/lcode.o
 .debug_frame   0x000019a4      0x10c obj/default/lua/lcorolib.o
 .debug_frame   0x00001ab0      0x2dc obj/default/lua/ldblib.o
 .debug_frame   0x00001d8c      0x1f8 obj/default/lua/ldebug.o
 .debug_frame   0x00001f84      0x230 obj/default/lua/ldo.o
 .debug_frame   0x000021b4       0xd4 obj/default/lua/ldump.o
 .debug_frame   0x00002288      0x11c obj/default/lua/lfunc.o
 .debug_frame   0x000023a4      0x334 obj/default/lua/lgc.o
 .debug_frame   0x000026d8       0x2c obj/default/lua/linit.o
 .debug_frame   0x00002704      0x3e8 obj/default/lua/liolib.o
 .debug_frame   0x00002aec      0x1dc obj/default/lua/llex.o
 .debug_frame   0x00002cc8      0x354 obj/default/lua/lmathlib.o
 .debug_frame   0x0000301c       0x68 obj/default/lua/lmem.o
 .debug_frame   0x00003084      0x1e4 obj/default/lua/loadlib.o
 .debug_frame   0x00003268      0x14c obj/default/lua/lobject.o
 .debug_frame   0x000033b4      0x1a0 obj/default/lua/loslib.o
 .debug_frame   0x00003554      0x5e4 obj/default/lua/lparser.o
 .debug_frame   0x00003b38      0x14c obj/default/lua/lstate.o
 .debug_frame   0x00003c84       0x8c obj/default/lua/lstring.o
 .debug_frame   0x00003d10      0x394 obj/default/lua/lstrlib.o
 .debug_frame   0x000040a4      0x204 obj/default/lua/ltable.o
 .debug_frame   0x000042a8      0x16c obj/default/lua/ltablib.o
 .debug_frame   0x00004414       0x5c obj/default/lua/ltm.o
 .debug_frame   0x00004470       0xec obj/default/lua/lundump.o
 .debug_frame   0x0000455c      0x250 obj/default/lua/lvm.o
 .debug_frame   0x000047ac       0x78 obj/default/lua/lzio.o
 .debug_frame   0x00004824       0x40 obj/default/min.o
 .debug_frame   0x00004864      0x4f4 obj/default/mmcfs/fatfs/ff.o
 .debug_frame   0x00004d58      0x180 obj/default/mmcfs/fatfs/mmcbb.o
 .debug_frame   0x00004ed8       0x30 obj/default/mmcfs/fatfs/option/cc932.o
 .debug_frame   0x00004f08       0x20 obj/default/mmcfs/gettime.o
 .debug_frame   0x00004f28       0xfc obj/default/mmcfs/mmc_spi.o
 .debug_frame   0x00005024       0xbc obj/default/mmcfs/mmcfs.o
 .debug_frame   0x000050e0       0x3c c:/develop/altera/11.1/nios2eds/bin/gnu/h-i686-mingw32/bin/../lib/gcc/nios2-elf/4.1.2/../../../../nios2-elf/lib\libm.a(lib_a-s_atan.o)
 .debug_frame   0x0000511c       0x3c c:/develop/altera/11.1/nios2eds/bin/gnu/h-i686-mingw32/bin/../lib/gcc/nios2-elf/4.1.2/../../../../nios2-elf/lib\libm.a(lib_a-s_ceil.o)
 .debug_frame   0x00005158       0x28 c:/develop/altera/11.1/nios2eds/bin/gnu/h-i686-mingw32/bin/../lib/gcc/nios2-elf/4.1.2/../../../../nios2-elf/lib\libm.a(lib_a-s_cos.o)
 .debug_frame   0x00005180       0x20 c:/develop/altera/11.1/nios2eds/bin/gnu/h-i686-mingw32/bin/../lib/gcc/nios2-elf/4.1.2/../../../../nios2-elf/lib\libm.a(lib_a-s_fabs.o)
 .debug_frame   0x000051a0       0x3c c:/develop/altera/11.1/nios2eds/bin/gnu/h-i686-mingw32/bin/../lib/gcc/nios2-elf/4.1.2/../../../../nios2-elf/lib\libm.a(lib_a-s_floor.o)
 .debug_frame   0x000051dc       0x2c c:/develop/altera/11.1/nios2eds/bin/gnu/h-i686-mingw32/bin/../lib/gcc/nios2-elf/4.1.2/../../../../nios2-elf/lib\libm.a(lib_a-s_frexp.o)
 .debug_frame   0x00005208       0x30 c:/develop/altera/11.1/nios2eds/bin/gnu/h-i686-mingw32/bin/../lib/gcc/nios2-elf/4.1.2/../../../../nios2-elf/lib\libm.a(lib_a-s_ldexp.o)
 .debug_frame   0x00005238       0x38 c:/develop/altera/11.1/nios2eds/bin/gnu/h-i686-mingw32/bin/../lib/gcc/nios2-elf/4.1.2/../../../../nios2-elf/lib\libm.a(lib_a-s_modf.o)
 .debug_frame   0x00005270       0x2c c:/develop/altera/11.1/nios2eds/bin/gnu/h-i686-mingw32/bin/../lib/gcc/nios2-elf/4.1.2/../../../../nios2-elf/lib\libm.a(lib_a-s_scalbn.o)
 .debug_frame   0x0000529c       0x28 c:/develop/altera/11.1/nios2eds/bin/gnu/h-i686-mingw32/bin/../lib/gcc/nios2-elf/4.1.2/../../../../nios2-elf/lib\libm.a(lib_a-s_sin.o)
 .debug_frame   0x000052c4       0x28 c:/develop/altera/11.1/nios2eds/bin/gnu/h-i686-mingw32/bin/../lib/gcc/nios2-elf/4.1.2/../../../../nios2-elf/lib\libm.a(lib_a-s_tan.o)
 .debug_frame   0x000052ec       0x30 c:/develop/altera/11.1/nios2eds/bin/gnu/h-i686-mingw32/bin/../lib/gcc/nios2-elf/4.1.2/../../../../nios2-elf/lib\libm.a(lib_a-s_tanh.o)
 .debug_frame   0x0000531c       0x34 c:/develop/altera/11.1/nios2eds/bin/gnu/h-i686-mingw32/bin/../lib/gcc/nios2-elf/4.1.2/../../../../nios2-elf/lib\libm.a(lib_a-w_acos.o)
 .debug_frame   0x00005350       0x34 c:/develop/altera/11.1/nios2eds/bin/gnu/h-i686-mingw32/bin/../lib/gcc/nios2-elf/4.1.2/../../../../nios2-elf/lib\libm.a(lib_a-w_asin.o)
 .debug_frame   0x00005384       0x20 c:/develop/altera/11.1/nios2eds/bin/gnu/h-i686-mingw32/bin/../lib/gcc/nios2-elf/4.1.2/../../../../nios2-elf/lib\libm.a(lib_a-w_atan2.o)
 .debug_frame   0x000053a4       0x34 c:/develop/altera/11.1/nios2eds/bin/gnu/h-i686-mingw32/bin/../lib/gcc/nios2-elf/4.1.2/../../../../nios2-elf/lib\libm.a(lib_a-w_cosh.o)
 .debug_frame   0x000053d8       0x34 c:/develop/altera/11.1/nios2eds/bin/gnu/h-i686-mingw32/bin/../lib/gcc/nios2-elf/4.1.2/../../../../nios2-elf/lib\libm.a(lib_a-w_exp.o)
 .debug_frame   0x0000540c       0x38 c:/develop/altera/11.1/nios2eds/bin/gnu/h-i686-mingw32/bin/../lib/gcc/nios2-elf/4.1.2/../../../../nios2-elf/lib\libm.a(lib_a-w_fmod.o)
 .debug_frame   0x00005444       0x34 c:/develop/altera/11.1/nios2eds/bin/gnu/h-i686-mingw32/bin/../lib/gcc/nios2-elf/4.1.2/../../../../nios2-elf/lib\libm.a(lib_a-w_log.o)
 .debug_frame   0x00005478       0x34 c:/develop/altera/11.1/nios2eds/bin/gnu/h-i686-mingw32/bin/../lib/gcc/nios2-elf/4.1.2/../../../../nios2-elf/lib\libm.a(lib_a-w_log10.o)
 .debug_frame   0x000054ac       0x38 c:/develop/altera/11.1/nios2eds/bin/gnu/h-i686-mingw32/bin/../lib/gcc/nios2-elf/4.1.2/../../../../nios2-elf/lib\libm.a(lib_a-w_pow.o)
 .debug_frame   0x000054e4       0x34 c:/develop/altera/11.1/nios2eds/bin/gnu/h-i686-mingw32/bin/../lib/gcc/nios2-elf/4.1.2/../../../../nios2-elf/lib\libm.a(lib_a-w_sinh.o)
 .debug_frame   0x00005518       0x34 c:/develop/altera/11.1/nios2eds/bin/gnu/h-i686-mingw32/bin/../lib/gcc/nios2-elf/4.1.2/../../../../nios2-elf/lib\libm.a(lib_a-w_sqrt.o)
 .debug_frame   0x0000554c       0x38 c:/develop/altera/11.1/nios2eds/bin/gnu/h-i686-mingw32/bin/../lib/gcc/nios2-elf/4.1.2/../../../../nios2-elf/lib\libm.a(lib_a-e_acos.o)
 .debug_frame   0x00005584       0x3c c:/develop/altera/11.1/nios2eds/bin/gnu/h-i686-mingw32/bin/../lib/gcc/nios2-elf/4.1.2/../../../../nios2-elf/lib\libm.a(lib_a-e_asin.o)
 .debug_frame   0x000055c0       0x2c c:/develop/altera/11.1/nios2eds/bin/gnu/h-i686-mingw32/bin/../lib/gcc/nios2-elf/4.1.2/../../../../nios2-elf/lib\libm.a(lib_a-e_atan2.o)
 .debug_frame   0x000055ec       0x38 c:/develop/altera/11.1/nios2eds/bin/gnu/h-i686-mingw32/bin/../lib/gcc/nios2-elf/4.1.2/../../../../nios2-elf/lib\libm.a(lib_a-e_cosh.o)
 .debug_frame   0x00005624       0x3c c:/develop/altera/11.1/nios2eds/bin/gnu/h-i686-mingw32/bin/../lib/gcc/nios2-elf/4.1.2/../../../../nios2-elf/lib\libm.a(lib_a-e_exp.o)
 .debug_frame   0x00005660       0x2c c:/develop/altera/11.1/nios2eds/bin/gnu/h-i686-mingw32/bin/../lib/gcc/nios2-elf/4.1.2/../../../../nios2-elf/lib\libm.a(lib_a-e_fmod.o)
 .debug_frame   0x0000568c       0x38 c:/develop/altera/11.1/nios2eds/bin/gnu/h-i686-mingw32/bin/../lib/gcc/nios2-elf/4.1.2/../../../../nios2-elf/lib\libm.a(lib_a-e_log.o)
 .debug_frame   0x000056c4       0x34 c:/develop/altera/11.1/nios2eds/bin/gnu/h-i686-mingw32/bin/../lib/gcc/nios2-elf/4.1.2/../../../../nios2-elf/lib\libm.a(lib_a-e_log10.o)
 .debug_frame   0x000056f8       0x3c c:/develop/altera/11.1/nios2eds/bin/gnu/h-i686-mingw32/bin/../lib/gcc/nios2-elf/4.1.2/../../../../nios2-elf/lib\libm.a(lib_a-e_pow.o)
 .debug_frame   0x00005734       0x3c c:/develop/altera/11.1/nios2eds/bin/gnu/h-i686-mingw32/bin/../lib/gcc/nios2-elf/4.1.2/../../../../nios2-elf/lib\libm.a(lib_a-e_rem_pio2.o)
 .debug_frame   0x00005770       0x34 c:/develop/altera/11.1/nios2eds/bin/gnu/h-i686-mingw32/bin/../lib/gcc/nios2-elf/4.1.2/../../../../nios2-elf/lib\libm.a(lib_a-e_sinh.o)
 .debug_frame   0x000057a4       0x2c c:/develop/altera/11.1/nios2eds/bin/gnu/h-i686-mingw32/bin/../lib/gcc/nios2-elf/4.1.2/../../../../nios2-elf/lib\libm.a(lib_a-e_sqrt.o)
 .debug_frame   0x000057d0       0x38 c:/develop/altera/11.1/nios2eds/bin/gnu/h-i686-mingw32/bin/../lib/gcc/nios2-elf/4.1.2/../../../../nios2-elf/lib\libm.a(lib_a-k_cos.o)
 .debug_frame   0x00005808       0x3c c:/develop/altera/11.1/nios2eds/bin/gnu/h-i686-mingw32/bin/../lib/gcc/nios2-elf/4.1.2/../../../../nios2-elf/lib\libm.a(lib_a-k_rem_pio2.o)
 .debug_frame   0x00005844       0x38 c:/develop/altera/11.1/nios2eds/bin/gnu/h-i686-mingw32/bin/../lib/gcc/nios2-elf/4.1.2/../../../../nios2-elf/lib\libm.a(lib_a-k_sin.o)
 .debug_frame   0x0000587c       0x3c c:/develop/altera/11.1/nios2eds/bin/gnu/h-i686-mingw32/bin/../lib/gcc/nios2-elf/4.1.2/../../../../nios2-elf/lib\libm.a(lib_a-k_tan.o)
 .debug_frame   0x000058b8       0x20 c:/develop/altera/11.1/nios2eds/bin/gnu/h-i686-mingw32/bin/../lib/gcc/nios2-elf/4.1.2/../../../../nios2-elf/lib\libm.a(lib_a-s_copysign.o)
 .debug_frame   0x000058d8       0x3c c:/develop/altera/11.1/nios2eds/bin/gnu/h-i686-mingw32/bin/../lib/gcc/nios2-elf/4.1.2/../../../../nios2-elf/lib\libm.a(lib_a-s_expm1.o)
 .debug_frame   0x00005914       0x20 c:/develop/altera/11.1/nios2eds/bin/gnu/h-i686-mingw32/bin/../lib/gcc/nios2-elf/4.1.2/../../../../nios2-elf/lib\libm.a(lib_a-s_finite.o)
 .debug_frame   0x00005934       0x20 c:/develop/altera/11.1/nios2eds/bin/gnu/h-i686-mingw32/bin/../lib/gcc/nios2-elf/4.1.2/../../../../nios2-elf/lib\libm.a(lib_a-s_isnand.o)
 .debug_frame   0x00005954       0x20 c:/develop/altera/11.1/nios2eds/bin/gnu/h-i686-mingw32/bin/../lib/gcc/nios2-elf/4.1.2/../../../../nios2-elf/lib\libm.a(lib_a-s_matherr.o)
 .debug_frame   0x00005974       0x20 c:/develop/altera/11.1/nios2eds/bin/gnu/h-i686-mingw32/bin/../lib/gcc/nios2-elf/4.1.2/../../../../nios2-elf/lib\libm.a(lib_a-s_nan.o)
 .debug_frame   0x00005994       0x30 c:/develop/altera/11.1/nios2eds/bin/gnu/h-i686-mingw32/bin/../lib/gcc/nios2-elf/4.1.2/../../../../nios2-elf/lib\libm.a(lib_a-s_rint.o)
 .debug_frame   0x000059c4       0x30 c:/develop/altera/11.1/nios2eds/bin/gnu/h-i686-mingw32/bin/../lib/gcc/nios2-elf/4.1.2\libgcc.a(_fixunsdfsi.o)
 .debug_frame   0x000059f4       0x70 c:/develop/altera/11.1/nios2eds/bin/gnu/h-i686-mingw32/bin/../lib/gcc/nios2-elf/4.1.2\libgcc.a(_addsub_df.o)
 .debug_frame   0x00005a64       0x3c c:/develop/altera/11.1/nios2eds/bin/gnu/h-i686-mingw32/bin/../lib/gcc/nios2-elf/4.1.2\libgcc.a(_mul_df.o)
 .debug_frame   0x00005aa0       0x30 c:/develop/altera/11.1/nios2eds/bin/gnu/h-i686-mingw32/bin/../lib/gcc/nios2-elf/4.1.2\libgcc.a(_div_df.o)
 .debug_frame   0x00005ad0       0x2c c:/develop/altera/11.1/nios2eds/bin/gnu/h-i686-mingw32/bin/../lib/gcc/nios2-elf/4.1.2\libgcc.a(_eq_df.o)
 .debug_frame   0x00005afc       0x2c c:/develop/altera/11.1/nios2eds/bin/gnu/h-i686-mingw32/bin/../lib/gcc/nios2-elf/4.1.2\libgcc.a(_ne_df.o)
 .debug_frame   0x00005b28       0x2c c:/develop/altera/11.1/nios2eds/bin/gnu/h-i686-mingw32/bin/../lib/gcc/nios2-elf/4.1.2\libgcc.a(_gt_df.o)
 .debug_frame   0x00005b54       0x2c c:/develop/altera/11.1/nios2eds/bin/gnu/h-i686-mingw32/bin/../lib/gcc/nios2-elf/4.1.2\libgcc.a(_ge_df.o)
 .debug_frame   0x00005b80       0x2c c:/develop/altera/11.1/nios2eds/bin/gnu/h-i686-mingw32/bin/../lib/gcc/nios2-elf/4.1.2\libgcc.a(_lt_df.o)
 .debug_frame   0x00005bac       0x2c c:/develop/altera/11.1/nios2eds/bin/gnu/h-i686-mingw32/bin/../lib/gcc/nios2-elf/4.1.2\libgcc.a(_le_df.o)
 .debug_frame   0x00005bd8       0x30 c:/develop/altera/11.1/nios2eds/bin/gnu/h-i686-mingw32/bin/../lib/gcc/nios2-elf/4.1.2\libgcc.a(_si_to_df.o)
 .debug_frame   0x00005c08       0x28 c:/develop/altera/11.1/nios2eds/bin/gnu/h-i686-mingw32/bin/../lib/gcc/nios2-elf/4.1.2\libgcc.a(_df_to_si.o)
 .debug_frame   0x00005c30       0x38 c:/develop/altera/11.1/nios2eds/bin/gnu/h-i686-mingw32/bin/../lib/gcc/nios2-elf/4.1.2\libgcc.a(_usi_to_df.o)
 .debug_frame   0x00005c68       0x70 c:/develop/altera/11.1/nios2eds/bin/gnu/h-i686-mingw32/bin/../lib/gcc/nios2-elf/4.1.2\libgcc.a(lib2-divmod.o)
 .debug_frame   0x00005cd8       0x2c c:/develop/altera/11.1/nios2eds/bin/gnu/h-i686-mingw32/bin/../lib/gcc/nios2-elf/4.1.2\libgcc.a(_muldi3.o)
 .debug_frame   0x00005d04       0x20 c:/develop/altera/11.1/nios2eds/bin/gnu/h-i686-mingw32/bin/../lib/gcc/nios2-elf/4.1.2\libgcc.a(_clzsi2.o)
 .debug_frame   0x00005d24       0x2c c:/develop/altera/11.1/nios2eds/bin/gnu/h-i686-mingw32/bin/../lib/gcc/nios2-elf/4.1.2\libgcc.a(_pack_df.o)
 .debug_frame   0x00005d50       0x20 c:/develop/altera/11.1/nios2eds/bin/gnu/h-i686-mingw32/bin/../lib/gcc/nios2-elf/4.1.2\libgcc.a(_unpack_df.o)
 .debug_frame   0x00005d70       0x20 c:/develop/altera/11.1/nios2eds/bin/gnu/h-i686-mingw32/bin/../lib/gcc/nios2-elf/4.1.2\libgcc.a(_fpcmp_parts_df.o)
 .debug_frame   0x00005d90       0x28 c:/develop/altera/11.1/nios2eds/bin/gnu/h-i686-mingw32/bin/../lib/gcc/nios2-elf/4.1.2/../../../../nios2-elf/lib\libc.a(lib_a-abort.o)
 .debug_frame   0x00005db8       0x28 c:/develop/altera/11.1/nios2eds/bin/gnu/h-i686-mingw32/bin/../lib/gcc/nios2-elf/4.1.2/../../../../nios2-elf/lib\libc.a(lib_a-clock.o)
 .debug_frame   0x00005de0       0x28 c:/develop/altera/11.1/nios2eds/bin/gnu/h-i686-mingw32/bin/../lib/gcc/nios2-elf/4.1.2/../../../../nios2-elf/lib\libc.a(lib_a-difftime.o)
 .debug_frame   0x00005e08       0x20 c:/develop/altera/11.1/nios2eds/bin/gnu/h-i686-mingw32/bin/../lib/gcc/nios2-elf/4.1.2/../../../../nios2-elf/lib\libc.a(lib_a-errno.o)
 .debug_frame   0x00005e28       0x28 c:/develop/altera/11.1/nios2eds/bin/gnu/h-i686-mingw32/bin/../lib/gcc/nios2-elf/4.1.2/../../../../nios2-elf/lib\libc.a(lib_a-exit.o)
 .debug_frame   0x00005e50       0x3c c:/develop/altera/11.1/nios2eds/bin/gnu/h-i686-mingw32/bin/../lib/gcc/nios2-elf/4.1.2/../../../../nios2-elf/lib\libc.a(lib_a-fclose.o)
 .debug_frame   0x00005e8c       0x40 c:/develop/altera/11.1/nios2eds/bin/gnu/h-i686-mingw32/bin/../lib/gcc/nios2-elf/4.1.2/../../../../nios2-elf/lib\libc.a(lib_a-fflush.o)
 .debug_frame   0x00005ecc       0x44 c:/develop/altera/11.1/nios2eds/bin/gnu/h-i686-mingw32/bin/../lib/gcc/nios2-elf/4.1.2/../../../../nios2-elf/lib\libc.a(lib_a-fgets.o)
 .debug_frame   0x00005f10      0x118 c:/develop/altera/11.1/nios2eds/bin/gnu/h-i686-mingw32/bin/../lib/gcc/nios2-elf/4.1.2/../../../../nios2-elf/lib\libc.a(lib_a-findfp.o)
 .debug_frame   0x00006028       0x40 c:/develop/altera/11.1/nios2eds/bin/gnu/h-i686-mingw32/bin/../lib/gcc/nios2-elf/4.1.2/../../../../nios2-elf/lib\libc.a(lib_a-fopen.o)
 .debug_frame   0x00006068       0x40 c:/develop/altera/11.1/nios2eds/bin/gnu/h-i686-mingw32/bin/../lib/gcc/nios2-elf/4.1.2/../../../../nios2-elf/lib\libc.a(lib_a-fprintf.o)
 .debug_frame   0x000060a8       0x54 c:/develop/altera/11.1/nios2eds/bin/gnu/h-i686-mingw32/bin/../lib/gcc/nios2-elf/4.1.2/../../../../nios2-elf/lib\libc.a(lib_a-fread.o)
 .debug_frame   0x000060fc       0x4c c:/develop/altera/11.1/nios2eds/bin/gnu/h-i686-mingw32/bin/../lib/gcc/nios2-elf/4.1.2/../../../../nios2-elf/lib\libc.a(lib_a-freer.o)
 .debug_frame   0x00006148       0x44 c:/develop/altera/11.1/nios2eds/bin/gnu/h-i686-mingw32/bin/../lib/gcc/nios2-elf/4.1.2/../../../../nios2-elf/lib\libc.a(lib_a-freopen.o)
 .debug_frame   0x0000618c       0x40 c:/develop/altera/11.1/nios2eds/bin/gnu/h-i686-mingw32/bin/../lib/gcc/nios2-elf/4.1.2/../../../../nios2-elf/lib\libc.a(lib_a-fscanf.o)
 .debug_frame   0x000061cc       0x48 c:/develop/altera/11.1/nios2eds/bin/gnu/h-i686-mingw32/bin/../lib/gcc/nios2-elf/4.1.2/../../../../nios2-elf/lib\libc.a(lib_a-fseek.o)
 .debug_frame   0x00006214       0x2c c:/develop/altera/11.1/nios2eds/bin/gnu/h-i686-mingw32/bin/../lib/gcc/nios2-elf/4.1.2/../../../../nios2-elf/lib\libc.a(lib_a-fstatr.o)
 .debug_frame   0x00006240       0x3c c:/develop/altera/11.1/nios2eds/bin/gnu/h-i686-mingw32/bin/../lib/gcc/nios2-elf/4.1.2/../../../../nios2-elf/lib\libc.a(lib_a-ftell.o)
 .debug_frame   0x0000627c       0x60 c:/develop/altera/11.1/nios2eds/bin/gnu/h-i686-mingw32/bin/../lib/gcc/nios2-elf/4.1.2/../../../../nios2-elf/lib\libc.a(lib_a-fwalk.o)
 .debug_frame   0x000062dc       0x48 c:/develop/altera/11.1/nios2eds/bin/gnu/h-i686-mingw32/bin/../lib/gcc/nios2-elf/4.1.2/../../../../nios2-elf/lib\libc.a(lib_a-fwrite.o)
 .debug_frame   0x00006324       0x48 c:/develop/altera/11.1/nios2eds/bin/gnu/h-i686-mingw32/bin/../lib/gcc/nios2-elf/4.1.2/../../../../nios2-elf/lib\libc.a(lib_a-getc.o)
 .debug_frame   0x0000636c       0x38 c:/develop/altera/11.1/nios2eds/bin/gnu/h-i686-mingw32/bin/../lib/gcc/nios2-elf/4.1.2/../../../../nios2-elf/lib\libc.a(lib_a-getenv.o)
 .debug_frame   0x000063a4       0x50 c:/develop/altera/11.1/nios2eds/bin/gnu/h-i686-mingw32/bin/../lib/gcc/nios2-elf/4.1.2/../../../../nios2-elf/lib\libc.a(lib_a-getenv_r.o)
 .debug_frame   0x000063f4       0x20 c:/develop/altera/11.1/nios2eds/bin/gnu/h-i686-mingw32/bin/../lib/gcc/nios2-elf/4.1.2/../../../../nios2-elf/lib\libc.a(lib_a-gmtime.o)
 .debug_frame   0x00006414       0x20 c:/develop/altera/11.1/nios2eds/bin/gnu/h-i686-mingw32/bin/../lib/gcc/nios2-elf/4.1.2/../../../../nios2-elf/lib\libc.a(lib_a-gmtime_r.o)
 .debug_frame   0x00006434       0x20 c:/develop/altera/11.1/nios2eds/bin/gnu/h-i686-mingw32/bin/../lib/gcc/nios2-elf/4.1.2/../../../../nios2-elf/lib\libc.a(lib_a-lcltime.o)
 .debug_frame   0x00006454       0x20 c:/develop/altera/11.1/nios2eds/bin/gnu/h-i686-mingw32/bin/../lib/gcc/nios2-elf/4.1.2/../../../../nios2-elf/lib\libc.a(lib_a-lcltime_r.o)
 .debug_frame   0x00006474       0x70 c:/develop/altera/11.1/nios2eds/bin/gnu/h-i686-mingw32/bin/../lib/gcc/nios2-elf/4.1.2/../../../../nios2-elf/lib\libc.a(lib_a-locale.o)
 .debug_frame   0x000064e4       0x2c c:/develop/altera/11.1/nios2eds/bin/gnu/h-i686-mingw32/bin/../lib/gcc/nios2-elf/4.1.2/../../../../nios2-elf/lib\libc.a(lib_a-makebuf.o)
 .debug_frame   0x00006510       0x30 c:/develop/altera/11.1/nios2eds/bin/gnu/h-i686-mingw32/bin/../lib/gcc/nios2-elf/4.1.2/../../../../nios2-elf/lib\libc.a(lib_a-malloc.o)
 .debug_frame   0x00006540       0x38 c:/develop/altera/11.1/nios2eds/bin/gnu/h-i686-mingw32/bin/../lib/gcc/nios2-elf/4.1.2/../../../../nios2-elf/lib\libc.a(lib_a-mallocr.o)
 .debug_frame   0x00006578       0x20 c:/develop/altera/11.1/nios2eds/bin/gnu/h-i686-mingw32/bin/../lib/gcc/nios2-elf/4.1.2/../../../../nios2-elf/lib\libc.a(lib_a-memchr.o)
 .debug_frame   0x00006598       0x20 c:/develop/altera/11.1/nios2eds/bin/gnu/h-i686-mingw32/bin/../lib/gcc/nios2-elf/4.1.2/../../../../nios2-elf/lib\libc.a(lib_a-memcmp.o)
 .debug_frame   0x000065b8       0x20 c:/develop/altera/11.1/nios2eds/bin/gnu/h-i686-mingw32/bin/../lib/gcc/nios2-elf/4.1.2/../../../../nios2-elf/lib\libc.a(lib_a-memcpy.o)
 .debug_frame   0x000065d8       0x20 c:/develop/altera/11.1/nios2eds/bin/gnu/h-i686-mingw32/bin/../lib/gcc/nios2-elf/4.1.2/../../../../nios2-elf/lib\libc.a(lib_a-memset.o)
 .debug_frame   0x000065f8       0x5c c:/develop/altera/11.1/nios2eds/bin/gnu/h-i686-mingw32/bin/../lib/gcc/nios2-elf/4.1.2/../../../../nios2-elf/lib\libc.a(lib_a-mktime.o)
 .debug_frame   0x00006654       0x64 c:/develop/altera/11.1/nios2eds/bin/gnu/h-i686-mingw32/bin/../lib/gcc/nios2-elf/4.1.2/../../../../nios2-elf/lib\libc.a(lib_a-mktm_r.o)
 .debug_frame   0x000066b8       0x2c c:/develop/altera/11.1/nios2eds/bin/gnu/h-i686-mingw32/bin/../lib/gcc/nios2-elf/4.1.2/../../../../nios2-elf/lib\libc.a(lib_a-openr.o)
 .debug_frame   0x000066e4       0x40 c:/develop/altera/11.1/nios2eds/bin/gnu/h-i686-mingw32/bin/../lib/gcc/nios2-elf/4.1.2/../../../../nios2-elf/lib\libc.a(lib_a-printf.o)
 .debug_frame   0x00006724       0x30 c:/develop/altera/11.1/nios2eds/bin/gnu/h-i686-mingw32/bin/../lib/gcc/nios2-elf/4.1.2/../../../../nios2-elf/lib\libc.a(lib_a-putchar.o)
 .debug_frame   0x00006754       0x3c c:/develop/altera/11.1/nios2eds/bin/gnu/h-i686-mingw32/bin/../lib/gcc/nios2-elf/4.1.2/../../../../nios2-elf/lib\libc.a(lib_a-puts.o)
 .debug_frame   0x00006790       0x3c c:/develop/altera/11.1/nios2eds/bin/gnu/h-i686-mingw32/bin/../lib/gcc/nios2-elf/4.1.2/../../../../nios2-elf/lib\libc.a(lib_a-rand.o)
 .debug_frame   0x000067cc       0x20 c:/develop/altera/11.1/nios2eds/bin/gnu/h-i686-mingw32/bin/../lib/gcc/nios2-elf/4.1.2/../../../../nios2-elf/lib\libc.a(lib_a-realloc.o)
 .debug_frame   0x000067ec       0x38 c:/develop/altera/11.1/nios2eds/bin/gnu/h-i686-mingw32/bin/../lib/gcc/nios2-elf/4.1.2/../../../../nios2-elf/lib\libc.a(lib_a-reallocr.o)
 .debug_frame   0x00006824       0x3c c:/develop/altera/11.1/nios2eds/bin/gnu/h-i686-mingw32/bin/../lib/gcc/nios2-elf/4.1.2/../../../../nios2-elf/lib\libc.a(lib_a-refill.o)
 .debug_frame   0x00006860       0x38 c:/develop/altera/11.1/nios2eds/bin/gnu/h-i686-mingw32/bin/../lib/gcc/nios2-elf/4.1.2/../../../../nios2-elf/lib\libc.a(lib_a-rget.o)
 .debug_frame   0x00006898       0x2c c:/develop/altera/11.1/nios2eds/bin/gnu/h-i686-mingw32/bin/../lib/gcc/nios2-elf/4.1.2/../../../../nios2-elf/lib\libc.a(lib_a-sbrkr.o)
 .debug_frame   0x000068c4       0x34 c:/develop/altera/11.1/nios2eds/bin/gnu/h-i686-mingw32/bin/../lib/gcc/nios2-elf/4.1.2/../../../../nios2-elf/lib\libc.a(lib_a-setvbuf.o)
 .debug_frame   0x000068f8       0xb8 c:/develop/altera/11.1/nios2eds/bin/gnu/h-i686-mingw32/bin/../lib/gcc/nios2-elf/4.1.2/../../../../nios2-elf/lib\libc.a(lib_a-signal.o)
 .debug_frame   0x000069b0       0x3c c:/develop/altera/11.1/nios2eds/bin/gnu/h-i686-mingw32/bin/../lib/gcc/nios2-elf/4.1.2/../../../../nios2-elf/lib\libc.a(lib_a-signalr.o)
 .debug_frame   0x000069ec       0x40 c:/develop/altera/11.1/nios2eds/bin/gnu/h-i686-mingw32/bin/../lib/gcc/nios2-elf/4.1.2/../../../../nios2-elf/lib\libc.a(lib_a-sprintf.o)
 .debug_frame   0x00006a2c       0x78 c:/develop/altera/11.1/nios2eds/bin/gnu/h-i686-mingw32/bin/../lib/gcc/nios2-elf/4.1.2/../../../../nios2-elf/lib\libc.a(lib_a-stdio.o)
 .debug_frame   0x00006aa4       0x20 c:/develop/altera/11.1/nios2eds/bin/gnu/h-i686-mingw32/bin/../lib/gcc/nios2-elf/4.1.2/../../../../nios2-elf/lib\libc.a(lib_a-strchr.o)
 .debug_frame   0x00006ac4       0x20 c:/develop/altera/11.1/nios2eds/bin/gnu/h-i686-mingw32/bin/../lib/gcc/nios2-elf/4.1.2/../../../../nios2-elf/lib\libc.a(lib_a-strcmp.o)
 .debug_frame   0x00006ae4       0x20 c:/develop/altera/11.1/nios2eds/bin/gnu/h-i686-mingw32/bin/../lib/gcc/nios2-elf/4.1.2/../../../../nios2-elf/lib\libc.a(lib_a-strcoll.o)
 .debug_frame   0x00006b04       0x20 c:/develop/altera/11.1/nios2eds/bin/gnu/h-i686-mingw32/bin/../lib/gcc/nios2-elf/4.1.2/../../../../nios2-elf/lib\libc.a(lib_a-strcpy.o)
 .debug_frame   0x00006b24       0x28 c:/develop/altera/11.1/nios2eds/bin/gnu/h-i686-mingw32/bin/../lib/gcc/nios2-elf/4.1.2/../../../../nios2-elf/lib\libc.a(lib_a-strerror.o)
 .debug_frame   0x00006b4c       0x58 c:/develop/altera/11.1/nios2eds/bin/gnu/h-i686-mingw32/bin/../lib/gcc/nios2-elf/4.1.2/../../../../nios2-elf/lib\libc.a(lib_a-strftime.o)
 .debug_frame   0x00006ba4       0x20 c:/develop/altera/11.1/nios2eds/bin/gnu/h-i686-mingw32/bin/../lib/gcc/nios2-elf/4.1.2/../../../../nios2-elf/lib\libc.a(lib_a-strlen.o)
 .debug_frame   0x00006bc4       0x20 c:/develop/altera/11.1/nios2eds/bin/gnu/h-i686-mingw32/bin/../lib/gcc/nios2-elf/4.1.2/../../../../nios2-elf/lib\libc.a(lib_a-strncmp.o)
 .debug_frame   0x00006be4       0x20 c:/develop/altera/11.1/nios2eds/bin/gnu/h-i686-mingw32/bin/../lib/gcc/nios2-elf/4.1.2/../../../../nios2-elf/lib\libc.a(lib_a-strpbrk.o)
 .debug_frame   0x00006c04       0x20 c:/develop/altera/11.1/nios2eds/bin/gnu/h-i686-mingw32/bin/../lib/gcc/nios2-elf/4.1.2/../../../../nios2-elf/lib\libc.a(lib_a-strspn.o)
 .debug_frame   0x00006c24       0x4c c:/develop/altera/11.1/nios2eds/bin/gnu/h-i686-mingw32/bin/../lib/gcc/nios2-elf/4.1.2/../../../../nios2-elf/lib\libc.a(lib_a-strstr.o)
 .debug_frame   0x00006c70       0x80 c:/develop/altera/11.1/nios2eds/bin/gnu/h-i686-mingw32/bin/../lib/gcc/nios2-elf/4.1.2/../../../../nios2-elf/lib\libc.a(lib_a-strtod.o)
 .debug_frame   0x00006cf0       0x2c c:/develop/altera/11.1/nios2eds/bin/gnu/h-i686-mingw32/bin/../lib/gcc/nios2-elf/4.1.2/../../../../nios2-elf/lib\libc.a(lib_a-time.o)
 .debug_frame   0x00006d1c       0x20 c:/develop/altera/11.1/nios2eds/bin/gnu/h-i686-mingw32/bin/../lib/gcc/nios2-elf/4.1.2/../../../../nios2-elf/lib\libc.a(lib_a-timesr.o)
 .debug_frame   0x00006d3c       0x90 c:/develop/altera/11.1/nios2eds/bin/gnu/h-i686-mingw32/bin/../lib/gcc/nios2-elf/4.1.2/../../../../nios2-elf/lib\libc.a(lib_a-tmpnam.o)
 .debug_frame   0x00006dcc       0x30 c:/develop/altera/11.1/nios2eds/bin/gnu/h-i686-mingw32/bin/../lib/gcc/nios2-elf/4.1.2/../../../../nios2-elf/lib\libc.a(lib_a-tzlock.o)
 .debug_frame   0x00006dfc       0x20 c:/develop/altera/11.1/nios2eds/bin/gnu/h-i686-mingw32/bin/../lib/gcc/nios2-elf/4.1.2/../../../../nios2-elf/lib\libc.a(lib_a-u_strerr.o)
 .debug_frame   0x00006e1c       0x60 c:/develop/altera/11.1/nios2eds/bin/gnu/h-i686-mingw32/bin/../lib/gcc/nios2-elf/4.1.2/../../../../nios2-elf/lib\libc.a(lib_a-ungetc.o)
 .debug_frame   0x00006e7c       0x64 c:/develop/altera/11.1/nios2eds/bin/gnu/h-i686-mingw32/bin/../lib/gcc/nios2-elf/4.1.2/../../../../nios2-elf/lib\libc.a(lib_a-vfprintf.o)
 .debug_frame   0x00006ee0       0x8c c:/develop/altera/11.1/nios2eds/bin/gnu/h-i686-mingw32/bin/../lib/gcc/nios2-elf/4.1.2/../../../../nios2-elf/lib\libc.a(lib_a-vfscanf.o)
 .debug_frame   0x00006f6c       0x2c c:/develop/altera/11.1/nios2eds/bin/gnu/h-i686-mingw32/bin/../lib/gcc/nios2-elf/4.1.2/../../../../nios2-elf/lib\libc.a(lib_a-writer.o)
 .debug_frame   0x00006f98       0x2c c:/develop/altera/11.1/nios2eds/bin/gnu/h-i686-mingw32/bin/../lib/gcc/nios2-elf/4.1.2/../../../../nios2-elf/lib\libc.a(lib_a-wsetup.o)
 .debug_frame   0x00006fc4       0x4c c:/develop/altera/11.1/nios2eds/bin/gnu/h-i686-mingw32/bin/../lib/gcc/nios2-elf/4.1.2/../../../../nios2-elf/lib\libc.a(lib_a-__call_atexit.o)
 .debug_frame   0x00007010       0x20 c:/develop/altera/11.1/nios2eds/bin/gnu/h-i686-mingw32/bin/../lib/gcc/nios2-elf/4.1.2/../../../../nios2-elf/lib\libc.a(lib_a-abs.o)
 .debug_frame   0x00007030       0x2c c:/develop/altera/11.1/nios2eds/bin/gnu/h-i686-mingw32/bin/../lib/gcc/nios2-elf/4.1.2/../../../../nios2-elf/lib\libc.a(lib_a-closer.o)
 .debug_frame   0x0000705c       0x34 c:/develop/altera/11.1/nios2eds/bin/gnu/h-i686-mingw32/bin/../lib/gcc/nios2-elf/4.1.2/../../../../nios2-elf/lib\libc.a(lib_a-div.o)
 .debug_frame   0x00007090       0x64 c:/develop/altera/11.1/nios2eds/bin/gnu/h-i686-mingw32/bin/../lib/gcc/nios2-elf/4.1.2/../../../../nios2-elf/lib\libc.a(lib_a-dtoa.o)
 .debug_frame   0x000070f4       0x20 c:/develop/altera/11.1/nios2eds/bin/gnu/h-i686-mingw32/bin/../lib/gcc/nios2-elf/4.1.2/../../../../nios2-elf/lib\libc.a(lib_a-flags.o)
 .debug_frame   0x00007114       0x38 c:/develop/altera/11.1/nios2eds/bin/gnu/h-i686-mingw32/bin/../lib/gcc/nios2-elf/4.1.2/../../../../nios2-elf/lib\libc.a(lib_a-fvwrite.o)
 .debug_frame   0x0000714c       0x74 c:/develop/altera/11.1/nios2eds/bin/gnu/h-i686-mingw32/bin/../lib/gcc/nios2-elf/4.1.2/../../../../nios2-elf/lib\libc.a(lib_a-gdtoa-gethex.o)
 .debug_frame   0x000071c0       0x4c c:/develop/altera/11.1/nios2eds/bin/gnu/h-i686-mingw32/bin/../lib/gcc/nios2-elf/4.1.2/../../../../nios2-elf/lib\libc.a(lib_a-gdtoa-hexnan.o)
 .debug_frame   0x0000720c       0x2c c:/develop/altera/11.1/nios2eds/bin/gnu/h-i686-mingw32/bin/../lib/gcc/nios2-elf/4.1.2/../../../../nios2-elf/lib\libc.a(lib_a-gettimeofdayr.o)
 .debug_frame   0x00007238       0x20 c:/develop/altera/11.1/nios2eds/bin/gnu/h-i686-mingw32/bin/../lib/gcc/nios2-elf/4.1.2/../../../../nios2-elf/lib\libc.a(lib_a-gettzinfo.o)
 .debug_frame   0x00007258       0x2c c:/develop/altera/11.1/nios2eds/bin/gnu/h-i686-mingw32/bin/../lib/gcc/nios2-elf/4.1.2/../../../../nios2-elf/lib\libc.a(lib_a-isattyr.o)
 .debug_frame   0x00007284       0x20 c:/develop/altera/11.1/nios2eds/bin/gnu/h-i686-mingw32/bin/../lib/gcc/nios2-elf/4.1.2/../../../../nios2-elf/lib\libc.a(lib_a-iswspace.o)
 .debug_frame   0x000072a4       0x20 c:/develop/altera/11.1/nios2eds/bin/gnu/h-i686-mingw32/bin/../lib/gcc/nios2-elf/4.1.2/../../../../nios2-elf/lib\libc.a(lib_a-labs.o)
 .debug_frame   0x000072c4       0x2c c:/develop/altera/11.1/nios2eds/bin/gnu/h-i686-mingw32/bin/../lib/gcc/nios2-elf/4.1.2/../../../../nios2-elf/lib\libc.a(lib_a-lseekr.o)
 .debug_frame   0x000072f0       0x44 c:/develop/altera/11.1/nios2eds/bin/gnu/h-i686-mingw32/bin/../lib/gcc/nios2-elf/4.1.2/../../../../nios2-elf/lib\libc.a(lib_a-mbrtowc.o)
 .debug_frame   0x00007334       0x24 c:/develop/altera/11.1/nios2eds/bin/gnu/h-i686-mingw32/bin/../lib/gcc/nios2-elf/4.1.2/../../../../nios2-elf/lib\libc.a(lib_a-mbtowc_r.o)
 .debug_frame   0x00007358       0x20 c:/develop/altera/11.1/nios2eds/bin/gnu/h-i686-mingw32/bin/../lib/gcc/nios2-elf/4.1.2/../../../../nios2-elf/lib\libc.a(lib_a-memmove.o)
 .debug_frame   0x00007378      0x218 c:/develop/altera/11.1/nios2eds/bin/gnu/h-i686-mingw32/bin/../lib/gcc/nios2-elf/4.1.2/../../../../nios2-elf/lib\libc.a(lib_a-mprec.o)
 .debug_frame   0x00007590       0x4c c:/develop/altera/11.1/nios2eds/bin/gnu/h-i686-mingw32/bin/../lib/gcc/nios2-elf/4.1.2/../../../../nios2-elf/lib\libc.a(lib_a-putc.o)
 .debug_frame   0x000075dc       0x2c c:/develop/altera/11.1/nios2eds/bin/gnu/h-i686-mingw32/bin/../lib/gcc/nios2-elf/4.1.2/../../../../nios2-elf/lib\libc.a(lib_a-readr.o)
 .debug_frame   0x00007608       0x20 c:/develop/altera/11.1/nios2eds/bin/gnu/h-i686-mingw32/bin/../lib/gcc/nios2-elf/4.1.2/../../../../nios2-elf/lib\libc.a(lib_a-s_isinfd.o)
 .debug_frame   0x00007628       0x20 c:/develop/altera/11.1/nios2eds/bin/gnu/h-i686-mingw32/bin/../lib/gcc/nios2-elf/4.1.2/../../../../nios2-elf/lib\libc.a(lib_a-sccl.o)
 .debug_frame   0x00007648       0x20 c:/develop/altera/11.1/nios2eds/bin/gnu/h-i686-mingw32/bin/../lib/gcc/nios2-elf/4.1.2/../../../../nios2-elf/lib\libc.a(lib_a-sf_nan.o)
 .debug_frame   0x00007668       0x48 c:/develop/altera/11.1/nios2eds/bin/gnu/h-i686-mingw32/bin/../lib/gcc/nios2-elf/4.1.2/../../../../nios2-elf/lib\libc.a(lib_a-snprintf.o)
 .debug_frame   0x000076b0       0x4c c:/develop/altera/11.1/nios2eds/bin/gnu/h-i686-mingw32/bin/../lib/gcc/nios2-elf/4.1.2/../../../../nios2-elf/lib\libc.a(lib_a-strtol.o)
 .debug_frame   0x000076fc       0x3c c:/develop/altera/11.1/nios2eds/bin/gnu/h-i686-mingw32/bin/../lib/gcc/nios2-elf/4.1.2/../../../../nios2-elf/lib\libc.a(lib_a-strtoll_r.o)
 .debug_frame   0x00007738       0x4c c:/develop/altera/11.1/nios2eds/bin/gnu/h-i686-mingw32/bin/../lib/gcc/nios2-elf/4.1.2/../../../../nios2-elf/lib\libc.a(lib_a-strtoul.o)
 .debug_frame   0x00007784       0x3c c:/develop/altera/11.1/nios2eds/bin/gnu/h-i686-mingw32/bin/../lib/gcc/nios2-elf/4.1.2/../../../../nios2-elf/lib\libc.a(lib_a-strtoull_r.o)
 .debug_frame   0x000077c0       0x3c c:/develop/altera/11.1/nios2eds/bin/gnu/h-i686-mingw32/bin/../lib/gcc/nios2-elf/4.1.2/../../../../nios2-elf/lib\libc.a(lib_a-wbuf.o)
 .debug_frame   0x000077fc       0x28 c:/develop/altera/11.1/nios2eds/bin/gnu/h-i686-mingw32/bin/../lib/gcc/nios2-elf/4.1.2/../../../../nios2-elf/lib\libc.a(lib_a-callocr.o)
 .debug_frame   0x00007824       0x38 c:/develop/altera/11.1/nios2eds/bin/gnu/h-i686-mingw32/bin/../lib/gcc/nios2-elf/4.1.2\libgcc.a(_udivdi3.o)
 .debug_frame   0x0000785c       0x38 c:/develop/altera/11.1/nios2eds/bin/gnu/h-i686-mingw32/bin/../lib/gcc/nios2-elf/4.1.2\libgcc.a(_umoddi3.o)
 .debug_frame   0x00007894       0x2c c:/develop/altera/11.1/nios2eds/bin/gnu/h-i686-mingw32/bin/../lib/gcc/nios2-elf/4.1.2\libgcc.a(_ne_sf.o)
 .debug_frame   0x000078c0       0x2c c:/develop/altera/11.1/nios2eds/bin/gnu/h-i686-mingw32/bin/../lib/gcc/nios2-elf/4.1.2\libgcc.a(_gt_sf.o)
 .debug_frame   0x000078ec       0x2c c:/develop/altera/11.1/nios2eds/bin/gnu/h-i686-mingw32/bin/../lib/gcc/nios2-elf/4.1.2\libgcc.a(_lt_sf.o)
 .debug_frame   0x00007918       0x28 c:/develop/altera/11.1/nios2eds/bin/gnu/h-i686-mingw32/bin/../lib/gcc/nios2-elf/4.1.2\libgcc.a(_df_to_sf.o)
 .debug_frame   0x00007940       0x20 c:/develop/altera/11.1/nios2eds/bin/gnu/h-i686-mingw32/bin/../lib/gcc/nios2-elf/4.1.2\libgcc.a(_unpack_sf.o)
 .debug_frame   0x00007960       0x20 c:/develop/altera/11.1/nios2eds/bin/gnu/h-i686-mingw32/bin/../lib/gcc/nios2-elf/4.1.2\libgcc.a(_fpcmp_parts_sf.o)
 .debug_frame   0x00007980       0x28 c:/develop/altera/11.1/nios2eds/bin/gnu/h-i686-mingw32/bin/../lib/gcc/nios2-elf/4.1.2\libgcc.a(_make_sf.o)
 .debug_frame   0x000079a8       0x20 c:/develop/altera/11.1/nios2eds/bin/gnu/h-i686-mingw32/bin/../lib/gcc/nios2-elf/4.1.2\libgcc.a(_pack_sf.o)
 .debug_frame   0x000079c8       0x2c ../Cineraria_DE0_HAL_bsp/\libhal_bsp.a(alt_close.o)
 .debug_frame   0x000079f4       0x20 ../Cineraria_DE0_HAL_bsp/\libhal_bsp.a(alt_dev.o)
 .debug_frame   0x00007a14       0x30 ../Cineraria_DE0_HAL_bsp/\libhal_bsp.a(alt_env_lock.o)
 .debug_frame   0x00007a44       0x20 ../Cineraria_DE0_HAL_bsp/\libhal_bsp.a(alt_exit.o)
 .debug_frame   0x00007a64       0x20 ../Cineraria_DE0_HAL_bsp/\libhal_bsp.a(alt_fs_reg.o)
 .debug_frame   0x00007a84       0x28 ../Cineraria_DE0_HAL_bsp/\libhal_bsp.a(alt_fstat.o)
 .debug_frame   0x00007aac       0x20 ../Cineraria_DE0_HAL_bsp/\libhal_bsp.a(alt_getpid.o)
 .debug_frame   0x00007acc       0x30 ../Cineraria_DE0_HAL_bsp/\libhal_bsp.a(alt_gettod.o)
 .debug_frame   0x00007afc       0x28 ../Cineraria_DE0_HAL_bsp/\libhal_bsp.a(alt_isatty.o)
 .debug_frame   0x00007b24       0x28 ../Cineraria_DE0_HAL_bsp/\libhal_bsp.a(alt_kill.o)
 .debug_frame   0x00007b4c       0x28 ../Cineraria_DE0_HAL_bsp/\libhal_bsp.a(alt_lseek.o)
 .debug_frame   0x00007b74       0x28 ../Cineraria_DE0_HAL_bsp/\libhal_bsp.a(alt_main.o)
 .debug_frame   0x00007b9c       0x30 ../Cineraria_DE0_HAL_bsp/\libhal_bsp.a(alt_malloc_lock.o)
 .debug_frame   0x00007bcc       0x34 ../Cineraria_DE0_HAL_bsp/\libhal_bsp.a(alt_open.o)
 .debug_frame   0x00007c00       0x28 ../Cineraria_DE0_HAL_bsp/\libhal_bsp.a(alt_read.o)
 .debug_frame   0x00007c28       0x20 ../Cineraria_DE0_HAL_bsp/\libhal_bsp.a(alt_release_fd.o)
 .debug_frame   0x00007c48       0x20 ../Cineraria_DE0_HAL_bsp/\libhal_bsp.a(alt_sbrk.o)
 .debug_frame   0x00007c68       0x40 ../Cineraria_DE0_HAL_bsp/\libhal_bsp.a(alt_tick.o)
 .debug_frame   0x00007ca8       0x28 ../Cineraria_DE0_HAL_bsp/\libhal_bsp.a(alt_times.o)
 .debug_frame   0x00007cd0       0x28 ../Cineraria_DE0_HAL_bsp/\libhal_bsp.a(alt_write.o)
 .debug_frame   0x00007cf8       0x44 ../Cineraria_DE0_HAL_bsp/\libhal_bsp.a(alt_sys_init.o)
 .debug_frame   0x00007d3c       0xb4 ../Cineraria_DE0_HAL_bsp/\libhal_bsp.a(altera_avalon_cfi_flash.o)
 .debug_frame   0x00007df0      0x168 ../Cineraria_DE0_HAL_bsp/\libhal_bsp.a(altera_avalon_cfi_flash_table.o)
 .debug_frame   0x00007f58       0xbc ../Cineraria_DE0_HAL_bsp/\libhal_bsp.a(altera_avalon_epcs_flash_controller.o)
 .debug_frame   0x00008014       0x50 ../Cineraria_DE0_HAL_bsp/\libhal_bsp.a(altera_avalon_jtag_uart_fd.o)
 .debug_frame   0x00008064       0x5c ../Cineraria_DE0_HAL_bsp/\libhal_bsp.a(altera_avalon_jtag_uart_init.o)
 .debug_frame   0x000080c0       0x20 ../Cineraria_DE0_HAL_bsp/\libhal_bsp.a(altera_avalon_jtag_uart_ioctl.o)
 .debug_frame   0x000080e0       0x38 ../Cineraria_DE0_HAL_bsp/\libhal_bsp.a(altera_avalon_jtag_uart_read.o)
 .debug_frame   0x00008118       0x34 ../Cineraria_DE0_HAL_bsp/\libhal_bsp.a(altera_avalon_jtag_uart_write.o)
 .debug_frame   0x0000814c       0x40 ../Cineraria_DE0_HAL_bsp/\libhal_bsp.a(altera_avalon_timer_sc.o)
 .debug_frame   0x0000818c       0x40 ../Cineraria_DE0_HAL_bsp/\libhal_bsp.a(altera_avalon_uart_fd.o)
 .debug_frame   0x000081cc       0x48 ../Cineraria_DE0_HAL_bsp/\libhal_bsp.a(altera_avalon_uart_init.o)
 .debug_frame   0x00008214       0x28 ../Cineraria_DE0_HAL_bsp/\libhal_bsp.a(altera_avalon_uart_read.o)
 .debug_frame   0x0000823c       0x2c ../Cineraria_DE0_HAL_bsp/\libhal_bsp.a(altera_avalon_uart_write.o)
 .debug_frame   0x00008268       0xdc ../Cineraria_DE0_HAL_bsp/\libhal_bsp.a(epcs_commands.o)
 .debug_frame   0x00008344       0x20 ../Cineraria_DE0_HAL_bsp/\libhal_bsp.a(alt_alarm_start.o)
 .debug_frame   0x00008364       0x20 ../Cineraria_DE0_HAL_bsp/\libhal_bsp.a(alt_dcache_flush.o)
 .debug_frame   0x00008384       0x28 ../Cineraria_DE0_HAL_bsp/\libhal_bsp.a(alt_dev_llist_insert.o)
 .debug_frame   0x000083ac       0x2c ../Cineraria_DE0_HAL_bsp/\libhal_bsp.a(alt_do_ctors.o)
 .debug_frame   0x000083d8       0x2c ../Cineraria_DE0_HAL_bsp/\libhal_bsp.a(alt_do_dtors.o)
 .debug_frame   0x00008404       0x30 ../Cineraria_DE0_HAL_bsp/\libhal_bsp.a(alt_find_dev.o)
 .debug_frame   0x00008434       0x34 ../Cineraria_DE0_HAL_bsp/\libhal_bsp.a(alt_find_file.o)
 .debug_frame   0x00008468       0x38 ../Cineraria_DE0_HAL_bsp/\libhal_bsp.a(alt_flash_dev.o)
 .debug_frame   0x000084a0       0x20 ../Cineraria_DE0_HAL_bsp/\libhal_bsp.a(alt_get_fd.o)
 .debug_frame   0x000084c0       0x50 ../Cineraria_DE0_HAL_bsp/\libhal_bsp.a(alt_iic.o)
 .debug_frame   0x00008510       0x28 ../Cineraria_DE0_HAL_bsp/\libhal_bsp.a(alt_iic_isr_register.o)
 .debug_frame   0x00008538       0x50 ../Cineraria_DE0_HAL_bsp/\libhal_bsp.a(alt_io_redirect.o)
 .debug_frame   0x00008588       0x28 ../Cineraria_DE0_HAL_bsp/\libhal_bsp.a(alt_irq_handler.o)
 .debug_frame   0x000085b0       0x20 ../Cineraria_DE0_HAL_bsp/\libhal_bsp.a(altera_nios2_irq.o)
 .debug_frame   0x000085d0       0x60 ../Cineraria_DE0_HAL_bsp/\libhal_bsp.a(altera_avalon_cfi_flash_amd.o)
 .debug_frame   0x00008630       0x94 ../Cineraria_DE0_HAL_bsp/\libhal_bsp.a(altera_avalon_cfi_flash_intel.o)
 .debug_frame   0x000086c4       0x28 ../Cineraria_DE0_HAL_bsp/\libhal_bsp.a(altera_avalon_spi.o)
 .debug_frame   0x000086ec       0x20 ../Cineraria_DE0_HAL_bsp/\libhal_bsp.a(alt_usleep.o)
 .debug_frame   0x0000870c       0x20 ../Cineraria_DE0_HAL_bsp/\libhal_bsp.a(alt_busy_sleep.o)
 .debug_frame   0x0000872c       0x20 c:/develop/altera/11.1/nios2eds/bin/gnu/h-i686-mingw32/bin/../lib/gcc/nios2-elf/4.1.2/../../../../nios2-elf/lib\libc.a(lib_a-atexit.o)
 .debug_frame   0x0000874c       0x34 c:/develop/altera/11.1/nios2eds/bin/gnu/h-i686-mingw32/bin/../lib/gcc/nios2-elf/4.1.2/../../../../nios2-elf/lib\libc.a(lib_a-__atexit.o)

.debug_str      0x00000000     0x9e2d
 *(.debug_str)
 .debug_str     0x00000000      0x97b obj/default/lua/lapi.o
                                0xb2e (size before relaxing)
 .debug_str     0x0000097b      0x6e8 obj/default/lua/lauxlib.o
                                0x997 (size before relaxing)
 .debug_str     0x00001063      0x1ae obj/default/lua/lbaselib.o
                                0x6ac (size before relaxing)
 .debug_str     0x00001211       0xaa obj/default/lua/lbitlib.o
                                0x1c4 (size before relaxing)
 .debug_str     0x000012bb      0x67a obj/default/lua/lcode.o
                                0xcca (size before relaxing)
 .debug_str     0x00001935       0x9d obj/default/lua/lcorolib.o
                                0x236 (size before relaxing)
 .debug_str     0x000019d2       0x19 obj/default/lua/lctype.o
                                 0xaf (size before relaxing)
 .debug_str     0x000019eb      0x177 obj/default/lua/ldblib.o
                                0x6e5 (size before relaxing)
 .debug_str     0x00001b62      0x1e6 obj/default/lua/ldebug.o
                                0x9a0 (size before relaxing)
 .debug_str     0x00001d48      0x20c obj/default/lua/ldo.o
                                0x843 (size before relaxing)
 .debug_str     0x00001f54       0x9f obj/default/lua/ldump.o
                                0x63b (size before relaxing)
 .debug_str     0x00001ff3       0xbe obj/default/lua/lfunc.o
                                0x649 (size before relaxing)
 .debug_str     0x000020b1      0x311 obj/default/lua/lgc.o
                                0x908 (size before relaxing)
 .debug_str     0x000023c2       0x28 obj/default/lua/linit.o
                                0x13a (size before relaxing)
 .debug_str     0x000023ea      0x1d8 obj/default/lua/liolib.o
                                0x6f7 (size before relaxing)
 .debug_str     0x000025c2      0x140 obj/default/lua/llex.o
                                0x802 (size before relaxing)
 .debug_str     0x00002702      0x149 obj/default/lua/lmathlib.o
                                0x266 (size before relaxing)
 .debug_str     0x0000284b       0x51 obj/default/lua/lmem.o
                                0x5f6 (size before relaxing)
 .debug_str     0x0000289c      0x144 obj/default/lua/loadlib.o
                                0x64b (size before relaxing)
 .debug_str     0x000029e0       0xcf obj/default/lua/lobject.o
                                0x6dc (size before relaxing)
 .debug_str     0x00002aaf       0x1c obj/default/lua/lopcodes.o
                                 0xbf (size before relaxing)
 .debug_str     0x00002acb       0xc7 obj/default/lua/loslib.o
                                0x27b (size before relaxing)
 .debug_str     0x00002b92      0x410 obj/default/lua/lparser.o
                                0xe07 (size before relaxing)
 .debug_str     0x00002fa2       0xb0 obj/default/lua/lstate.o
                                0x643 (size before relaxing)
 .debug_str     0x00003052       0x48 obj/default/lua/lstring.o
                                0x618 (size before relaxing)
 .debug_str     0x0000309a      0x251 obj/default/lua/lstrlib.o
                                0x3fa (size before relaxing)
 .debug_str     0x000032eb      0x17f obj/default/lua/ltable.o
                                0x779 (size before relaxing)
 .debug_str     0x0000346a       0x65 obj/default/lua/ltablib.o
                                0x19e (size before relaxing)
 .debug_str     0x000034cf       0x53 obj/default/lua/ltm.o
                                0x6b3 (size before relaxing)
 .debug_str     0x00003522       0xa7 obj/default/lua/lundump.o
                                0x67a (size before relaxing)
 .debug_str     0x000035c9      0x155 obj/default/lua/lvm.o
                                0x969 (size before relaxing)
 .debug_str     0x0000371e       0x38 obj/default/lua/lzio.o
                                0x605 (size before relaxing)
 .debug_str     0x00003756       0x26 obj/default/min.o
                                0x111 (size before relaxing)
 .debug_str     0x0000377c      0x456 obj/default/mmcfs/fatfs/ff.o
                                0x577 (size before relaxing)
 .debug_str     0x00003bd2       0xe9 obj/default/mmcfs/fatfs/mmcbb.o
                                0x1fa (size before relaxing)
 .debug_str     0x00003cbb       0x58 obj/default/mmcfs/fatfs/option/cc932.o
                                0x107 (size before relaxing)
 .debug_str     0x00003d13       0x1c obj/default/mmcfs/gettime.o
                                 0xf7 (size before relaxing)
 .debug_str     0x00003d2f      0x157 obj/default/mmcfs/mmc_spi.o
                                0x22c (size before relaxing)
 .debug_str     0x00003e86      0x223 obj/default/mmcfs/mmcfs.o
                                0x56e (size before relaxing)
 .debug_str     0x000040a9      0x107 c:/develop/altera/11.1/nios2eds/bin/gnu/h-i686-mingw32/bin/../lib/gcc/nios2-elf/4.1.2/../../../../nios2-elf/lib\libm.a(lib_a-s_atan.o)
                                0x1cb (size before relaxing)
 .debug_str     0x000041b0       0x43 c:/develop/altera/11.1/nios2eds/bin/gnu/h-i686-mingw32/bin/../lib/gcc/nios2-elf/4.1.2/../../../../nios2-elf/lib\libm.a(lib_a-s_ceil.o)
                                0x1bd (size before relaxing)
 .debug_str     0x000041f3       0x38 c:/develop/altera/11.1/nios2eds/bin/gnu/h-i686-mingw32/bin/../lib/gcc/nios2-elf/4.1.2/../../../../nios2-elf/lib\libm.a(lib_a-s_cos.o)
                                0x17a (size before relaxing)
 .debug_str     0x0000422b       0x48 c:/develop/altera/11.1/nios2eds/bin/gnu/h-i686-mingw32/bin/../lib/gcc/nios2-elf/4.1.2/../../../../nios2-elf/lib\libm.a(lib_a-s_fabs.o)
                                0x1ae (size before relaxing)
 .debug_str     0x00004273       0x3a c:/develop/altera/11.1/nios2eds/bin/gnu/h-i686-mingw32/bin/../lib/gcc/nios2-elf/4.1.2/../../../../nios2-elf/lib\libm.a(lib_a-s_floor.o)
                                0x1bf (size before relaxing)
 .debug_str     0x000042ad       0x45 c:/develop/altera/11.1/nios2eds/bin/gnu/h-i686-mingw32/bin/../lib/gcc/nios2-elf/4.1.2/../../../../nios2-elf/lib\libm.a(lib_a-s_frexp.o)
                                0x1ca (size before relaxing)
 .debug_str     0x000042f2       0x3a c:/develop/altera/11.1/nios2eds/bin/gnu/h-i686-mingw32/bin/../lib/gcc/nios2-elf/4.1.2/../../../../nios2-elf/lib\libm.a(lib_a-s_ldexp.o)
                                0x17e (size before relaxing)
 .debug_str     0x0000432c       0xcc c:/develop/altera/11.1/nios2eds/bin/gnu/h-i686-mingw32/bin/../lib/gcc/nios2-elf/4.1.2/../../../../nios2-elf/lib\libm.a(lib_a-s_modf.o)
                                0x1c1 (size before relaxing)
 .debug_str     0x000043f8       0x50 c:/develop/altera/11.1/nios2eds/bin/gnu/h-i686-mingw32/bin/../lib/gcc/nios2-elf/4.1.2/../../../../nios2-elf/lib\libm.a(lib_a-s_scalbn.o)
                                0x1dc (size before relaxing)
 .debug_str     0x00004448       0x38 c:/develop/altera/11.1/nios2eds/bin/gnu/h-i686-mingw32/bin/../lib/gcc/nios2-elf/4.1.2/../../../../nios2-elf/lib\libm.a(lib_a-s_sin.o)
                                0x17a (size before relaxing)
 .debug_str     0x00004480       0x38 c:/develop/altera/11.1/nios2eds/bin/gnu/h-i686-mingw32/bin/../lib/gcc/nios2-elf/4.1.2/../../../../nios2-elf/lib\libm.a(lib_a-s_tan.o)
                                0x17a (size before relaxing)
 .debug_str     0x000044b8       0x39 c:/develop/altera/11.1/nios2eds/bin/gnu/h-i686-mingw32/bin/../lib/gcc/nios2-elf/4.1.2/../../../../nios2-elf/lib\libm.a(lib_a-s_tanh.o)
                                0x1b8 (size before relaxing)
 .debug_str     0x000044f1       0xaf c:/develop/altera/11.1/nios2eds/bin/gnu/h-i686-mingw32/bin/../lib/gcc/nios2-elf/4.1.2/../../../../nios2-elf/lib\libm.a(lib_a-w_acos.o)
                                0x1f6 (size before relaxing)
 .debug_str     0x000045a0       0x39 c:/develop/altera/11.1/nios2eds/bin/gnu/h-i686-mingw32/bin/../lib/gcc/nios2-elf/4.1.2/../../../../nios2-elf/lib\libm.a(lib_a-w_asin.o)
                                0x1f6 (size before relaxing)
 .debug_str     0x000045d9       0x3a c:/develop/altera/11.1/nios2eds/bin/gnu/h-i686-mingw32/bin/../lib/gcc/nios2-elf/4.1.2/../../../../nios2-elf/lib\libm.a(lib_a-w_atan2.o)
                                0x178 (size before relaxing)
 .debug_str     0x00004613       0x39 c:/develop/altera/11.1/nios2eds/bin/gnu/h-i686-mingw32/bin/../lib/gcc/nios2-elf/4.1.2/../../../../nios2-elf/lib\libm.a(lib_a-w_cosh.o)
                                0x1f6 (size before relaxing)
 .debug_str     0x0000464c       0x50 c:/develop/altera/11.1/nios2eds/bin/gnu/h-i686-mingw32/bin/../lib/gcc/nios2-elf/4.1.2/../../../../nios2-elf/lib\libm.a(lib_a-w_exp.o)
                                0x208 (size before relaxing)
 .debug_str     0x0000469c       0x39 c:/develop/altera/11.1/nios2eds/bin/gnu/h-i686-mingw32/bin/../lib/gcc/nios2-elf/4.1.2/../../../../nios2-elf/lib\libm.a(lib_a-w_fmod.o)
                                0x1f6 (size before relaxing)
 .debug_str     0x000046d5       0x38 c:/develop/altera/11.1/nios2eds/bin/gnu/h-i686-mingw32/bin/../lib/gcc/nios2-elf/4.1.2/../../../../nios2-elf/lib\libm.a(lib_a-w_log.o)
                                0x1f0 (size before relaxing)
 .debug_str     0x0000470d       0x3a c:/develop/altera/11.1/nios2eds/bin/gnu/h-i686-mingw32/bin/../lib/gcc/nios2-elf/4.1.2/../../../../nios2-elf/lib\libm.a(lib_a-w_log10.o)
                                0x1f8 (size before relaxing)
 .debug_str     0x00004747       0x38 c:/develop/altera/11.1/nios2eds/bin/gnu/h-i686-mingw32/bin/../lib/gcc/nios2-elf/4.1.2/../../../../nios2-elf/lib\libm.a(lib_a-w_pow.o)
                                0x1f0 (size before relaxing)
 .debug_str     0x0000477f       0x39 c:/develop/altera/11.1/nios2eds/bin/gnu/h-i686-mingw32/bin/../lib/gcc/nios2-elf/4.1.2/../../../../nios2-elf/lib\libm.a(lib_a-w_sinh.o)
                                0x1f6 (size before relaxing)
 .debug_str     0x000047b8       0x39 c:/develop/altera/11.1/nios2eds/bin/gnu/h-i686-mingw32/bin/../lib/gcc/nios2-elf/4.1.2/../../../../nios2-elf/lib\libm.a(lib_a-w_sqrt.o)
                                0x1f6 (size before relaxing)
 .debug_str     0x000047f1       0x5d c:/develop/altera/11.1/nios2eds/bin/gnu/h-i686-mingw32/bin/../lib/gcc/nios2-elf/4.1.2/../../../../nios2-elf/lib\libm.a(lib_a-e_acos.o)
                                0x1d2 (size before relaxing)
 .debug_str     0x0000484e       0x50 c:/develop/altera/11.1/nios2eds/bin/gnu/h-i686-mingw32/bin/../lib/gcc/nios2-elf/4.1.2/../../../../nios2-elf/lib\libm.a(lib_a-e_asin.o)
                                0x1df (size before relaxing)
 .debug_str     0x0000489e       0x5e c:/develop/altera/11.1/nios2eds/bin/gnu/h-i686-mingw32/bin/../lib/gcc/nios2-elf/4.1.2/../../../../nios2-elf/lib\libm.a(lib_a-e_atan2.o)
                                0x1e2 (size before relaxing)
 .debug_str     0x000048fc       0x4d c:/develop/altera/11.1/nios2eds/bin/gnu/h-i686-mingw32/bin/../lib/gcc/nios2-elf/4.1.2/../../../../nios2-elf/lib\libm.a(lib_a-e_cosh.o)
                                0x19f (size before relaxing)
 .debug_str     0x00004949       0x67 c:/develop/altera/11.1/nios2eds/bin/gnu/h-i686-mingw32/bin/../lib/gcc/nios2-elf/4.1.2/../../../../nios2-elf/lib\libm.a(lib_a-e_exp.o)
                                0x1f9 (size before relaxing)
 .debug_str     0x000049b0       0x4d c:/develop/altera/11.1/nios2eds/bin/gnu/h-i686-mingw32/bin/../lib/gcc/nios2-elf/4.1.2/../../../../nios2-elf/lib\libm.a(lib_a-e_fmod.o)
                                0x1c7 (size before relaxing)
 .debug_str     0x000049fd       0x59 c:/develop/altera/11.1/nios2eds/bin/gnu/h-i686-mingw32/bin/../lib/gcc/nios2-elf/4.1.2/../../../../nios2-elf/lib\libm.a(lib_a-e_log.o)
                                0x1e3 (size before relaxing)
 .debug_str     0x00004a56       0x65 c:/develop/altera/11.1/nios2eds/bin/gnu/h-i686-mingw32/bin/../lib/gcc/nios2-elf/4.1.2/../../../../nios2-elf/lib\libm.a(lib_a-e_log10.o)
                                0x1ef (size before relaxing)
 .debug_str     0x00004abb       0x89 c:/develop/altera/11.1/nios2eds/bin/gnu/h-i686-mingw32/bin/../lib/gcc/nios2-elf/4.1.2/../../../../nios2-elf/lib\libm.a(lib_a-e_pow.o)
                                0x21c (size before relaxing)
 .debug_str     0x00004b44       0xa0 c:/develop/altera/11.1/nios2eds/bin/gnu/h-i686-mingw32/bin/../lib/gcc/nios2-elf/4.1.2/../../../../nios2-elf/lib\libm.a(lib_a-e_rem_pio2.o)
                                0x229 (size before relaxing)
 .debug_str     0x00004be4       0x4e c:/develop/altera/11.1/nios2eds/bin/gnu/h-i686-mingw32/bin/../lib/gcc/nios2-elf/4.1.2/../../../../nios2-elf/lib\libm.a(lib_a-e_sinh.o)
                                0x19b (size before relaxing)
 .debug_str     0x00004c32       0x48 c:/develop/altera/11.1/nios2eds/bin/gnu/h-i686-mingw32/bin/../lib/gcc/nios2-elf/4.1.2/../../../../nios2-elf/lib\libm.a(lib_a-e_sqrt.o)
                                0x1cc (size before relaxing)
 .debug_str     0x00004c7a       0x45 c:/develop/altera/11.1/nios2eds/bin/gnu/h-i686-mingw32/bin/../lib/gcc/nios2-elf/4.1.2/../../../../nios2-elf/lib\libm.a(lib_a-k_cos.o)
                                0x1ba (size before relaxing)
 .debug_str     0x00004cbf       0x79 c:/develop/altera/11.1/nios2eds/bin/gnu/h-i686-mingw32/bin/../lib/gcc/nios2-elf/4.1.2/../../../../nios2-elf/lib\libm.a(lib_a-k_rem_pio2.o)
                                0x1cb (size before relaxing)
 .debug_str     0x00004d38       0x45 c:/develop/altera/11.1/nios2eds/bin/gnu/h-i686-mingw32/bin/../lib/gcc/nios2-elf/4.1.2/../../../../nios2-elf/lib\libm.a(lib_a-k_sin.o)
                                0x18c (size before relaxing)
 .debug_str     0x00004d7d       0x51 c:/develop/altera/11.1/nios2eds/bin/gnu/h-i686-mingw32/bin/../lib/gcc/nios2-elf/4.1.2/../../../../nios2-elf/lib\libm.a(lib_a-k_tan.o)
                                0x1d0 (size before relaxing)
 .debug_str     0x00004dce       0x48 c:/develop/altera/11.1/nios2eds/bin/gnu/h-i686-mingw32/bin/../lib/gcc/nios2-elf/4.1.2/../../../../nios2-elf/lib\libm.a(lib_a-s_copysign.o)
                                0x1b5 (size before relaxing)
 .debug_str     0x00004e16       0x42 c:/develop/altera/11.1/nios2eds/bin/gnu/h-i686-mingw32/bin/../lib/gcc/nios2-elf/4.1.2/../../../../nios2-elf/lib\libm.a(lib_a-s_expm1.o)
                                0x1ee (size before relaxing)
 .debug_str     0x00004e58       0x44 c:/develop/altera/11.1/nios2eds/bin/gnu/h-i686-mingw32/bin/../lib/gcc/nios2-elf/4.1.2/../../../../nios2-elf/lib\libm.a(lib_a-s_finite.o)
                                0x1bb (size before relaxing)
 .debug_str     0x00004e9c       0x46 c:/develop/altera/11.1/nios2eds/bin/gnu/h-i686-mingw32/bin/../lib/gcc/nios2-elf/4.1.2/../../../../nios2-elf/lib\libm.a(lib_a-s_isnand.o)
                                0x18a (size before relaxing)
 .debug_str     0x00004ee2       0x3e c:/develop/altera/11.1/nios2eds/bin/gnu/h-i686-mingw32/bin/../lib/gcc/nios2-elf/4.1.2/../../../../nios2-elf/lib\libm.a(lib_a-s_lib_ver.o)
                                0x1d3 (size before relaxing)
 .debug_str     0x00004f20       0x46 c:/develop/altera/11.1/nios2eds/bin/gnu/h-i686-mingw32/bin/../lib/gcc/nios2-elf/4.1.2/../../../../nios2-elf/lib\libm.a(lib_a-s_matherr.o)
                                0x1a5 (size before relaxing)
 .debug_str     0x00004f66       0x3a c:/develop/altera/11.1/nios2eds/bin/gnu/h-i686-mingw32/bin/../lib/gcc/nios2-elf/4.1.2/../../../../nios2-elf/lib\libm.a(lib_a-s_nan.o)
                                0x1ae (size before relaxing)
 .debug_str     0x00004fa0       0x41 c:/develop/altera/11.1/nios2eds/bin/gnu/h-i686-mingw32/bin/../lib/gcc/nios2-elf/4.1.2/../../../../nios2-elf/lib\libm.a(lib_a-s_rint.o)
                                0x1c2 (size before relaxing)
 .debug_str     0x00004fe1       0xc9 c:/develop/altera/11.1/nios2eds/bin/gnu/h-i686-mingw32/bin/../lib/gcc/nios2-elf/4.1.2\libgcc.a(_fixunsdfsi.o)
                                0x16b (size before relaxing)
 .debug_str     0x000050aa      0x12b c:/develop/altera/11.1/nios2eds/bin/gnu/h-i686-mingw32/bin/../lib/gcc/nios2-elf/4.1.2\libgcc.a(_addsub_df.o)
                                0x26f (size before relaxing)
 .debug_str     0x000051d5       0x40 c:/develop/altera/11.1/nios2eds/bin/gnu/h-i686-mingw32/bin/../lib/gcc/nios2-elf/4.1.2\libgcc.a(_mul_df.o)
                                0x241 (size before relaxing)
 .debug_str     0x00005215       0x35 c:/develop/altera/11.1/nios2eds/bin/gnu/h-i686-mingw32/bin/../lib/gcc/nios2-elf/4.1.2\libgcc.a(_div_df.o)
                                0x231 (size before relaxing)
 .debug_str     0x0000524a        0x8 c:/develop/altera/11.1/nios2eds/bin/gnu/h-i686-mingw32/bin/../lib/gcc/nios2-elf/4.1.2\libgcc.a(_eq_df.o)
                                0x1fe (size before relaxing)
 .debug_str     0x00005252        0x8 c:/develop/altera/11.1/nios2eds/bin/gnu/h-i686-mingw32/bin/../lib/gcc/nios2-elf/4.1.2\libgcc.a(_ne_df.o)
                                0x1fe (size before relaxing)
 .debug_str     0x0000525a        0x8 c:/develop/altera/11.1/nios2eds/bin/gnu/h-i686-mingw32/bin/../lib/gcc/nios2-elf/4.1.2\libgcc.a(_gt_df.o)
                                0x1fe (size before relaxing)
 .debug_str     0x00005262        0x8 c:/develop/altera/11.1/nios2eds/bin/gnu/h-i686-mingw32/bin/../lib/gcc/nios2-elf/4.1.2\libgcc.a(_ge_df.o)
                                0x1fe (size before relaxing)
 .debug_str     0x0000526a        0x8 c:/develop/altera/11.1/nios2eds/bin/gnu/h-i686-mingw32/bin/../lib/gcc/nios2-elf/4.1.2\libgcc.a(_lt_df.o)
                                0x1fe (size before relaxing)
 .debug_str     0x00005272        0x8 c:/develop/altera/11.1/nios2eds/bin/gnu/h-i686-mingw32/bin/../lib/gcc/nios2-elf/4.1.2\libgcc.a(_le_df.o)
                                0x1fe (size before relaxing)
 .debug_str     0x0000527a       0x18 c:/develop/altera/11.1/nios2eds/bin/gnu/h-i686-mingw32/bin/../lib/gcc/nios2-elf/4.1.2\libgcc.a(_si_to_df.o)
                                0x1de (size before relaxing)
 .debug_str     0x00005292        0xa c:/develop/altera/11.1/nios2eds/bin/gnu/h-i686-mingw32/bin/../lib/gcc/nios2-elf/4.1.2\libgcc.a(_df_to_si.o)
                                0x207 (size before relaxing)
 .debug_str     0x00000000      0x1a3 c:/develop/altera/11.1/nios2eds/bin/gnu/h-i686-mingw32/bin/../lib/gcc/nios2-elf/4.1.2\libgcc.a(_thenan_df.o)
 .debug_str     0x0000529c       0x14 c:/develop/altera/11.1/nios2eds/bin/gnu/h-i686-mingw32/bin/../lib/gcc/nios2-elf/4.1.2\libgcc.a(_usi_to_df.o)
                                0x1da (size before relaxing)
 .debug_str     0x000052b0       0x76 c:/develop/altera/11.1/nios2eds/bin/gnu/h-i686-mingw32/bin/../lib/gcc/nios2-elf/4.1.2\libgcc.a(lib2-divmod.o)
                                0x1b4 (size before relaxing)
 .debug_str     0x00005326       0x42 c:/develop/altera/11.1/nios2eds/bin/gnu/h-i686-mingw32/bin/../lib/gcc/nios2-elf/4.1.2\libgcc.a(_muldi3.o)
                                0x1ac (size before relaxing)
 .debug_str     0x00005368       0x20 c:/develop/altera/11.1/nios2eds/bin/gnu/h-i686-mingw32/bin/../lib/gcc/nios2-elf/4.1.2\libgcc.a(_clzsi2.o)
                                0x17e (size before relaxing)
 .debug_str     0x00005388       0x10 c:/develop/altera/11.1/nios2eds/bin/gnu/h-i686-mingw32/bin/../lib/gcc/nios2-elf/4.1.2\libgcc.a(_pack_df.o)
                                0x206 (size before relaxing)
 .debug_str     0x00005398        0xb c:/develop/altera/11.1/nios2eds/bin/gnu/h-i686-mingw32/bin/../lib/gcc/nios2-elf/4.1.2\libgcc.a(_unpack_df.o)
                                0x1e8 (size before relaxing)
 .debug_str     0x000053a3       0x10 c:/develop/altera/11.1/nios2eds/bin/gnu/h-i686-mingw32/bin/../lib/gcc/nios2-elf/4.1.2\libgcc.a(_fpcmp_parts_df.o)
                                0x1c6 (size before relaxing)
 .debug_str     0x00000000      0x161 c:/develop/altera/11.1/nios2eds/bin/gnu/h-i686-mingw32/bin/../lib/gcc/nios2-elf/4.1.2\libgcc.a(_clz.o)
 .debug_str     0x000053b3       0xcc c:/develop/altera/11.1/nios2eds/bin/gnu/h-i686-mingw32/bin/../lib/gcc/nios2-elf/4.1.2/../../../../nios2-elf/lib\libc.a(lib_a-abort.o)
                                0x161 (size before relaxing)
 .debug_str     0x0000547f       0xfa c:/develop/altera/11.1/nios2eds/bin/gnu/h-i686-mingw32/bin/../lib/gcc/nios2-elf/4.1.2/../../../../nios2-elf/lib\libc.a(lib_a-clock.o)
                                0x536 (size before relaxing)
 .debug_str     0x00005579       0xce c:/develop/altera/11.1/nios2eds/bin/gnu/h-i686-mingw32/bin/../lib/gcc/nios2-elf/4.1.2/../../../../nios2-elf/lib\libc.a(lib_a-ctype_.o)
                                0x105 (size before relaxing)
 .debug_str     0x00005647       0x45 c:/develop/altera/11.1/nios2eds/bin/gnu/h-i686-mingw32/bin/../lib/gcc/nios2-elf/4.1.2/../../../../nios2-elf/lib\libc.a(lib_a-difftime.o)
                                0x17b (size before relaxing)
 .debug_str     0x0000568c       0xcc c:/develop/altera/11.1/nios2eds/bin/gnu/h-i686-mingw32/bin/../lib/gcc/nios2-elf/4.1.2/../../../../nios2-elf/lib\libc.a(lib_a-errno.o)
                                0x502 (size before relaxing)
 .debug_str     0x00005758       0x4c c:/develop/altera/11.1/nios2eds/bin/gnu/h-i686-mingw32/bin/../lib/gcc/nios2-elf/4.1.2/../../../../nios2-elf/lib\libc.a(lib_a-exit.o)
                                0x50c (size before relaxing)
 .debug_str     0x000057a4       0xd4 c:/develop/altera/11.1/nios2eds/bin/gnu/h-i686-mingw32/bin/../lib/gcc/nios2-elf/4.1.2/../../../../nios2-elf/lib\libc.a(lib_a-fclose.o)
                                0x516 (size before relaxing)
 .debug_str     0x00005878       0x52 c:/develop/altera/11.1/nios2eds/bin/gnu/h-i686-mingw32/bin/../lib/gcc/nios2-elf/4.1.2/../../../../nios2-elf/lib\libc.a(lib_a-fflush.o)
                                0x532 (size before relaxing)
 .debug_str     0x000058ca       0x48 c:/develop/altera/11.1/nios2eds/bin/gnu/h-i686-mingw32/bin/../lib/gcc/nios2-elf/4.1.2/../../../../nios2-elf/lib\libc.a(lib_a-fgets.o)
                                0x515 (size before relaxing)
 .debug_str     0x00005912      0x102 c:/develop/altera/11.1/nios2eds/bin/gnu/h-i686-mingw32/bin/../lib/gcc/nios2-elf/4.1.2/../../../../nios2-elf/lib\libc.a(lib_a-findfp.o)
                                0x5f4 (size before relaxing)
 .debug_str     0x00005a14       0x4f c:/develop/altera/11.1/nios2eds/bin/gnu/h-i686-mingw32/bin/../lib/gcc/nios2-elf/4.1.2/../../../../nios2-elf/lib\libc.a(lib_a-fopen.o)
                                0x525 (size before relaxing)
 .debug_str     0x00005a63       0x4e c:/develop/altera/11.1/nios2eds/bin/gnu/h-i686-mingw32/bin/../lib/gcc/nios2-elf/4.1.2/../../../../nios2-elf/lib\libc.a(lib_a-fprintf.o)
                                0x51f (size before relaxing)
 .debug_str     0x00005ab1       0x6a c:/develop/altera/11.1/nios2eds/bin/gnu/h-i686-mingw32/bin/../lib/gcc/nios2-elf/4.1.2/../../../../nios2-elf/lib\libc.a(lib_a-fread.o)
                                0x54e (size before relaxing)
 .debug_str     0x00005b1b      0x155 c:/develop/altera/11.1/nios2eds/bin/gnu/h-i686-mingw32/bin/../lib/gcc/nios2-elf/4.1.2/../../../../nios2-elf/lib\libc.a(lib_a-freer.o)
                                0x643 (size before relaxing)
 .debug_str     0x00005c70       0x4e c:/develop/altera/11.1/nios2eds/bin/gnu/h-i686-mingw32/bin/../lib/gcc/nios2-elf/4.1.2/../../../../nios2-elf/lib\libc.a(lib_a-freopen.o)
                                0x52b (size before relaxing)
 .debug_str     0x00005cbe       0x44 c:/develop/altera/11.1/nios2eds/bin/gnu/h-i686-mingw32/bin/../lib/gcc/nios2-elf/4.1.2/../../../../nios2-elf/lib\libc.a(lib_a-fscanf.o)
                                0x528 (size before relaxing)
 .debug_str     0x00005d02       0x63 c:/develop/altera/11.1/nios2eds/bin/gnu/h-i686-mingw32/bin/../lib/gcc/nios2-elf/4.1.2/../../../../nios2-elf/lib\libc.a(lib_a-fseek.o)
                                0x632 (size before relaxing)
 .debug_str     0x00005d65       0xd4 c:/develop/altera/11.1/nios2eds/bin/gnu/h-i686-mingw32/bin/../lib/gcc/nios2-elf/4.1.2/../../../../nios2-elf/lib\libc.a(lib_a-fstatr.o)
                                0x5f1 (size before relaxing)
 .debug_str     0x00005e39       0x48 c:/develop/altera/11.1/nios2eds/bin/gnu/h-i686-mingw32/bin/../lib/gcc/nios2-elf/4.1.2/../../../../nios2-elf/lib\libc.a(lib_a-ftell.o)
                                0x50e (size before relaxing)
 .debug_str     0x00005e81       0x5e c:/develop/altera/11.1/nios2eds/bin/gnu/h-i686-mingw32/bin/../lib/gcc/nios2-elf/4.1.2/../../../../nios2-elf/lib\libc.a(lib_a-fwalk.o)
                                0x535 (size before relaxing)
 .debug_str     0x00005edf       0x87 c:/develop/altera/11.1/nios2eds/bin/gnu/h-i686-mingw32/bin/../lib/gcc/nios2-elf/4.1.2/../../../../nios2-elf/lib\libc.a(lib_a-fwrite.o)
                                0x55f (size before relaxing)
 .debug_str     0x00005f66       0x40 c:/develop/altera/11.1/nios2eds/bin/gnu/h-i686-mingw32/bin/../lib/gcc/nios2-elf/4.1.2/../../../../nios2-elf/lib\libc.a(lib_a-getc.o)
                                0x512 (size before relaxing)
 .debug_str     0x00005fa6       0x44 c:/develop/altera/11.1/nios2eds/bin/gnu/h-i686-mingw32/bin/../lib/gcc/nios2-elf/4.1.2/../../../../nios2-elf/lib\libc.a(lib_a-getenv.o)
                                0x519 (size before relaxing)
 .debug_str     0x00005fea       0x5c c:/develop/altera/11.1/nios2eds/bin/gnu/h-i686-mingw32/bin/../lib/gcc/nios2-elf/4.1.2/../../../../nios2-elf/lib\libc.a(lib_a-getenv_r.o)
                                0x530 (size before relaxing)
 .debug_str     0x00006046       0x3f c:/develop/altera/11.1/nios2eds/bin/gnu/h-i686-mingw32/bin/../lib/gcc/nios2-elf/4.1.2/../../../../nios2-elf/lib\libc.a(lib_a-gmtime.o)
                                0x553 (size before relaxing)
 .debug_str     0x00006085       0x44 c:/develop/altera/11.1/nios2eds/bin/gnu/h-i686-mingw32/bin/../lib/gcc/nios2-elf/4.1.2/../../../../nios2-elf/lib\libc.a(lib_a-gmtime_r.o)
                                0x1b6 (size before relaxing)
 .debug_str     0x000060c9       0x46 c:/develop/altera/11.1/nios2eds/bin/gnu/h-i686-mingw32/bin/../lib/gcc/nios2-elf/4.1.2/../../../../nios2-elf/lib\libc.a(lib_a-impure.o)
                                0x51a (size before relaxing)
 .debug_str     0x0000610f       0x3d c:/develop/altera/11.1/nios2eds/bin/gnu/h-i686-mingw32/bin/../lib/gcc/nios2-elf/4.1.2/../../../../nios2-elf/lib\libc.a(lib_a-int_errno.o)
                                0x163 (size before relaxing)
 .debug_str     0x0000614c       0x44 c:/develop/altera/11.1/nios2eds/bin/gnu/h-i686-mingw32/bin/../lib/gcc/nios2-elf/4.1.2/../../../../nios2-elf/lib\libc.a(lib_a-lcltime.o)
                                0x557 (size before relaxing)
 .debug_str     0x00006190       0x48 c:/develop/altera/11.1/nios2eds/bin/gnu/h-i686-mingw32/bin/../lib/gcc/nios2-elf/4.1.2/../../../../nios2-elf/lib\libc.a(lib_a-lcltime_r.o)
                                0x1ba (size before relaxing)
 .debug_str     0x000061d8      0x21b c:/develop/altera/11.1/nios2eds/bin/gnu/h-i686-mingw32/bin/../lib/gcc/nios2-elf/4.1.2/../../../../nios2-elf/lib\libc.a(lib_a-locale.o)
                                0x6a9 (size before relaxing)
 .debug_str     0x000063f3       0x53 c:/develop/altera/11.1/nios2eds/bin/gnu/h-i686-mingw32/bin/../lib/gcc/nios2-elf/4.1.2/../../../../nios2-elf/lib\libc.a(lib_a-makebuf.o)
                                0x606 (size before relaxing)
 .debug_str     0x00006446       0x47 c:/develop/altera/11.1/nios2eds/bin/gnu/h-i686-mingw32/bin/../lib/gcc/nios2-elf/4.1.2/../../../../nios2-elf/lib\libc.a(lib_a-malloc.o)
                                0x51c (size before relaxing)
 .debug_str     0x0000648d       0xdb c:/develop/altera/11.1/nios2eds/bin/gnu/h-i686-mingw32/bin/../lib/gcc/nios2-elf/4.1.2/../../../../nios2-elf/lib\libc.a(lib_a-mallocr.o)
                                0x6f1 (size before relaxing)
 .debug_str     0x00006568       0xdc c:/develop/altera/11.1/nios2eds/bin/gnu/h-i686-mingw32/bin/../lib/gcc/nios2-elf/4.1.2/../../../../nios2-elf/lib\libc.a(lib_a-memchr.o)
                                0x18b (size before relaxing)
 .debug_str     0x00006644       0x3b c:/develop/altera/11.1/nios2eds/bin/gnu/h-i686-mingw32/bin/../lib/gcc/nios2-elf/4.1.2/../../../../nios2-elf/lib\libc.a(lib_a-memcmp.o)
                                0x16a (size before relaxing)
 .debug_str     0x0000667f       0x69 c:/develop/altera/11.1/nios2eds/bin/gnu/h-i686-mingw32/bin/../lib/gcc/nios2-elf/4.1.2/../../../../nios2-elf/lib\libc.a(lib_a-memcpy.o)
                                0x128 (size before relaxing)
 .debug_str     0x000066e8       0x4f c:/develop/altera/11.1/nios2eds/bin/gnu/h-i686-mingw32/bin/../lib/gcc/nios2-elf/4.1.2/../../../../nios2-elf/lib\libc.a(lib_a-memset.o)
                                0x17e (size before relaxing)
 .debug_str     0x00006737      0x11b c:/develop/altera/11.1/nios2eds/bin/gnu/h-i686-mingw32/bin/../lib/gcc/nios2-elf/4.1.2/../../../../nios2-elf/lib\libc.a(lib_a-mktime.o)
                                0x2a9 (size before relaxing)
 .debug_str     0x00006852       0xb2 c:/develop/altera/11.1/nios2eds/bin/gnu/h-i686-mingw32/bin/../lib/gcc/nios2-elf/4.1.2/../../../../nios2-elf/lib\libc.a(lib_a-mktm_r.o)
                                0x2a5 (size before relaxing)
 .debug_str     0x00006904       0x41 c:/develop/altera/11.1/nios2eds/bin/gnu/h-i686-mingw32/bin/../lib/gcc/nios2-elf/4.1.2/../../../../nios2-elf/lib\libc.a(lib_a-openr.o)
                                0x50c (size before relaxing)
 .debug_str     0x00006945       0x44 c:/develop/altera/11.1/nios2eds/bin/gnu/h-i686-mingw32/bin/../lib/gcc/nios2-elf/4.1.2/../../../../nios2-elf/lib\libc.a(lib_a-printf.o)
                                0x523 (size before relaxing)
 .debug_str     0x00006989       0x4e c:/develop/altera/11.1/nios2eds/bin/gnu/h-i686-mingw32/bin/../lib/gcc/nios2-elf/4.1.2/../../../../nios2-elf/lib\libc.a(lib_a-putchar.o)
                                0x50f (size before relaxing)
 .debug_str     0x000069d7       0x45 c:/develop/altera/11.1/nios2eds/bin/gnu/h-i686-mingw32/bin/../lib/gcc/nios2-elf/4.1.2/../../../../nios2-elf/lib\libc.a(lib_a-puts.o)
                                0x549 (size before relaxing)
 .debug_str     0x00006a1c       0x3f c:/develop/altera/11.1/nios2eds/bin/gnu/h-i686-mingw32/bin/../lib/gcc/nios2-elf/4.1.2/../../../../nios2-elf/lib\libc.a(lib_a-rand.o)
                                0x50b (size before relaxing)
 .debug_str     0x00006a5b       0x3c c:/develop/altera/11.1/nios2eds/bin/gnu/h-i686-mingw32/bin/../lib/gcc/nios2-elf/4.1.2/../../../../nios2-elf/lib\libc.a(lib_a-realloc.o)
                                0x514 (size before relaxing)
 .debug_str     0x00006a97       0x4c c:/develop/altera/11.1/nios2eds/bin/gnu/h-i686-mingw32/bin/../lib/gcc/nios2-elf/4.1.2/../../../../nios2-elf/lib\libc.a(lib_a-reallocr.o)
                                0x5c3 (size before relaxing)
 .debug_str     0x00006ae3       0x4d c:/develop/altera/11.1/nios2eds/bin/gnu/h-i686-mingw32/bin/../lib/gcc/nios2-elf/4.1.2/../../../../nios2-elf/lib\libc.a(lib_a-refill.o)
                                0x51a (size before relaxing)
 .debug_str     0x00006b30       0x4a c:/develop/altera/11.1/nios2eds/bin/gnu/h-i686-mingw32/bin/../lib/gcc/nios2-elf/4.1.2/../../../../nios2-elf/lib\libc.a(lib_a-rget.o)
                                0x510 (size before relaxing)
 .debug_str     0x00006b7a       0x46 c:/develop/altera/11.1/nios2eds/bin/gnu/h-i686-mingw32/bin/../lib/gcc/nios2-elf/4.1.2/../../../../nios2-elf/lib\libc.a(lib_a-sbrkr.o)
                                0x50b (size before relaxing)
 .debug_str     0x00006bc0       0x3b c:/develop/altera/11.1/nios2eds/bin/gnu/h-i686-mingw32/bin/../lib/gcc/nios2-elf/4.1.2/../../../../nios2-elf/lib\libc.a(lib_a-setvbuf.o)
                                0x51a (size before relaxing)
 .debug_str     0x00006bfb      0x121 c:/develop/altera/11.1/nios2eds/bin/gnu/h-i686-mingw32/bin/../lib/gcc/nios2-elf/4.1.2/../../../../nios2-elf/lib\libc.a(lib_a-signal.o)
                                0x56d (size before relaxing)
 .debug_str     0x00006d1c       0x4d c:/develop/altera/11.1/nios2eds/bin/gnu/h-i686-mingw32/bin/../lib/gcc/nios2-elf/4.1.2/../../../../nios2-elf/lib\libc.a(lib_a-signalr.o)
                                0x508 (size before relaxing)
 .debug_str     0x00006d69       0x4e c:/develop/altera/11.1/nios2eds/bin/gnu/h-i686-mingw32/bin/../lib/gcc/nios2-elf/4.1.2/../../../../nios2-elf/lib\libc.a(lib_a-sprintf.o)
                                0x52b (size before relaxing)
 .debug_str     0x00006db7       0x5b c:/develop/altera/11.1/nios2eds/bin/gnu/h-i686-mingw32/bin/../lib/gcc/nios2-elf/4.1.2/../../../../nios2-elf/lib\libc.a(lib_a-stdio.o)
                                0x531 (size before relaxing)
 .debug_str     0x00006e12       0x42 c:/develop/altera/11.1/nios2eds/bin/gnu/h-i686-mingw32/bin/../lib/gcc/nios2-elf/4.1.2/../../../../nios2-elf/lib\libc.a(lib_a-strchr.o)
                                0x175 (size before relaxing)
 .debug_str     0x00006e54       0x3b c:/develop/altera/11.1/nios2eds/bin/gnu/h-i686-mingw32/bin/../lib/gcc/nios2-elf/4.1.2/../../../../nios2-elf/lib\libc.a(lib_a-strcmp.o)
                                0x163 (size before relaxing)
 .debug_str     0x00006e8f       0x44 c:/develop/altera/11.1/nios2eds/bin/gnu/h-i686-mingw32/bin/../lib/gcc/nios2-elf/4.1.2/../../../../nios2-elf/lib\libc.a(lib_a-strcoll.o)
                                0x165 (size before relaxing)
 .debug_str     0x00006ed3       0x42 c:/develop/altera/11.1/nios2eds/bin/gnu/h-i686-mingw32/bin/../lib/gcc/nios2-elf/4.1.2/../../../../nios2-elf/lib\libc.a(lib_a-strcpy.o)
                                0x185 (size before relaxing)
 .debug_str     0x00006f15       0x44 c:/develop/altera/11.1/nios2eds/bin/gnu/h-i686-mingw32/bin/../lib/gcc/nios2-elf/4.1.2/../../../../nios2-elf/lib\libc.a(lib_a-strerror.o)
                                0x174 (size before relaxing)
 .debug_str     0x00006f59       0x85 c:/develop/altera/11.1/nios2eds/bin/gnu/h-i686-mingw32/bin/../lib/gcc/nios2-elf/4.1.2/../../../../nios2-elf/lib\libc.a(lib_a-strftime.o)
                                0x298 (size before relaxing)
 .debug_str     0x00006fde       0x42 c:/develop/altera/11.1/nios2eds/bin/gnu/h-i686-mingw32/bin/../lib/gcc/nios2-elf/4.1.2/../../../../nios2-elf/lib\libc.a(lib_a-strlen.o)
                                0x17d (size before relaxing)
 .debug_str     0x00007020       0x44 c:/develop/altera/11.1/nios2eds/bin/gnu/h-i686-mingw32/bin/../lib/gcc/nios2-elf/4.1.2/../../../../nios2-elf/lib\libc.a(lib_a-strncmp.o)
                                0x16c (size before relaxing)
 .debug_str     0x00007064       0x44 c:/develop/altera/11.1/nios2eds/bin/gnu/h-i686-mingw32/bin/../lib/gcc/nios2-elf/4.1.2/../../../../nios2-elf/lib\libc.a(lib_a-strpbrk.o)
                                0x165 (size before relaxing)
 .debug_str     0x000070a8       0x42 c:/develop/altera/11.1/nios2eds/bin/gnu/h-i686-mingw32/bin/../lib/gcc/nios2-elf/4.1.2/../../../../nios2-elf/lib\libc.a(lib_a-strspn.o)
                                0x16a (size before relaxing)
 .debug_str     0x000070ea       0xe8 c:/develop/altera/11.1/nios2eds/bin/gnu/h-i686-mingw32/bin/../lib/gcc/nios2-elf/4.1.2/../../../../nios2-elf/lib\libc.a(lib_a-strstr.o)
                                0x224 (size before relaxing)
 .debug_str     0x000071d2      0x112 c:/develop/altera/11.1/nios2eds/bin/gnu/h-i686-mingw32/bin/../lib/gcc/nios2-elf/4.1.2/../../../../nios2-elf/lib\libc.a(lib_a-strtod.o)
                                0x621 (size before relaxing)
 .debug_str     0x000072e4       0x52 c:/develop/altera/11.1/nios2eds/bin/gnu/h-i686-mingw32/bin/../lib/gcc/nios2-elf/4.1.2/../../../../nios2-elf/lib\libc.a(lib_a-time.o)
                                0x526 (size before relaxing)
 .debug_str     0x00007336       0x48 c:/develop/altera/11.1/nios2eds/bin/gnu/h-i686-mingw32/bin/../lib/gcc/nios2-elf/4.1.2/../../../../nios2-elf/lib\libc.a(lib_a-timesr.o)
                                0x52f (size before relaxing)
 .debug_str     0x0000737e       0x7d c:/develop/altera/11.1/nios2eds/bin/gnu/h-i686-mingw32/bin/../lib/gcc/nios2-elf/4.1.2/../../../../nios2-elf/lib\libc.a(lib_a-tmpnam.o)
                                0x55c (size before relaxing)
 .debug_str     0x000073fb       0x60 c:/develop/altera/11.1/nios2eds/bin/gnu/h-i686-mingw32/bin/../lib/gcc/nios2-elf/4.1.2/../../../../nios2-elf/lib\libc.a(lib_a-tzlock.o)
                                0x17f (size before relaxing)
 .debug_str     0x0000745b       0x39 c:/develop/altera/11.1/nios2eds/bin/gnu/h-i686-mingw32/bin/../lib/gcc/nios2-elf/4.1.2/../../../../nios2-elf/lib\libc.a(lib_a-tzvars.o)
                                0x174 (size before relaxing)
 .debug_str     0x00007494       0x4c c:/develop/altera/11.1/nios2eds/bin/gnu/h-i686-mingw32/bin/../lib/gcc/nios2-elf/4.1.2/../../../../nios2-elf/lib\libc.a(lib_a-u_strerr.o)
                                 0xf0 (size before relaxing)
 .debug_str     0x000074e0       0x55 c:/develop/altera/11.1/nios2eds/bin/gnu/h-i686-mingw32/bin/../lib/gcc/nios2-elf/4.1.2/../../../../nios2-elf/lib\libc.a(lib_a-ungetc.o)
                                0x520 (size before relaxing)
 .debug_str     0x00007535      0x13d c:/develop/altera/11.1/nios2eds/bin/gnu/h-i686-mingw32/bin/../lib/gcc/nios2-elf/4.1.2/../../../../nios2-elf/lib\libc.a(lib_a-vfprintf.o)
                                0x6f8 (size before relaxing)
 .debug_str     0x00007672      0x12a c:/develop/altera/11.1/nios2eds/bin/gnu/h-i686-mingw32/bin/../lib/gcc/nios2-elf/4.1.2/../../../../nios2-elf/lib\libc.a(lib_a-vfscanf.o)
                                0x691 (size before relaxing)
 .debug_str     0x0000779c       0x4c c:/develop/altera/11.1/nios2eds/bin/gnu/h-i686-mingw32/bin/../lib/gcc/nios2-elf/4.1.2/../../../../nios2-elf/lib\libc.a(lib_a-writer.o)
                                0x50e (size before relaxing)
 .debug_str     0x000077e8       0x46 c:/develop/altera/11.1/nios2eds/bin/gnu/h-i686-mingw32/bin/../lib/gcc/nios2-elf/4.1.2/../../../../nios2-elf/lib\libc.a(lib_a-wsetup.o)
                                0x50c (size before relaxing)
 .debug_str     0x0000782e       0x7b c:/develop/altera/11.1/nios2eds/bin/gnu/h-i686-mingw32/bin/../lib/gcc/nios2-elf/4.1.2/../../../../nios2-elf/lib\libc.a(lib_a-__call_atexit.o)
                                0x54e (size before relaxing)
 .debug_str     0x000078a9       0x38 c:/develop/altera/11.1/nios2eds/bin/gnu/h-i686-mingw32/bin/../lib/gcc/nios2-elf/4.1.2/../../../../nios2-elf/lib\libc.a(lib_a-abs.o)
                                0x159 (size before relaxing)
 .debug_str     0x000078e1       0x43 c:/develop/altera/11.1/nios2eds/bin/gnu/h-i686-mingw32/bin/../lib/gcc/nios2-elf/4.1.2/../../../../nios2-elf/lib\libc.a(lib_a-closer.o)
                                0x4fe (size before relaxing)
 .debug_str     0x00007924       0x3e c:/develop/altera/11.1/nios2eds/bin/gnu/h-i686-mingw32/bin/../lib/gcc/nios2-elf/4.1.2/../../../../nios2-elf/lib\libc.a(lib_a-div.o)
                                0x16a (size before relaxing)
 .debug_str     0x00007962       0xd3 c:/develop/altera/11.1/nios2eds/bin/gnu/h-i686-mingw32/bin/../lib/gcc/nios2-elf/4.1.2/../../../../nios2-elf/lib\libc.a(lib_a-dtoa.o)
                                0x601 (size before relaxing)
 .debug_str     0x00007a35       0x48 c:/develop/altera/11.1/nios2eds/bin/gnu/h-i686-mingw32/bin/../lib/gcc/nios2-elf/4.1.2/../../../../nios2-elf/lib\libc.a(lib_a-environ.o)
                                 0xff (size before relaxing)
 .debug_str     0x00007a7d       0x47 c:/develop/altera/11.1/nios2eds/bin/gnu/h-i686-mingw32/bin/../lib/gcc/nios2-elf/4.1.2/../../../../nios2-elf/lib\libc.a(lib_a-flags.o)
                                0x501 (size before relaxing)
 .debug_str     0x00007ac4       0x5e c:/develop/altera/11.1/nios2eds/bin/gnu/h-i686-mingw32/bin/../lib/gcc/nios2-elf/4.1.2/../../../../nios2-elf/lib\libc.a(lib_a-fvwrite.o)
                                0x563 (size before relaxing)
 .debug_str     0x00007b22       0x97 c:/develop/altera/11.1/nios2eds/bin/gnu/h-i686-mingw32/bin/../lib/gcc/nios2-elf/4.1.2/../../../../nios2-elf/lib\libc.a(lib_a-gdtoa-gethex.o)
                                0x5bc (size before relaxing)
 .debug_str     0x00007bb9       0x52 c:/develop/altera/11.1/nios2eds/bin/gnu/h-i686-mingw32/bin/../lib/gcc/nios2-elf/4.1.2/../../../../nios2-elf/lib\libc.a(lib_a-gdtoa-hexnan.o)
                                0x1cf (size before relaxing)
 .debug_str     0x00007c0b       0x64 c:/develop/altera/11.1/nios2eds/bin/gnu/h-i686-mingw32/bin/../lib/gcc/nios2-elf/4.1.2/../../../../nios2-elf/lib\libc.a(lib_a-gettimeofdayr.o)
                                0x549 (size before relaxing)
 .debug_str     0x00007c6f       0x48 c:/develop/altera/11.1/nios2eds/bin/gnu/h-i686-mingw32/bin/../lib/gcc/nios2-elf/4.1.2/../../../../nios2-elf/lib\libc.a(lib_a-gettzinfo.o)
                                0x1db (size before relaxing)
 .debug_str     0x00007cb7       0x45 c:/develop/altera/11.1/nios2eds/bin/gnu/h-i686-mingw32/bin/../lib/gcc/nios2-elf/4.1.2/../../../../nios2-elf/lib\libc.a(lib_a-isattyr.o)
                                0x500 (size before relaxing)
 .debug_str     0x00007cfc       0x4d c:/develop/altera/11.1/nios2eds/bin/gnu/h-i686-mingw32/bin/../lib/gcc/nios2-elf/4.1.2/../../../../nios2-elf/lib\libc.a(lib_a-iswspace.o)
                                0x18b (size before relaxing)
 .debug_str     0x00007d49       0x3e c:/develop/altera/11.1/nios2eds/bin/gnu/h-i686-mingw32/bin/../lib/gcc/nios2-elf/4.1.2/../../../../nios2-elf/lib\libc.a(lib_a-labs.o)
                                0x15f (size before relaxing)
 .debug_str     0x00007d87       0x43 c:/develop/altera/11.1/nios2eds/bin/gnu/h-i686-mingw32/bin/../lib/gcc/nios2-elf/4.1.2/../../../../nios2-elf/lib\libc.a(lib_a-lseekr.o)
                                0x50c (size before relaxing)
 .debug_str     0x00007dca       0x4f c:/develop/altera/11.1/nios2eds/bin/gnu/h-i686-mingw32/bin/../lib/gcc/nios2-elf/4.1.2/../../../../nios2-elf/lib\libc.a(lib_a-mbrtowc.o)
                                0x531 (size before relaxing)
 .debug_str     0x00007e19       0x47 c:/develop/altera/11.1/nios2eds/bin/gnu/h-i686-mingw32/bin/../lib/gcc/nios2-elf/4.1.2/../../../../nios2-elf/lib\libc.a(lib_a-mbtowc_r.o)
                                0x522 (size before relaxing)
 .debug_str     0x00007e60       0x4d c:/develop/altera/11.1/nios2eds/bin/gnu/h-i686-mingw32/bin/../lib/gcc/nios2-elf/4.1.2/../../../../nios2-elf/lib\libc.a(lib_a-memmove.o)
                                0x19d (size before relaxing)
 .debug_str     0x00007ead       0xf8 c:/develop/altera/11.1/nios2eds/bin/gnu/h-i686-mingw32/bin/../lib/gcc/nios2-elf/4.1.2/../../../../nios2-elf/lib\libc.a(lib_a-mprec.o)
                                0x60e (size before relaxing)
 .debug_str     0x00007fa5       0x45 c:/develop/altera/11.1/nios2eds/bin/gnu/h-i686-mingw32/bin/../lib/gcc/nios2-elf/4.1.2/../../../../nios2-elf/lib\libc.a(lib_a-putc.o)
                                0x512 (size before relaxing)
 .debug_str     0x00007fea       0x41 c:/develop/altera/11.1/nios2eds/bin/gnu/h-i686-mingw32/bin/../lib/gcc/nios2-elf/4.1.2/../../../../nios2-elf/lib\libc.a(lib_a-readr.o)
                                0x50c (size before relaxing)
 .debug_str     0x0000802b       0x46 c:/develop/altera/11.1/nios2eds/bin/gnu/h-i686-mingw32/bin/../lib/gcc/nios2-elf/4.1.2/../../../../nios2-elf/lib\libc.a(lib_a-s_isinfd.o)
                                0x18a (size before relaxing)
 .debug_str     0x00008071       0x4f c:/develop/altera/11.1/nios2eds/bin/gnu/h-i686-mingw32/bin/../lib/gcc/nios2-elf/4.1.2/../../../../nios2-elf/lib\libc.a(lib_a-sccl.o)
                                0x16f (size before relaxing)
 .debug_str     0x000080c0       0x40 c:/develop/altera/11.1/nios2eds/bin/gnu/h-i686-mingw32/bin/../lib/gcc/nios2-elf/4.1.2/../../../../nios2-elf/lib\libc.a(lib_a-sf_nan.o)
                                0x181 (size before relaxing)
 .debug_str     0x00008100       0x51 c:/develop/altera/11.1/nios2eds/bin/gnu/h-i686-mingw32/bin/../lib/gcc/nios2-elf/4.1.2/../../../../nios2-elf/lib\libc.a(lib_a-snprintf.o)
                                0x53a (size before relaxing)
 .debug_str     0x00008151       0x5a c:/develop/altera/11.1/nios2eds/bin/gnu/h-i686-mingw32/bin/../lib/gcc/nios2-elf/4.1.2/../../../../nios2-elf/lib\libc.a(lib_a-strtol.o)
                                0x53e (size before relaxing)
 .debug_str     0x000081ab       0x49 c:/develop/altera/11.1/nios2eds/bin/gnu/h-i686-mingw32/bin/../lib/gcc/nios2-elf/4.1.2/../../../../nios2-elf/lib\libc.a(lib_a-strtoll_r.o)
                                0x52f (size before relaxing)
 .debug_str     0x000081f4       0x4f c:/develop/altera/11.1/nios2eds/bin/gnu/h-i686-mingw32/bin/../lib/gcc/nios2-elf/4.1.2/../../../../nios2-elf/lib\libc.a(lib_a-strtoul.o)
                                0x541 (size before relaxing)
 .debug_str     0x00008243       0x4b c:/develop/altera/11.1/nios2eds/bin/gnu/h-i686-mingw32/bin/../lib/gcc/nios2-elf/4.1.2/../../../../nios2-elf/lib\libc.a(lib_a-strtoull_r.o)
                                0x531 (size before relaxing)
 .debug_str     0x0000828e       0x4a c:/develop/altera/11.1/nios2eds/bin/gnu/h-i686-mingw32/bin/../lib/gcc/nios2-elf/4.1.2/../../../../nios2-elf/lib\libc.a(lib_a-wbuf.o)
                                0x510 (size before relaxing)
 .debug_str     0x000082d8       0x19 c:/develop/altera/11.1/nios2eds/bin/gnu/h-i686-mingw32/bin/../lib/gcc/nios2-elf/4.1.2/../../../../nios2-elf/lib\libc.a(lib_a-callocr.o)
                                0x542 (size before relaxing)
 .debug_str     0x000082f1       0x35 c:/develop/altera/11.1/nios2eds/bin/gnu/h-i686-mingw32/bin/../lib/gcc/nios2-elf/4.1.2\libgcc.a(_udivdi3.o)
                                0x1f7 (size before relaxing)
 .debug_str     0x00008326        0xa c:/develop/altera/11.1/nios2eds/bin/gnu/h-i686-mingw32/bin/../lib/gcc/nios2-elf/4.1.2\libgcc.a(_umoddi3.o)
                                0x1f7 (size before relaxing)
 .debug_str     0x00008330       0x2c c:/develop/altera/11.1/nios2eds/bin/gnu/h-i686-mingw32/bin/../lib/gcc/nios2-elf/4.1.2\libgcc.a(_ne_sf.o)
                                0x1f8 (size before relaxing)
 .debug_str     0x0000835c        0x8 c:/develop/altera/11.1/nios2eds/bin/gnu/h-i686-mingw32/bin/../lib/gcc/nios2-elf/4.1.2\libgcc.a(_gt_sf.o)
                                0x1f8 (size before relaxing)
 .debug_str     0x00008364        0x8 c:/develop/altera/11.1/nios2eds/bin/gnu/h-i686-mingw32/bin/../lib/gcc/nios2-elf/4.1.2\libgcc.a(_lt_sf.o)
                                0x1f8 (size before relaxing)
 .debug_str     0x0000836c       0x14 c:/develop/altera/11.1/nios2eds/bin/gnu/h-i686-mingw32/bin/../lib/gcc/nios2-elf/4.1.2\libgcc.a(_df_to_sf.o)
                                0x1fe (size before relaxing)
 .debug_str     0x00008380        0xb c:/develop/altera/11.1/nios2eds/bin/gnu/h-i686-mingw32/bin/../lib/gcc/nios2-elf/4.1.2\libgcc.a(_unpack_sf.o)
                                0x1e2 (size before relaxing)
 .debug_str     0x0000838b       0x10 c:/develop/altera/11.1/nios2eds/bin/gnu/h-i686-mingw32/bin/../lib/gcc/nios2-elf/4.1.2\libgcc.a(_fpcmp_parts_sf.o)
                                0x1c6 (size before relaxing)
 .debug_str     0x0000839b        0xa c:/develop/altera/11.1/nios2eds/bin/gnu/h-i686-mingw32/bin/../lib/gcc/nios2-elf/4.1.2\libgcc.a(_make_sf.o)
                                0x1b9 (size before relaxing)
 .debug_str     0x000083a5        0x9 c:/develop/altera/11.1/nios2eds/bin/gnu/h-i686-mingw32/bin/../lib/gcc/nios2-elf/4.1.2\libgcc.a(_pack_sf.o)
                                0x200 (size before relaxing)
 .debug_str     0x000083ae       0x8e ../Cineraria_DE0_HAL_bsp/\libhal_bsp.a(alt_close.o)
                                0x1c9 (size before relaxing)
 .debug_str     0x0000843c       0x50 ../Cineraria_DE0_HAL_bsp/\libhal_bsp.a(alt_dev.o)
                                0x2c3 (size before relaxing)
 .debug_str     0x0000848c       0x2f ../Cineraria_DE0_HAL_bsp/\libhal_bsp.a(alt_env_lock.o)
                                0x4a3 (size before relaxing)
 .debug_str     0x000084bb       0x14 ../Cineraria_DE0_HAL_bsp/\libhal_bsp.a(alt_errno.o)
                                0x103 (size before relaxing)
 .debug_str     0x000084cf       0x2a ../Cineraria_DE0_HAL_bsp/\libhal_bsp.a(alt_exit.o)
                                0x10f (size before relaxing)
 .debug_str     0x000084f9       0x31 ../Cineraria_DE0_HAL_bsp/\libhal_bsp.a(alt_fs_reg.o)
                                0x1c7 (size before relaxing)
 .debug_str     0x0000852a       0x14 ../Cineraria_DE0_HAL_bsp/\libhal_bsp.a(alt_fstat.o)
                                0x2aa (size before relaxing)
 .debug_str     0x0000853e       0x1c ../Cineraria_DE0_HAL_bsp/\libhal_bsp.a(alt_getpid.o)
                                 0x72 (size before relaxing)
 .debug_str     0x0000855a       0x96 ../Cineraria_DE0_HAL_bsp/\libhal_bsp.a(alt_gettod.o)
                                0x1df (size before relaxing)
 .debug_str     0x000085f0       0x1c ../Cineraria_DE0_HAL_bsp/\libhal_bsp.a(alt_isatty.o)
                                0x2b2 (size before relaxing)
 .debug_str     0x0000860c       0x18 ../Cineraria_DE0_HAL_bsp/\libhal_bsp.a(alt_kill.o)
                                0x11c (size before relaxing)
 .debug_str     0x00008624       0x14 ../Cineraria_DE0_HAL_bsp/\libhal_bsp.a(alt_lseek.o)
                                0x1cf (size before relaxing)
 .debug_str     0x00008638       0x44 ../Cineraria_DE0_HAL_bsp/\libhal_bsp.a(alt_main.o)
                                0x15b (size before relaxing)
 .debug_str     0x0000867c       0x38 ../Cineraria_DE0_HAL_bsp/\libhal_bsp.a(alt_malloc_lock.o)
                                0x4ac (size before relaxing)
 .debug_str     0x000086b4       0x29 ../Cineraria_DE0_HAL_bsp/\libhal_bsp.a(alt_open.o)
                                0x209 (size before relaxing)
 .debug_str     0x000086dd       0x13 ../Cineraria_DE0_HAL_bsp/\libhal_bsp.a(alt_read.o)
                                0x2b5 (size before relaxing)
 .debug_str     0x000086f0       0x28 ../Cineraria_DE0_HAL_bsp/\libhal_bsp.a(alt_release_fd.o)
                                0x1a6 (size before relaxing)
 .debug_str     0x00008718       0x9d ../Cineraria_DE0_HAL_bsp/\libhal_bsp.a(alt_sbrk.o)
                                0x192 (size before relaxing)
 .debug_str     0x000087b5       0x78 ../Cineraria_DE0_HAL_bsp/\libhal_bsp.a(alt_tick.o)
                                0x210 (size before relaxing)
 .debug_str     0x0000882d       0x1a ../Cineraria_DE0_HAL_bsp/\libhal_bsp.a(alt_times.o)
                                0x192 (size before relaxing)
 .debug_str     0x00008847       0x14 ../Cineraria_DE0_HAL_bsp/\libhal_bsp.a(alt_write.o)
                                0x2b6 (size before relaxing)
 .debug_str     0x0000885b      0x3ef ../Cineraria_DE0_HAL_bsp/\libhal_bsp.a(alt_sys_init.o)
                                0x624 (size before relaxing)
 .debug_str     0x00008c4a      0x19f ../Cineraria_DE0_HAL_bsp/\libhal_bsp.a(altera_avalon_cfi_flash.o)
                                0x4ed (size before relaxing)
 .debug_str     0x00008de9      0x2c5 ../Cineraria_DE0_HAL_bsp/\libhal_bsp.a(altera_avalon_cfi_flash_table.o)
                                0x613 (size before relaxing)
 .debug_str     0x000090ae      0x1aa ../Cineraria_DE0_HAL_bsp/\libhal_bsp.a(altera_avalon_epcs_flash_controller.o)
                                0x4e7 (size before relaxing)
 .debug_str     0x00009258       0xac ../Cineraria_DE0_HAL_bsp/\libhal_bsp.a(altera_avalon_jtag_uart_fd.o)
                                0x362 (size before relaxing)
 .debug_str     0x00009304       0xb4 ../Cineraria_DE0_HAL_bsp/\libhal_bsp.a(altera_avalon_jtag_uart_init.o)
                                0x2f6 (size before relaxing)
 .debug_str     0x000093b8       0x4a ../Cineraria_DE0_HAL_bsp/\libhal_bsp.a(altera_avalon_jtag_uart_ioctl.o)
                                0x251 (size before relaxing)
 .debug_str     0x00009402       0x48 ../Cineraria_DE0_HAL_bsp/\libhal_bsp.a(altera_avalon_jtag_uart_read.o)
                                0x2a6 (size before relaxing)
 .debug_str     0x0000944a       0x4a ../Cineraria_DE0_HAL_bsp/\libhal_bsp.a(altera_avalon_jtag_uart_write.o)
                                0x2a7 (size before relaxing)
 .debug_str     0x00009494       0x6d ../Cineraria_DE0_HAL_bsp/\libhal_bsp.a(altera_avalon_timer_sc.o)
                                0x202 (size before relaxing)
 .debug_str     0x00009501       0x77 ../Cineraria_DE0_HAL_bsp/\libhal_bsp.a(altera_avalon_uart_fd.o)
                                0x2a6 (size before relaxing)
 .debug_str     0x00009578       0xa0 ../Cineraria_DE0_HAL_bsp/\libhal_bsp.a(altera_avalon_uart_init.o)
                                0x275 (size before relaxing)
 .debug_str     0x00009618       0x4f ../Cineraria_DE0_HAL_bsp/\libhal_bsp.a(altera_avalon_uart_read.o)
                                0x256 (size before relaxing)
 .debug_str     0x00009667       0x49 ../Cineraria_DE0_HAL_bsp/\libhal_bsp.a(altera_avalon_uart_write.o)
                                0x24a (size before relaxing)
 .debug_str     0x000096b0      0x11f ../Cineraria_DE0_HAL_bsp/\libhal_bsp.a(epcs_commands.o)
                                0x235 (size before relaxing)
 .debug_str     0x000097cf       0x39 ../Cineraria_DE0_HAL_bsp/\libhal_bsp.a(alt_alarm_start.o)
                                0x23c (size before relaxing)
 .debug_str     0x00009808       0x2c ../Cineraria_DE0_HAL_bsp/\libhal_bsp.a(alt_dcache_flush.o)
                                0x119 (size before relaxing)
 .debug_str     0x00009834       0x42 ../Cineraria_DE0_HAL_bsp/\libhal_bsp.a(alt_dev_llist_insert.o)
                                0x18a (size before relaxing)
 .debug_str     0x00009876       0x3c ../Cineraria_DE0_HAL_bsp/\libhal_bsp.a(alt_do_ctors.o)
                                 0xa3 (size before relaxing)
 .debug_str     0x000098b2       0x4c ../Cineraria_DE0_HAL_bsp/\libhal_bsp.a(alt_do_dtors.o)
                                 0xa2 (size before relaxing)
 .debug_str     0x000098fe       0x24 ../Cineraria_DE0_HAL_bsp/\libhal_bsp.a(alt_find_dev.o)
                                0x1aa (size before relaxing)
 .debug_str     0x00009922       0x26 ../Cineraria_DE0_HAL_bsp/\libhal_bsp.a(alt_find_file.o)
                                0x1b8 (size before relaxing)
 .debug_str     0x00009948       0x3f ../Cineraria_DE0_HAL_bsp/\libhal_bsp.a(alt_flash_dev.o)
                                0x2ad (size before relaxing)
 .debug_str     0x00009987       0x30 ../Cineraria_DE0_HAL_bsp/\libhal_bsp.a(alt_get_fd.o)
                                0x1da (size before relaxing)
 .debug_str     0x000099b7       0xbd ../Cineraria_DE0_HAL_bsp/\libhal_bsp.a(alt_iic.o)
                                0x1fc (size before relaxing)
 .debug_str     0x00009a74       0x4c ../Cineraria_DE0_HAL_bsp/\libhal_bsp.a(alt_iic_isr_register.o)
                                0x1a6 (size before relaxing)
 .debug_str     0x00009ac0       0x56 ../Cineraria_DE0_HAL_bsp/\libhal_bsp.a(alt_io_redirect.o)
                                0x2d4 (size before relaxing)
 .debug_str     0x00009b16       0x3a ../Cineraria_DE0_HAL_bsp/\libhal_bsp.a(alt_irq_handler.o)
                                0x155 (size before relaxing)
 .debug_str     0x00009b50       0x17 ../Cineraria_DE0_HAL_bsp/\libhal_bsp.a(alt_irq_vars.o)
                                0x10d (size before relaxing)
 .debug_str     0x00009b67       0x31 ../Cineraria_DE0_HAL_bsp/\libhal_bsp.a(altera_nios2_irq.o)
                                0x110 (size before relaxing)
 .debug_str     0x00009b98       0x86 ../Cineraria_DE0_HAL_bsp/\libhal_bsp.a(altera_avalon_cfi_flash_amd.o)
                                0x3ed (size before relaxing)
 .debug_str     0x00009c1e       0x80 ../Cineraria_DE0_HAL_bsp/\libhal_bsp.a(altera_avalon_cfi_flash_intel.o)
                                0x3ea (size before relaxing)
 .debug_str     0x00009c9e       0xa5 ../Cineraria_DE0_HAL_bsp/\libhal_bsp.a(altera_avalon_spi.o)
                                0x19a (size before relaxing)
 .debug_str     0x00009d43       0x1c ../Cineraria_DE0_HAL_bsp/\libhal_bsp.a(alt_usleep.o)
                                0x106 (size before relaxing)
 .debug_str     0x00009d5f       0x42 ../Cineraria_DE0_HAL_bsp/\libhal_bsp.a(alt_busy_sleep.o)
                                0x129 (size before relaxing)
 .debug_str     0x00009da1       0x3b c:/develop/altera/11.1/nios2eds/bin/gnu/h-i686-mingw32/bin/../lib/gcc/nios2-elf/4.1.2/../../../../nios2-elf/lib\libc.a(lib_a-atexit.o)
                                0x1bf (size before relaxing)
 .debug_str     0x00009ddc       0x51 c:/develop/altera/11.1/nios2eds/bin/gnu/h-i686-mingw32/bin/../lib/gcc/nios2-elf/4.1.2/../../../../nios2-elf/lib\libc.a(lib_a-__atexit.o)
                                0x524 (size before relaxing)

.debug_loc      0x00000000    0x4282a
 *(.debug_loc)
 .debug_loc     0x00000000     0x2d4c obj/default/lua/lapi.o
 .debug_loc     0x00002d4c     0x26de obj/default/lua/lauxlib.o
 .debug_loc     0x0000542a      0xf71 obj/default/lua/lbaselib.o
 .debug_loc     0x0000639b      0x775 obj/default/lua/lbitlib.o
 .debug_loc     0x00006b10     0x22dd obj/default/lua/lcode.o
 .debug_loc     0x00008ded      0x4c8 obj/default/lua/lcorolib.o
 .debug_loc     0x000092b5      0xe5a obj/default/lua/ldblib.o
 .debug_loc     0x0000a10f     0x1244 obj/default/lua/ldebug.o
 .debug_loc     0x0000b353     0x13fc obj/default/lua/ldo.o
 .debug_loc     0x0000c74f      0x544 obj/default/lua/ldump.o
 .debug_loc     0x0000cc93      0x47a obj/default/lua/lfunc.o
 .debug_loc     0x0000d10d     0x1685 obj/default/lua/lgc.o
 .debug_loc     0x0000e792       0x66 obj/default/lua/linit.o
 .debug_loc     0x0000e7f8     0x1631 obj/default/lua/liolib.o
 .debug_loc     0x0000fe29      0x9bd obj/default/lua/llex.o
 .debug_loc     0x000107e6      0x94d obj/default/lua/lmathlib.o
 .debug_loc     0x00011133      0x2e1 obj/default/lua/lmem.o
 .debug_loc     0x00011414      0xdcd obj/default/lua/loadlib.o
 .debug_loc     0x000121e1      0x9f5 obj/default/lua/lobject.o
 .debug_loc     0x00012bd6      0x69c obj/default/lua/loslib.o
 .debug_loc     0x00013272     0x2953 obj/default/lua/lparser.o
 .debug_loc     0x00015bc5      0x426 obj/default/lua/lstate.o
 .debug_loc     0x00015feb      0x39d obj/default/lua/lstring.o
 .debug_loc     0x00016388     0x20bb obj/default/lua/lstrlib.o
 .debug_loc     0x00018443     0x10be obj/default/lua/ltable.o
 .debug_loc     0x00019501      0x837 obj/default/lua/ltablib.o
 .debug_loc     0x00019d38      0x16d obj/default/lua/ltm.o
 .debug_loc     0x00019ea5      0x701 obj/default/lua/lundump.o
 .debug_loc     0x0001a5a6     0x4a13 obj/default/lua/lvm.o
 .debug_loc     0x0001efb9      0x246 obj/default/lua/lzio.o
 .debug_loc     0x0001f1ff       0x93 obj/default/min.o
 .debug_loc     0x0001f292     0x3e5e obj/default/mmcfs/fatfs/ff.o
 .debug_loc     0x000230f0      0x894 obj/default/mmcfs/fatfs/mmcbb.o
 .debug_loc     0x00023984      0x106 obj/default/mmcfs/fatfs/option/cc932.o
 .debug_loc     0x00023a8a      0x11c obj/default/mmcfs/mmc_spi.o
 .debug_loc     0x00023ba6      0x319 obj/default/mmcfs/mmcfs.o
 .debug_loc     0x00023ebf      0x1ae c:/develop/altera/11.1/nios2eds/bin/gnu/h-i686-mingw32/bin/../lib/gcc/nios2-elf/4.1.2/../../../../nios2-elf/lib\libm.a(lib_a-s_atan.o)
 .debug_loc     0x0002406d      0x216 c:/develop/altera/11.1/nios2eds/bin/gnu/h-i686-mingw32/bin/../lib/gcc/nios2-elf/4.1.2/../../../../nios2-elf/lib\libm.a(lib_a-s_ceil.o)
 .debug_loc     0x00024283       0x90 c:/develop/altera/11.1/nios2eds/bin/gnu/h-i686-mingw32/bin/../lib/gcc/nios2-elf/4.1.2/../../../../nios2-elf/lib\libm.a(lib_a-s_cos.o)
 .debug_loc     0x00024313      0x221 c:/develop/altera/11.1/nios2eds/bin/gnu/h-i686-mingw32/bin/../lib/gcc/nios2-elf/4.1.2/../../../../nios2-elf/lib\libm.a(lib_a-s_floor.o)
 .debug_loc     0x00024534       0xe7 c:/develop/altera/11.1/nios2eds/bin/gnu/h-i686-mingw32/bin/../lib/gcc/nios2-elf/4.1.2/../../../../nios2-elf/lib\libm.a(lib_a-s_frexp.o)
 .debug_loc     0x0002461b       0xdb c:/develop/altera/11.1/nios2eds/bin/gnu/h-i686-mingw32/bin/../lib/gcc/nios2-elf/4.1.2/../../../../nios2-elf/lib\libm.a(lib_a-s_ldexp.o)
 .debug_loc     0x000246f6      0x1a6 c:/develop/altera/11.1/nios2eds/bin/gnu/h-i686-mingw32/bin/../lib/gcc/nios2-elf/4.1.2/../../../../nios2-elf/lib\libm.a(lib_a-s_modf.o)
 .debug_loc     0x0002489c      0x228 c:/develop/altera/11.1/nios2eds/bin/gnu/h-i686-mingw32/bin/../lib/gcc/nios2-elf/4.1.2/../../../../nios2-elf/lib\libm.a(lib_a-s_scalbn.o)
 .debug_loc     0x00024ac4       0x90 c:/develop/altera/11.1/nios2eds/bin/gnu/h-i686-mingw32/bin/../lib/gcc/nios2-elf/4.1.2/../../../../nios2-elf/lib\libm.a(lib_a-s_sin.o)
 .debug_loc     0x00024b54       0xa0 c:/develop/altera/11.1/nios2eds/bin/gnu/h-i686-mingw32/bin/../lib/gcc/nios2-elf/4.1.2/../../../../nios2-elf/lib\libm.a(lib_a-s_tan.o)
 .debug_loc     0x00024bf4      0x236 c:/develop/altera/11.1/nios2eds/bin/gnu/h-i686-mingw32/bin/../lib/gcc/nios2-elf/4.1.2/../../../../nios2-elf/lib\libm.a(lib_a-s_tanh.o)
 .debug_loc     0x00024e2a       0x8f c:/develop/altera/11.1/nios2eds/bin/gnu/h-i686-mingw32/bin/../lib/gcc/nios2-elf/4.1.2/../../../../nios2-elf/lib\libm.a(lib_a-w_acos.o)
 .debug_loc     0x00024eb9       0x8f c:/develop/altera/11.1/nios2eds/bin/gnu/h-i686-mingw32/bin/../lib/gcc/nios2-elf/4.1.2/../../../../nios2-elf/lib\libm.a(lib_a-w_asin.o)
 .debug_loc     0x00024f48       0x30 c:/develop/altera/11.1/nios2eds/bin/gnu/h-i686-mingw32/bin/../lib/gcc/nios2-elf/4.1.2/../../../../nios2-elf/lib\libm.a(lib_a-w_atan2.o)
 .debug_loc     0x00024f78       0x8f c:/develop/altera/11.1/nios2eds/bin/gnu/h-i686-mingw32/bin/../lib/gcc/nios2-elf/4.1.2/../../../../nios2-elf/lib\libm.a(lib_a-w_cosh.o)
 .debug_loc     0x00025007       0x8f c:/develop/altera/11.1/nios2eds/bin/gnu/h-i686-mingw32/bin/../lib/gcc/nios2-elf/4.1.2/../../../../nios2-elf/lib\libm.a(lib_a-w_exp.o)
 .debug_loc     0x00025096       0xe8 c:/develop/altera/11.1/nios2eds/bin/gnu/h-i686-mingw32/bin/../lib/gcc/nios2-elf/4.1.2/../../../../nios2-elf/lib\libm.a(lib_a-w_fmod.o)
 .debug_loc     0x0002517e       0x9f c:/develop/altera/11.1/nios2eds/bin/gnu/h-i686-mingw32/bin/../lib/gcc/nios2-elf/4.1.2/../../../../nios2-elf/lib\libm.a(lib_a-w_log.o)
 .debug_loc     0x0002521d       0x9f c:/develop/altera/11.1/nios2eds/bin/gnu/h-i686-mingw32/bin/../lib/gcc/nios2-elf/4.1.2/../../../../nios2-elf/lib\libm.a(lib_a-w_log10.o)
 .debug_loc     0x000252bc       0xf8 c:/develop/altera/11.1/nios2eds/bin/gnu/h-i686-mingw32/bin/../lib/gcc/nios2-elf/4.1.2/../../../../nios2-elf/lib\libm.a(lib_a-w_pow.o)
 .debug_loc     0x000253b4       0x9f c:/develop/altera/11.1/nios2eds/bin/gnu/h-i686-mingw32/bin/../lib/gcc/nios2-elf/4.1.2/../../../../nios2-elf/lib\libm.a(lib_a-w_sinh.o)
 .debug_loc     0x00025453       0x9f c:/develop/altera/11.1/nios2eds/bin/gnu/h-i686-mingw32/bin/../lib/gcc/nios2-elf/4.1.2/../../../../nios2-elf/lib\libm.a(lib_a-w_sqrt.o)
 .debug_loc     0x000254f2      0x143 c:/develop/altera/11.1/nios2eds/bin/gnu/h-i686-mingw32/bin/../lib/gcc/nios2-elf/4.1.2/../../../../nios2-elf/lib\libm.a(lib_a-e_acos.o)
 .debug_loc     0x00025635      0x20a c:/develop/altera/11.1/nios2eds/bin/gnu/h-i686-mingw32/bin/../lib/gcc/nios2-elf/4.1.2/../../../../nios2-elf/lib\libm.a(lib_a-e_asin.o)
 .debug_loc     0x0002583f      0x453 c:/develop/altera/11.1/nios2eds/bin/gnu/h-i686-mingw32/bin/../lib/gcc/nios2-elf/4.1.2/../../../../nios2-elf/lib\libm.a(lib_a-e_atan2.o)
 .debug_loc     0x00025c92      0x1ee c:/develop/altera/11.1/nios2eds/bin/gnu/h-i686-mingw32/bin/../lib/gcc/nios2-elf/4.1.2/../../../../nios2-elf/lib\libm.a(lib_a-e_cosh.o)
 .debug_loc     0x00025e80      0x20d c:/develop/altera/11.1/nios2eds/bin/gnu/h-i686-mingw32/bin/../lib/gcc/nios2-elf/4.1.2/../../../../nios2-elf/lib\libm.a(lib_a-e_exp.o)
 .debug_loc     0x0002608d      0x645 c:/develop/altera/11.1/nios2eds/bin/gnu/h-i686-mingw32/bin/../lib/gcc/nios2-elf/4.1.2/../../../../nios2-elf/lib\libm.a(lib_a-e_fmod.o)
 .debug_loc     0x000266d2      0x379 c:/develop/altera/11.1/nios2eds/bin/gnu/h-i686-mingw32/bin/../lib/gcc/nios2-elf/4.1.2/../../../../nios2-elf/lib\libm.a(lib_a-e_log.o)
 .debug_loc     0x00026a4b      0x19f c:/develop/altera/11.1/nios2eds/bin/gnu/h-i686-mingw32/bin/../lib/gcc/nios2-elf/4.1.2/../../../../nios2-elf/lib\libm.a(lib_a-e_log10.o)
 .debug_loc     0x00026bea     0x1125 c:/develop/altera/11.1/nios2eds/bin/gnu/h-i686-mingw32/bin/../lib/gcc/nios2-elf/4.1.2/../../../../nios2-elf/lib\libm.a(lib_a-e_pow.o)
 .debug_loc     0x00027d0f      0x33c c:/develop/altera/11.1/nios2eds/bin/gnu/h-i686-mingw32/bin/../lib/gcc/nios2-elf/4.1.2/../../../../nios2-elf/lib\libm.a(lib_a-e_rem_pio2.o)
 .debug_loc     0x0002804b      0x1f0 c:/develop/altera/11.1/nios2eds/bin/gnu/h-i686-mingw32/bin/../lib/gcc/nios2-elf/4.1.2/../../../../nios2-elf/lib\libm.a(lib_a-e_sinh.o)
 .debug_loc     0x0002823b      0x41e c:/develop/altera/11.1/nios2eds/bin/gnu/h-i686-mingw32/bin/../lib/gcc/nios2-elf/4.1.2/../../../../nios2-elf/lib\libm.a(lib_a-e_sqrt.o)
 .debug_loc     0x00028659      0x18c c:/develop/altera/11.1/nios2eds/bin/gnu/h-i686-mingw32/bin/../lib/gcc/nios2-elf/4.1.2/../../../../nios2-elf/lib\libm.a(lib_a-k_cos.o)
 .debug_loc     0x000287e5      0xc76 c:/develop/altera/11.1/nios2eds/bin/gnu/h-i686-mingw32/bin/../lib/gcc/nios2-elf/4.1.2/../../../../nios2-elf/lib\libm.a(lib_a-k_rem_pio2.o)
 .debug_loc     0x0002945b       0xbe c:/develop/altera/11.1/nios2eds/bin/gnu/h-i686-mingw32/bin/../lib/gcc/nios2-elf/4.1.2/../../../../nios2-elf/lib\libm.a(lib_a-k_sin.o)
 .debug_loc     0x00029519      0x181 c:/develop/altera/11.1/nios2eds/bin/gnu/h-i686-mingw32/bin/../lib/gcc/nios2-elf/4.1.2/../../../../nios2-elf/lib\libm.a(lib_a-k_tan.o)
 .debug_loc     0x0002969a      0x31a c:/develop/altera/11.1/nios2eds/bin/gnu/h-i686-mingw32/bin/../lib/gcc/nios2-elf/4.1.2/../../../../nios2-elf/lib\libm.a(lib_a-s_expm1.o)
 .debug_loc     0x000299b4       0x18 c:/develop/altera/11.1/nios2eds/bin/gnu/h-i686-mingw32/bin/../lib/gcc/nios2-elf/4.1.2/../../../../nios2-elf/lib\libm.a(lib_a-s_isnand.o)
 .debug_loc     0x000299cc      0x23c c:/develop/altera/11.1/nios2eds/bin/gnu/h-i686-mingw32/bin/../lib/gcc/nios2-elf/4.1.2/../../../../nios2-elf/lib\libm.a(lib_a-s_rint.o)
 .debug_loc     0x00029c08       0x87 c:/develop/altera/11.1/nios2eds/bin/gnu/h-i686-mingw32/bin/../lib/gcc/nios2-elf/4.1.2\libgcc.a(_fixunsdfsi.o)
 .debug_loc     0x00029c8f      0x47a c:/develop/altera/11.1/nios2eds/bin/gnu/h-i686-mingw32/bin/../lib/gcc/nios2-elf/4.1.2\libgcc.a(_addsub_df.o)
 .debug_loc     0x0002a109      0x3b4 c:/develop/altera/11.1/nios2eds/bin/gnu/h-i686-mingw32/bin/../lib/gcc/nios2-elf/4.1.2\libgcc.a(_mul_df.o)
 .debug_loc     0x0002a4bd      0x1df c:/develop/altera/11.1/nios2eds/bin/gnu/h-i686-mingw32/bin/../lib/gcc/nios2-elf/4.1.2\libgcc.a(_div_df.o)
 .debug_loc     0x0002a69c       0x70 c:/develop/altera/11.1/nios2eds/bin/gnu/h-i686-mingw32/bin/../lib/gcc/nios2-elf/4.1.2\libgcc.a(_eq_df.o)
 .debug_loc     0x0002a70c       0x70 c:/develop/altera/11.1/nios2eds/bin/gnu/h-i686-mingw32/bin/../lib/gcc/nios2-elf/4.1.2\libgcc.a(_ne_df.o)
 .debug_loc     0x0002a77c       0x70 c:/develop/altera/11.1/nios2eds/bin/gnu/h-i686-mingw32/bin/../lib/gcc/nios2-elf/4.1.2\libgcc.a(_gt_df.o)
 .debug_loc     0x0002a7ec       0x70 c:/develop/altera/11.1/nios2eds/bin/gnu/h-i686-mingw32/bin/../lib/gcc/nios2-elf/4.1.2\libgcc.a(_ge_df.o)
 .debug_loc     0x0002a85c       0x70 c:/develop/altera/11.1/nios2eds/bin/gnu/h-i686-mingw32/bin/../lib/gcc/nios2-elf/4.1.2\libgcc.a(_lt_df.o)
 .debug_loc     0x0002a8cc       0x70 c:/develop/altera/11.1/nios2eds/bin/gnu/h-i686-mingw32/bin/../lib/gcc/nios2-elf/4.1.2\libgcc.a(_le_df.o)
 .debug_loc     0x0002a93c       0x9a c:/develop/altera/11.1/nios2eds/bin/gnu/h-i686-mingw32/bin/../lib/gcc/nios2-elf/4.1.2\libgcc.a(_si_to_df.o)
 .debug_loc     0x0002a9d6       0x8b c:/develop/altera/11.1/nios2eds/bin/gnu/h-i686-mingw32/bin/../lib/gcc/nios2-elf/4.1.2\libgcc.a(_df_to_si.o)
 .debug_loc     0x0002aa61       0x5b c:/develop/altera/11.1/nios2eds/bin/gnu/h-i686-mingw32/bin/../lib/gcc/nios2-elf/4.1.2\libgcc.a(_usi_to_df.o)
 .debug_loc     0x0002aabc      0x1d2 c:/develop/altera/11.1/nios2eds/bin/gnu/h-i686-mingw32/bin/../lib/gcc/nios2-elf/4.1.2\libgcc.a(lib2-divmod.o)
 .debug_loc     0x0002ac8e       0xc4 c:/develop/altera/11.1/nios2eds/bin/gnu/h-i686-mingw32/bin/../lib/gcc/nios2-elf/4.1.2\libgcc.a(_muldi3.o)
 .debug_loc     0x0002ad52       0x1e c:/develop/altera/11.1/nios2eds/bin/gnu/h-i686-mingw32/bin/../lib/gcc/nios2-elf/4.1.2\libgcc.a(_clzsi2.o)
 .debug_loc     0x0002ad70      0x184 c:/develop/altera/11.1/nios2eds/bin/gnu/h-i686-mingw32/bin/../lib/gcc/nios2-elf/4.1.2\libgcc.a(_pack_df.o)
 .debug_loc     0x0002aef4       0xe5 c:/develop/altera/11.1/nios2eds/bin/gnu/h-i686-mingw32/bin/../lib/gcc/nios2-elf/4.1.2\libgcc.a(_unpack_df.o)
 .debug_loc     0x0002afd9       0x1f c:/develop/altera/11.1/nios2eds/bin/gnu/h-i686-mingw32/bin/../lib/gcc/nios2-elf/4.1.2/../../../../nios2-elf/lib\libc.a(lib_a-abort.o)
 .debug_loc     0x0002aff8       0x3d c:/develop/altera/11.1/nios2eds/bin/gnu/h-i686-mingw32/bin/../lib/gcc/nios2-elf/4.1.2/../../../../nios2-elf/lib\libc.a(lib_a-clock.o)
 .debug_loc     0x0002b035       0x45 c:/develop/altera/11.1/nios2eds/bin/gnu/h-i686-mingw32/bin/../lib/gcc/nios2-elf/4.1.2/../../../../nios2-elf/lib\libc.a(lib_a-difftime.o)
 .debug_loc     0x0002b07a       0x3d c:/develop/altera/11.1/nios2eds/bin/gnu/h-i686-mingw32/bin/../lib/gcc/nios2-elf/4.1.2/../../../../nios2-elf/lib\libc.a(lib_a-exit.o)
 .debug_loc     0x0002b0b7       0xe4 c:/develop/altera/11.1/nios2eds/bin/gnu/h-i686-mingw32/bin/../lib/gcc/nios2-elf/4.1.2/../../../../nios2-elf/lib\libc.a(lib_a-fclose.o)
 .debug_loc     0x0002b19b      0x1f6 c:/develop/altera/11.1/nios2eds/bin/gnu/h-i686-mingw32/bin/../lib/gcc/nios2-elf/4.1.2/../../../../nios2-elf/lib\libc.a(lib_a-fflush.o)
 .debug_loc     0x0002b391      0x2be c:/develop/altera/11.1/nios2eds/bin/gnu/h-i686-mingw32/bin/../lib/gcc/nios2-elf/4.1.2/../../../../nios2-elf/lib\libc.a(lib_a-fgets.o)
 .debug_loc     0x0002b64f      0x19f c:/develop/altera/11.1/nios2eds/bin/gnu/h-i686-mingw32/bin/../lib/gcc/nios2-elf/4.1.2/../../../../nios2-elf/lib\libc.a(lib_a-findfp.o)
 .debug_loc     0x0002b7ee      0x1c9 c:/develop/altera/11.1/nios2eds/bin/gnu/h-i686-mingw32/bin/../lib/gcc/nios2-elf/4.1.2/../../../../nios2-elf/lib\libc.a(lib_a-fopen.o)
 .debug_loc     0x0002b9b7       0xf1 c:/develop/altera/11.1/nios2eds/bin/gnu/h-i686-mingw32/bin/../lib/gcc/nios2-elf/4.1.2/../../../../nios2-elf/lib\libc.a(lib_a-fprintf.o)
 .debug_loc     0x0002baa8      0x303 c:/develop/altera/11.1/nios2eds/bin/gnu/h-i686-mingw32/bin/../lib/gcc/nios2-elf/4.1.2/../../../../nios2-elf/lib\libc.a(lib_a-fread.o)
 .debug_loc     0x0002bdab      0x4a7 c:/develop/altera/11.1/nios2eds/bin/gnu/h-i686-mingw32/bin/../lib/gcc/nios2-elf/4.1.2/../../../../nios2-elf/lib\libc.a(lib_a-freer.o)
 .debug_loc     0x0002c252      0x252 c:/develop/altera/11.1/nios2eds/bin/gnu/h-i686-mingw32/bin/../lib/gcc/nios2-elf/4.1.2/../../../../nios2-elf/lib\libc.a(lib_a-freopen.o)
 .debug_loc     0x0002c4a4       0xf1 c:/develop/altera/11.1/nios2eds/bin/gnu/h-i686-mingw32/bin/../lib/gcc/nios2-elf/4.1.2/../../../../nios2-elf/lib\libc.a(lib_a-fscanf.o)
 .debug_loc     0x0002c595      0x348 c:/develop/altera/11.1/nios2eds/bin/gnu/h-i686-mingw32/bin/../lib/gcc/nios2-elf/4.1.2/../../../../nios2-elf/lib\libc.a(lib_a-fseek.o)
 .debug_loc     0x0002c8dd       0x79 c:/develop/altera/11.1/nios2eds/bin/gnu/h-i686-mingw32/bin/../lib/gcc/nios2-elf/4.1.2/../../../../nios2-elf/lib\libc.a(lib_a-fstatr.o)
 .debug_loc     0x0002c956       0xe4 c:/develop/altera/11.1/nios2eds/bin/gnu/h-i686-mingw32/bin/../lib/gcc/nios2-elf/4.1.2/../../../../nios2-elf/lib\libc.a(lib_a-ftell.o)
 .debug_loc     0x0002ca3a      0x1d2 c:/develop/altera/11.1/nios2eds/bin/gnu/h-i686-mingw32/bin/../lib/gcc/nios2-elf/4.1.2/../../../../nios2-elf/lib\libc.a(lib_a-fwalk.o)
 .debug_loc     0x0002cc0c      0x18e c:/develop/altera/11.1/nios2eds/bin/gnu/h-i686-mingw32/bin/../lib/gcc/nios2-elf/4.1.2/../../../../nios2-elf/lib\libc.a(lib_a-fwrite.o)
 .debug_loc     0x0002cd9a      0x10b c:/develop/altera/11.1/nios2eds/bin/gnu/h-i686-mingw32/bin/../lib/gcc/nios2-elf/4.1.2/../../../../nios2-elf/lib\libc.a(lib_a-getc.o)
 .debug_loc     0x0002cea5       0x79 c:/develop/altera/11.1/nios2eds/bin/gnu/h-i686-mingw32/bin/../lib/gcc/nios2-elf/4.1.2/../../../../nios2-elf/lib\libc.a(lib_a-getenv.o)
 .debug_loc     0x0002cf1e      0x144 c:/develop/altera/11.1/nios2eds/bin/gnu/h-i686-mingw32/bin/../lib/gcc/nios2-elf/4.1.2/../../../../nios2-elf/lib\libc.a(lib_a-getenv_r.o)
 .debug_loc     0x0002d062       0x13 c:/develop/altera/11.1/nios2eds/bin/gnu/h-i686-mingw32/bin/../lib/gcc/nios2-elf/4.1.2/../../../../nios2-elf/lib\libc.a(lib_a-gmtime.o)
 .debug_loc     0x0002d075       0x26 c:/develop/altera/11.1/nios2eds/bin/gnu/h-i686-mingw32/bin/../lib/gcc/nios2-elf/4.1.2/../../../../nios2-elf/lib\libc.a(lib_a-gmtime_r.o)
 .debug_loc     0x0002d09b       0x13 c:/develop/altera/11.1/nios2eds/bin/gnu/h-i686-mingw32/bin/../lib/gcc/nios2-elf/4.1.2/../../../../nios2-elf/lib\libc.a(lib_a-lcltime.o)
 .debug_loc     0x0002d0ae       0x26 c:/develop/altera/11.1/nios2eds/bin/gnu/h-i686-mingw32/bin/../lib/gcc/nios2-elf/4.1.2/../../../../nios2-elf/lib\libc.a(lib_a-lcltime_r.o)
 .debug_loc     0x0002d0d4       0xe1 c:/develop/altera/11.1/nios2eds/bin/gnu/h-i686-mingw32/bin/../lib/gcc/nios2-elf/4.1.2/../../../../nios2-elf/lib\libc.a(lib_a-locale.o)
 .debug_loc     0x0002d1b5      0x11c c:/develop/altera/11.1/nios2eds/bin/gnu/h-i686-mingw32/bin/../lib/gcc/nios2-elf/4.1.2/../../../../nios2-elf/lib\libc.a(lib_a-makebuf.o)
 .debug_loc     0x0002d2d1       0x3c c:/develop/altera/11.1/nios2eds/bin/gnu/h-i686-mingw32/bin/../lib/gcc/nios2-elf/4.1.2/../../../../nios2-elf/lib\libc.a(lib_a-malloc.o)
 .debug_loc     0x0002d30d      0xaeb c:/develop/altera/11.1/nios2eds/bin/gnu/h-i686-mingw32/bin/../lib/gcc/nios2-elf/4.1.2/../../../../nios2-elf/lib\libc.a(lib_a-mallocr.o)
 .debug_loc     0x0002ddf8      0x106 c:/develop/altera/11.1/nios2eds/bin/gnu/h-i686-mingw32/bin/../lib/gcc/nios2-elf/4.1.2/../../../../nios2-elf/lib\libc.a(lib_a-memchr.o)
 .debug_loc     0x0002defe      0x114 c:/develop/altera/11.1/nios2eds/bin/gnu/h-i686-mingw32/bin/../lib/gcc/nios2-elf/4.1.2/../../../../nios2-elf/lib\libc.a(lib_a-memcmp.o)
 .debug_loc     0x0002e012       0xca c:/develop/altera/11.1/nios2eds/bin/gnu/h-i686-mingw32/bin/../lib/gcc/nios2-elf/4.1.2/../../../../nios2-elf/lib\libc.a(lib_a-memcpy.o)
 .debug_loc     0x0002e0dc       0xa1 c:/develop/altera/11.1/nios2eds/bin/gnu/h-i686-mingw32/bin/../lib/gcc/nios2-elf/4.1.2/../../../../nios2-elf/lib\libc.a(lib_a-memset.o)
 .debug_loc     0x0002e17d      0x306 c:/develop/altera/11.1/nios2eds/bin/gnu/h-i686-mingw32/bin/../lib/gcc/nios2-elf/4.1.2/../../../../nios2-elf/lib\libc.a(lib_a-mktime.o)
 .debug_loc     0x0002e483      0x39e c:/develop/altera/11.1/nios2eds/bin/gnu/h-i686-mingw32/bin/../lib/gcc/nios2-elf/4.1.2/../../../../nios2-elf/lib\libc.a(lib_a-mktm_r.o)
 .debug_loc     0x0002e821       0x97 c:/develop/altera/11.1/nios2eds/bin/gnu/h-i686-mingw32/bin/../lib/gcc/nios2-elf/4.1.2/../../../../nios2-elf/lib\libc.a(lib_a-openr.o)
 .debug_loc     0x0002e8b8       0xcb c:/develop/altera/11.1/nios2eds/bin/gnu/h-i686-mingw32/bin/../lib/gcc/nios2-elf/4.1.2/../../../../nios2-elf/lib\libc.a(lib_a-printf.o)
 .debug_loc     0x0002e983       0x44 c:/develop/altera/11.1/nios2eds/bin/gnu/h-i686-mingw32/bin/../lib/gcc/nios2-elf/4.1.2/../../../../nios2-elf/lib\libc.a(lib_a-putchar.o)
 .debug_loc     0x0002e9c7       0xa2 c:/develop/altera/11.1/nios2eds/bin/gnu/h-i686-mingw32/bin/../lib/gcc/nios2-elf/4.1.2/../../../../nios2-elf/lib\libc.a(lib_a-puts.o)
 .debug_loc     0x0002ea69       0x42 c:/develop/altera/11.1/nios2eds/bin/gnu/h-i686-mingw32/bin/../lib/gcc/nios2-elf/4.1.2/../../../../nios2-elf/lib\libc.a(lib_a-rand.o)
 .debug_loc     0x0002eaab       0x3c c:/develop/altera/11.1/nios2eds/bin/gnu/h-i686-mingw32/bin/../lib/gcc/nios2-elf/4.1.2/../../../../nios2-elf/lib\libc.a(lib_a-realloc.o)
 .debug_loc     0x0002eae7      0x8c0 c:/develop/altera/11.1/nios2eds/bin/gnu/h-i686-mingw32/bin/../lib/gcc/nios2-elf/4.1.2/../../../../nios2-elf/lib\libc.a(lib_a-reallocr.o)
 .debug_loc     0x0002f3a7       0xd1 c:/develop/altera/11.1/nios2eds/bin/gnu/h-i686-mingw32/bin/../lib/gcc/nios2-elf/4.1.2/../../../../nios2-elf/lib\libc.a(lib_a-refill.o)
 .debug_loc     0x0002f478       0x6e c:/develop/altera/11.1/nios2eds/bin/gnu/h-i686-mingw32/bin/../lib/gcc/nios2-elf/4.1.2/../../../../nios2-elf/lib\libc.a(lib_a-rget.o)
 .debug_loc     0x0002f4e6       0x5b c:/develop/altera/11.1/nios2eds/bin/gnu/h-i686-mingw32/bin/../lib/gcc/nios2-elf/4.1.2/../../../../nios2-elf/lib\libc.a(lib_a-sbrkr.o)
 .debug_loc     0x0002f541      0x123 c:/develop/altera/11.1/nios2eds/bin/gnu/h-i686-mingw32/bin/../lib/gcc/nios2-elf/4.1.2/../../../../nios2-elf/lib\libc.a(lib_a-setvbuf.o)
 .debug_loc     0x0002f664      0x3b4 c:/develop/altera/11.1/nios2eds/bin/gnu/h-i686-mingw32/bin/../lib/gcc/nios2-elf/4.1.2/../../../../nios2-elf/lib\libc.a(lib_a-signal.o)
 .debug_loc     0x0002fa18       0x8c c:/develop/altera/11.1/nios2eds/bin/gnu/h-i686-mingw32/bin/../lib/gcc/nios2-elf/4.1.2/../../../../nios2-elf/lib\libc.a(lib_a-signalr.o)
 .debug_loc     0x0002faa4       0xc0 c:/develop/altera/11.1/nios2eds/bin/gnu/h-i686-mingw32/bin/../lib/gcc/nios2-elf/4.1.2/../../../../nios2-elf/lib\libc.a(lib_a-sprintf.o)
 .debug_loc     0x0002fb64      0x21f c:/develop/altera/11.1/nios2eds/bin/gnu/h-i686-mingw32/bin/../lib/gcc/nios2-elf/4.1.2/../../../../nios2-elf/lib\libc.a(lib_a-stdio.o)
 .debug_loc     0x0002fd83       0xf3 c:/develop/altera/11.1/nios2eds/bin/gnu/h-i686-mingw32/bin/../lib/gcc/nios2-elf/4.1.2/../../../../nios2-elf/lib\libc.a(lib_a-strchr.o)
 .debug_loc     0x0002fe76       0x65 c:/develop/altera/11.1/nios2eds/bin/gnu/h-i686-mingw32/bin/../lib/gcc/nios2-elf/4.1.2/../../../../nios2-elf/lib\libc.a(lib_a-strcmp.o)
 .debug_loc     0x0002fedb       0x26 c:/develop/altera/11.1/nios2eds/bin/gnu/h-i686-mingw32/bin/../lib/gcc/nios2-elf/4.1.2/../../../../nios2-elf/lib\libc.a(lib_a-strcoll.o)
 .debug_loc     0x0002ff01       0x8b c:/develop/altera/11.1/nios2eds/bin/gnu/h-i686-mingw32/bin/../lib/gcc/nios2-elf/4.1.2/../../../../nios2-elf/lib\libc.a(lib_a-strcpy.o)
 .debug_loc     0x0002ff8c      0x418 c:/develop/altera/11.1/nios2eds/bin/gnu/h-i686-mingw32/bin/../lib/gcc/nios2-elf/4.1.2/../../../../nios2-elf/lib\libc.a(lib_a-strerror.o)
 .debug_loc     0x000303a4      0x9fb c:/develop/altera/11.1/nios2eds/bin/gnu/h-i686-mingw32/bin/../lib/gcc/nios2-elf/4.1.2/../../../../nios2-elf/lib\libc.a(lib_a-strftime.o)
 .debug_loc     0x00030d9f       0x3c c:/develop/altera/11.1/nios2eds/bin/gnu/h-i686-mingw32/bin/../lib/gcc/nios2-elf/4.1.2/../../../../nios2-elf/lib\libc.a(lib_a-strlen.o)
 .debug_loc     0x00030ddb       0x78 c:/develop/altera/11.1/nios2eds/bin/gnu/h-i686-mingw32/bin/../lib/gcc/nios2-elf/4.1.2/../../../../nios2-elf/lib\libc.a(lib_a-strncmp.o)
 .debug_loc     0x00030e53       0x1e c:/develop/altera/11.1/nios2eds/bin/gnu/h-i686-mingw32/bin/../lib/gcc/nios2-elf/4.1.2/../../../../nios2-elf/lib\libc.a(lib_a-strpbrk.o)
 .debug_loc     0x00030e71       0x3c c:/develop/altera/11.1/nios2eds/bin/gnu/h-i686-mingw32/bin/../lib/gcc/nios2-elf/4.1.2/../../../../nios2-elf/lib\libc.a(lib_a-strspn.o)
 .debug_loc     0x00030ead      0xa24 c:/develop/altera/11.1/nios2eds/bin/gnu/h-i686-mingw32/bin/../lib/gcc/nios2-elf/4.1.2/../../../../nios2-elf/lib\libc.a(lib_a-strstr.o)
 .debug_loc     0x000318d1     0x243e c:/develop/altera/11.1/nios2eds/bin/gnu/h-i686-mingw32/bin/../lib/gcc/nios2-elf/4.1.2/../../../../nios2-elf/lib\libc.a(lib_a-strtod.o)
 .debug_loc     0x00033d0f       0x48 c:/develop/altera/11.1/nios2eds/bin/gnu/h-i686-mingw32/bin/../lib/gcc/nios2-elf/4.1.2/../../../../nios2-elf/lib\libc.a(lib_a-time.o)
 .debug_loc     0x00033d57       0x26 c:/develop/altera/11.1/nios2eds/bin/gnu/h-i686-mingw32/bin/../lib/gcc/nios2-elf/4.1.2/../../../../nios2-elf/lib\libc.a(lib_a-timesr.o)
 .debug_loc     0x00033d7d      0x37a c:/develop/altera/11.1/nios2eds/bin/gnu/h-i686-mingw32/bin/../lib/gcc/nios2-elf/4.1.2/../../../../nios2-elf/lib\libc.a(lib_a-tmpnam.o)
 .debug_loc     0x000340f7      0x207 c:/develop/altera/11.1/nios2eds/bin/gnu/h-i686-mingw32/bin/../lib/gcc/nios2-elf/4.1.2/../../../../nios2-elf/lib\libc.a(lib_a-ungetc.o)
 .debug_loc     0x000342fe     0x1e0d c:/develop/altera/11.1/nios2eds/bin/gnu/h-i686-mingw32/bin/../lib/gcc/nios2-elf/4.1.2/../../../../nios2-elf/lib\libc.a(lib_a-vfprintf.o)
 .debug_loc     0x0003610b     0x13ff c:/develop/altera/11.1/nios2eds/bin/gnu/h-i686-mingw32/bin/../lib/gcc/nios2-elf/4.1.2/../../../../nios2-elf/lib\libc.a(lib_a-vfscanf.o)
 .debug_loc     0x0003750a       0x97 c:/develop/altera/11.1/nios2eds/bin/gnu/h-i686-mingw32/bin/../lib/gcc/nios2-elf/4.1.2/../../../../nios2-elf/lib\libc.a(lib_a-writer.o)
 .debug_loc     0x000375a1       0x7c c:/develop/altera/11.1/nios2eds/bin/gnu/h-i686-mingw32/bin/../lib/gcc/nios2-elf/4.1.2/../../../../nios2-elf/lib\libc.a(lib_a-wsetup.o)
 .debug_loc     0x0003761d      0x1cb c:/develop/altera/11.1/nios2eds/bin/gnu/h-i686-mingw32/bin/../lib/gcc/nios2-elf/4.1.2/../../../../nios2-elf/lib\libc.a(lib_a-__call_atexit.o)
 .debug_loc     0x000377e8       0x5b c:/develop/altera/11.1/nios2eds/bin/gnu/h-i686-mingw32/bin/../lib/gcc/nios2-elf/4.1.2/../../../../nios2-elf/lib\libc.a(lib_a-closer.o)
 .debug_loc     0x00037843       0x71 c:/develop/altera/11.1/nios2eds/bin/gnu/h-i686-mingw32/bin/../lib/gcc/nios2-elf/4.1.2/../../../../nios2-elf/lib\libc.a(lib_a-div.o)
 .debug_loc     0x000378b4     0x1dfa c:/develop/altera/11.1/nios2eds/bin/gnu/h-i686-mingw32/bin/../lib/gcc/nios2-elf/4.1.2/../../../../nios2-elf/lib\libc.a(lib_a-dtoa.o)
 .debug_loc     0x000396ae       0xa4 c:/develop/altera/11.1/nios2eds/bin/gnu/h-i686-mingw32/bin/../lib/gcc/nios2-elf/4.1.2/../../../../nios2-elf/lib\libc.a(lib_a-flags.o)
 .debug_loc     0x00039752      0x4e4 c:/develop/altera/11.1/nios2eds/bin/gnu/h-i686-mingw32/bin/../lib/gcc/nios2-elf/4.1.2/../../../../nios2-elf/lib\libc.a(lib_a-fvwrite.o)
 .debug_loc     0x00039c36      0xad2 c:/develop/altera/11.1/nios2eds/bin/gnu/h-i686-mingw32/bin/../lib/gcc/nios2-elf/4.1.2/../../../../nios2-elf/lib\libc.a(lib_a-gdtoa-gethex.o)
 .debug_loc     0x0003a708      0x2a6 c:/develop/altera/11.1/nios2eds/bin/gnu/h-i686-mingw32/bin/../lib/gcc/nios2-elf/4.1.2/../../../../nios2-elf/lib\libc.a(lib_a-gdtoa-hexnan.o)
 .debug_loc     0x0003a9ae       0x79 c:/develop/altera/11.1/nios2eds/bin/gnu/h-i686-mingw32/bin/../lib/gcc/nios2-elf/4.1.2/../../../../nios2-elf/lib\libc.a(lib_a-gettimeofdayr.o)
 .debug_loc     0x0003aa27       0x5b c:/develop/altera/11.1/nios2eds/bin/gnu/h-i686-mingw32/bin/../lib/gcc/nios2-elf/4.1.2/../../../../nios2-elf/lib\libc.a(lib_a-isattyr.o)
 .debug_loc     0x0003aa82       0x97 c:/develop/altera/11.1/nios2eds/bin/gnu/h-i686-mingw32/bin/../lib/gcc/nios2-elf/4.1.2/../../../../nios2-elf/lib\libc.a(lib_a-lseekr.o)
 .debug_loc     0x0003ab19      0x182 c:/develop/altera/11.1/nios2eds/bin/gnu/h-i686-mingw32/bin/../lib/gcc/nios2-elf/4.1.2/../../../../nios2-elf/lib\libc.a(lib_a-mbrtowc.o)
 .debug_loc     0x0003ac9b       0x1f c:/develop/altera/11.1/nios2eds/bin/gnu/h-i686-mingw32/bin/../lib/gcc/nios2-elf/4.1.2/../../../../nios2-elf/lib\libc.a(lib_a-mbtowc_r.o)
 .debug_loc     0x0003acba      0x117 c:/develop/altera/11.1/nios2eds/bin/gnu/h-i686-mingw32/bin/../lib/gcc/nios2-elf/4.1.2/../../../../nios2-elf/lib\libc.a(lib_a-memmove.o)
 .debug_loc     0x0003add1     0x14d6 c:/develop/altera/11.1/nios2eds/bin/gnu/h-i686-mingw32/bin/../lib/gcc/nios2-elf/4.1.2/../../../../nios2-elf/lib\libc.a(lib_a-mprec.o)
 .debug_loc     0x0003c2a7      0x20d c:/develop/altera/11.1/nios2eds/bin/gnu/h-i686-mingw32/bin/../lib/gcc/nios2-elf/4.1.2/../../../../nios2-elf/lib\libc.a(lib_a-putc.o)
 .debug_loc     0x0003c4b4       0x97 c:/develop/altera/11.1/nios2eds/bin/gnu/h-i686-mingw32/bin/../lib/gcc/nios2-elf/4.1.2/../../../../nios2-elf/lib\libc.a(lib_a-readr.o)
 .debug_loc     0x0003c54b       0x36 c:/develop/altera/11.1/nios2eds/bin/gnu/h-i686-mingw32/bin/../lib/gcc/nios2-elf/4.1.2/../../../../nios2-elf/lib\libc.a(lib_a-s_isinfd.o)
 .debug_loc     0x0003c581       0xdb c:/develop/altera/11.1/nios2eds/bin/gnu/h-i686-mingw32/bin/../lib/gcc/nios2-elf/4.1.2/../../../../nios2-elf/lib\libc.a(lib_a-sccl.o)
 .debug_loc     0x0003c65c      0x23b c:/develop/altera/11.1/nios2eds/bin/gnu/h-i686-mingw32/bin/../lib/gcc/nios2-elf/4.1.2/../../../../nios2-elf/lib\libc.a(lib_a-snprintf.o)
 .debug_loc     0x0003c897      0x346 c:/develop/altera/11.1/nios2eds/bin/gnu/h-i686-mingw32/bin/../lib/gcc/nios2-elf/4.1.2/../../../../nios2-elf/lib\libc.a(lib_a-strtol.o)
 .debug_loc     0x0003cbdd      0x30f c:/develop/altera/11.1/nios2eds/bin/gnu/h-i686-mingw32/bin/../lib/gcc/nios2-elf/4.1.2/../../../../nios2-elf/lib\libc.a(lib_a-strtoll_r.o)
 .debug_loc     0x0003ceec      0x263 c:/develop/altera/11.1/nios2eds/bin/gnu/h-i686-mingw32/bin/../lib/gcc/nios2-elf/4.1.2/../../../../nios2-elf/lib\libc.a(lib_a-strtoul.o)
 .debug_loc     0x0003d14f      0x282 c:/develop/altera/11.1/nios2eds/bin/gnu/h-i686-mingw32/bin/../lib/gcc/nios2-elf/4.1.2/../../../../nios2-elf/lib\libc.a(lib_a-strtoull_r.o)
 .debug_loc     0x0003d3d1      0x157 c:/develop/altera/11.1/nios2eds/bin/gnu/h-i686-mingw32/bin/../lib/gcc/nios2-elf/4.1.2/../../../../nios2-elf/lib\libc.a(lib_a-wbuf.o)
 .debug_loc     0x0003d528       0xe9 c:/develop/altera/11.1/nios2eds/bin/gnu/h-i686-mingw32/bin/../lib/gcc/nios2-elf/4.1.2/../../../../nios2-elf/lib\libc.a(lib_a-callocr.o)
 .debug_loc     0x0003d611      0xc12 c:/develop/altera/11.1/nios2eds/bin/gnu/h-i686-mingw32/bin/../lib/gcc/nios2-elf/4.1.2\libgcc.a(_udivdi3.o)
 .debug_loc     0x0003e223      0xc31 c:/develop/altera/11.1/nios2eds/bin/gnu/h-i686-mingw32/bin/../lib/gcc/nios2-elf/4.1.2\libgcc.a(_umoddi3.o)
 .debug_loc     0x0003ee54       0x45 c:/develop/altera/11.1/nios2eds/bin/gnu/h-i686-mingw32/bin/../lib/gcc/nios2-elf/4.1.2\libgcc.a(_ne_sf.o)
 .debug_loc     0x0003ee99       0x45 c:/develop/altera/11.1/nios2eds/bin/gnu/h-i686-mingw32/bin/../lib/gcc/nios2-elf/4.1.2\libgcc.a(_gt_sf.o)
 .debug_loc     0x0003eede       0x45 c:/develop/altera/11.1/nios2eds/bin/gnu/h-i686-mingw32/bin/../lib/gcc/nios2-elf/4.1.2\libgcc.a(_lt_sf.o)
 .debug_loc     0x0003ef23       0x6a c:/develop/altera/11.1/nios2eds/bin/gnu/h-i686-mingw32/bin/../lib/gcc/nios2-elf/4.1.2\libgcc.a(_df_to_sf.o)
 .debug_loc     0x0003ef8d       0x31 c:/develop/altera/11.1/nios2eds/bin/gnu/h-i686-mingw32/bin/../lib/gcc/nios2-elf/4.1.2\libgcc.a(_unpack_sf.o)
 .debug_loc     0x0003efbe       0x3c c:/develop/altera/11.1/nios2eds/bin/gnu/h-i686-mingw32/bin/../lib/gcc/nios2-elf/4.1.2\libgcc.a(_fpcmp_parts_sf.o)
 .debug_loc     0x0003effa       0x6b c:/develop/altera/11.1/nios2eds/bin/gnu/h-i686-mingw32/bin/../lib/gcc/nios2-elf/4.1.2\libgcc.a(_make_sf.o)
 .debug_loc     0x0003f065       0xf9 c:/develop/altera/11.1/nios2eds/bin/gnu/h-i686-mingw32/bin/../lib/gcc/nios2-elf/4.1.2\libgcc.a(_pack_sf.o)
 .debug_loc     0x0003f15e       0xdc ../Cineraria_DE0_HAL_bsp/\libhal_bsp.a(alt_close.o)
 .debug_loc     0x0003f23a       0x9a ../Cineraria_DE0_HAL_bsp/\libhal_bsp.a(alt_fstat.o)
 .debug_loc     0x0003f2d4       0xe9 ../Cineraria_DE0_HAL_bsp/\libhal_bsp.a(alt_gettod.o)
 .debug_loc     0x0003f3bd       0x67 ../Cineraria_DE0_HAL_bsp/\libhal_bsp.a(alt_isatty.o)
 .debug_loc     0x0003f424       0xa5 ../Cineraria_DE0_HAL_bsp/\libhal_bsp.a(alt_kill.o)
 .debug_loc     0x0003f4c9       0xf7 ../Cineraria_DE0_HAL_bsp/\libhal_bsp.a(alt_lseek.o)
 .debug_loc     0x0003f5c0       0x1f ../Cineraria_DE0_HAL_bsp/\libhal_bsp.a(alt_main.o)
 .debug_loc     0x0003f5df      0x1f3 ../Cineraria_DE0_HAL_bsp/\libhal_bsp.a(alt_open.o)
 .debug_loc     0x0003f7d2      0x123 ../Cineraria_DE0_HAL_bsp/\libhal_bsp.a(alt_read.o)
 .debug_loc     0x0003f8f5       0x13 ../Cineraria_DE0_HAL_bsp/\libhal_bsp.a(alt_sbrk.o)
 .debug_loc     0x0003f908       0x7c ../Cineraria_DE0_HAL_bsp/\libhal_bsp.a(alt_tick.o)
 .debug_loc     0x0003f984       0x5b ../Cineraria_DE0_HAL_bsp/\libhal_bsp.a(alt_times.o)
 .debug_loc     0x0003f9df      0x123 ../Cineraria_DE0_HAL_bsp/\libhal_bsp.a(alt_write.o)
 .debug_loc     0x0003fb02       0x51 ../Cineraria_DE0_HAL_bsp/\libhal_bsp.a(alt_sys_init.o)
 .debug_loc     0x0003fb53      0x60b ../Cineraria_DE0_HAL_bsp/\libhal_bsp.a(altera_avalon_cfi_flash.o)
 .debug_loc     0x0004015e      0x4ab ../Cineraria_DE0_HAL_bsp/\libhal_bsp.a(altera_avalon_cfi_flash_table.o)
 .debug_loc     0x00040609      0x539 ../Cineraria_DE0_HAL_bsp/\libhal_bsp.a(altera_avalon_epcs_flash_controller.o)
 .debug_loc     0x00040b42       0xbe ../Cineraria_DE0_HAL_bsp/\libhal_bsp.a(altera_avalon_jtag_uart_fd.o)
 .debug_loc     0x00040c00      0x11a ../Cineraria_DE0_HAL_bsp/\libhal_bsp.a(altera_avalon_jtag_uart_init.o)
 .debug_loc     0x00040d1a       0x65 ../Cineraria_DE0_HAL_bsp/\libhal_bsp.a(altera_avalon_jtag_uart_ioctl.o)
 .debug_loc     0x00040d7f      0x238 ../Cineraria_DE0_HAL_bsp/\libhal_bsp.a(altera_avalon_jtag_uart_read.o)
 .debug_loc     0x00040fb7      0x201 ../Cineraria_DE0_HAL_bsp/\libhal_bsp.a(altera_avalon_jtag_uart_write.o)
 .debug_loc     0x000411b8       0xdc ../Cineraria_DE0_HAL_bsp/\libhal_bsp.a(altera_avalon_timer_sc.o)
 .debug_loc     0x00041294       0x85 ../Cineraria_DE0_HAL_bsp/\libhal_bsp.a(altera_avalon_uart_fd.o)
 .debug_loc     0x00041319       0xee ../Cineraria_DE0_HAL_bsp/\libhal_bsp.a(altera_avalon_uart_init.o)
 .debug_loc     0x00041407      0x115 ../Cineraria_DE0_HAL_bsp/\libhal_bsp.a(altera_avalon_uart_read.o)
 .debug_loc     0x0004151c      0x15c ../Cineraria_DE0_HAL_bsp/\libhal_bsp.a(altera_avalon_uart_write.o)
 .debug_loc     0x00041678      0x28b ../Cineraria_DE0_HAL_bsp/\libhal_bsp.a(epcs_commands.o)
 .debug_loc     0x00041903       0x65 ../Cineraria_DE0_HAL_bsp/\libhal_bsp.a(alt_alarm_start.o)
 .debug_loc     0x00041968       0x70 ../Cineraria_DE0_HAL_bsp/\libhal_bsp.a(alt_dcache_flush.o)
 .debug_loc     0x000419d8       0x5b ../Cineraria_DE0_HAL_bsp/\libhal_bsp.a(alt_dev_llist_insert.o)
 .debug_loc     0x00041a33       0x32 ../Cineraria_DE0_HAL_bsp/\libhal_bsp.a(alt_do_ctors.o)
 .debug_loc     0x00041a65       0x32 ../Cineraria_DE0_HAL_bsp/\libhal_bsp.a(alt_do_dtors.o)
 .debug_loc     0x00041a97       0x8f ../Cineraria_DE0_HAL_bsp/\libhal_bsp.a(alt_find_dev.o)
 .debug_loc     0x00041b26       0xb0 ../Cineraria_DE0_HAL_bsp/\libhal_bsp.a(alt_find_file.o)
 .debug_loc     0x00041bd6       0xb0 ../Cineraria_DE0_HAL_bsp/\libhal_bsp.a(alt_flash_dev.o)
 .debug_loc     0x00041c86       0x29 ../Cineraria_DE0_HAL_bsp/\libhal_bsp.a(alt_get_fd.o)
 .debug_loc     0x00041caf       0x72 ../Cineraria_DE0_HAL_bsp/\libhal_bsp.a(alt_iic.o)
 .debug_loc     0x00041d21       0xde ../Cineraria_DE0_HAL_bsp/\libhal_bsp.a(alt_iic_isr_register.o)
 .debug_loc     0x00041dff      0x144 ../Cineraria_DE0_HAL_bsp/\libhal_bsp.a(alt_io_redirect.o)
 .debug_loc     0x00041f43       0x6e ../Cineraria_DE0_HAL_bsp/\libhal_bsp.a(alt_irq_handler.o)
 .debug_loc     0x00041fb1      0x25b ../Cineraria_DE0_HAL_bsp/\libhal_bsp.a(altera_avalon_cfi_flash_amd.o)
 .debug_loc     0x0004220c      0x3bd ../Cineraria_DE0_HAL_bsp/\libhal_bsp.a(altera_avalon_cfi_flash_intel.o)
 .debug_loc     0x000425c9       0xfd ../Cineraria_DE0_HAL_bsp/\libhal_bsp.a(altera_avalon_spi.o)
 .debug_loc     0x000426c6       0x13 ../Cineraria_DE0_HAL_bsp/\libhal_bsp.a(alt_usleep.o)
 .debug_loc     0x000426d9       0x13 ../Cineraria_DE0_HAL_bsp/\libhal_bsp.a(alt_busy_sleep.o)
 .debug_loc     0x000426ec       0x1e c:/develop/altera/11.1/nios2eds/bin/gnu/h-i686-mingw32/bin/../lib/gcc/nios2-elf/4.1.2/../../../../nios2-elf/lib\libc.a(lib_a-atexit.o)
 .debug_loc     0x0004270a      0x120 c:/develop/altera/11.1/nios2eds/bin/gnu/h-i686-mingw32/bin/../lib/gcc/nios2-elf/4.1.2/../../../../nios2-elf/lib\libc.a(lib_a-__atexit.o)

.debug_macinfo
 *(.debug_macinfo)

.debug_weaknames
 *(.debug_weaknames)

.debug_funcnames
 *(.debug_funcnames)

.debug_typenames
 *(.debug_typenames)

.debug_varnames
 *(.debug_varnames)

.debug_alt_sim_info
                0x00000000       0x50
 *(.debug_alt_sim_info)
 .debug_alt_sim_info
                0x00000000       0x20 ../Cineraria_DE0_HAL_bsp//obj/HAL/src/crt0.o
 .debug_alt_sim_info
                0x00000020       0x30 ../Cineraria_DE0_HAL_bsp/\libhal_bsp.a(alt_busy_sleep.o)
                0x00800000                __alt_data_end = 0x800000
                0x00800000                PROVIDE (__alt_stack_pointer, __alt_data_end)
                0x0005d5e4                PROVIDE (__alt_stack_limit, __alt_stack_base)
                0x0005d5e4                PROVIDE (__alt_heap_start, end)
                0x00800000                PROVIDE (__alt_heap_limit, 0x800000)
OUTPUT(lua520_test.elf elf32-littlenios2)

.debug_ranges   0x00000000     0x58f8
 .debug_ranges  0x00000000      0x420 obj/default/lua/lapi.o
 .debug_ranges  0x00000420       0xe8 obj/default/lua/lauxlib.o
 .debug_ranges  0x00000508      0x120 obj/default/lua/lbaselib.o
 .debug_ranges  0x00000628      0x268 obj/default/lua/lcode.o
 .debug_ranges  0x00000890       0x30 obj/default/lua/lcorolib.o
 .debug_ranges  0x000008c0       0x90 obj/default/lua/ldblib.o
 .debug_ranges  0x00000950      0x400 obj/default/lua/ldebug.o
 .debug_ranges  0x00000d50      0x310 obj/default/lua/ldo.o
 .debug_ranges  0x00001060      0x110 obj/default/lua/ldump.o
 .debug_ranges  0x00001170       0x78 obj/default/lua/lfunc.o
 .debug_ranges  0x000011e8      0x558 obj/default/lua/lgc.o
 .debug_ranges  0x00001740      0x130 obj/default/lua/liolib.o
 .debug_ranges  0x00001870      0x290 obj/default/lua/llex.o
 .debug_ranges  0x00001b00       0x68 obj/default/lua/lmathlib.o
 .debug_ranges  0x00001b68      0x1e0 obj/default/lua/loadlib.o
 .debug_ranges  0x00001d48      0x190 obj/default/lua/lobject.o
 .debug_ranges  0x00001ed8       0xf8 obj/default/lua/loslib.o
 .debug_ranges  0x00001fd0      0x898 obj/default/lua/lparser.o
 .debug_ranges  0x00002868       0x68 obj/default/lua/lstate.o
 .debug_ranges  0x000028d0       0x50 obj/default/lua/lstring.o
 .debug_ranges  0x00002920      0x508 obj/default/lua/lstrlib.o
 .debug_ranges  0x00002e28      0x418 obj/default/lua/ltable.o
 .debug_ranges  0x00003240       0x48 obj/default/lua/ltablib.o
 .debug_ranges  0x00003288      0x230 obj/default/lua/lundump.o
 .debug_ranges  0x000034b8      0x798 obj/default/lua/lvm.o
 .debug_ranges  0x00003c50       0x18 obj/default/lua/lzio.o
 .debug_ranges  0x00003c68      0x1f8 obj/default/mmcfs/fatfs/ff.o
 .debug_ranges  0x00003e60       0x28 c:/develop/altera/11.1/nios2eds/bin/gnu/h-i686-mingw32/bin/../lib/gcc/nios2-elf/4.1.2/../../../../nios2-elf/lib\libm.a(lib_a-s_atan.o)
 .debug_ranges  0x00003e88       0x18 c:/develop/altera/11.1/nios2eds/bin/gnu/h-i686-mingw32/bin/../lib/gcc/nios2-elf/4.1.2/../../../../nios2-elf/lib\libm.a(lib_a-s_fabs.o)
 .debug_ranges  0x00003ea0       0x20 c:/develop/altera/11.1/nios2eds/bin/gnu/h-i686-mingw32/bin/../lib/gcc/nios2-elf/4.1.2/../../../../nios2-elf/lib\libm.a(lib_a-s_frexp.o)
 .debug_ranges  0x00003ec0       0x60 c:/develop/altera/11.1/nios2eds/bin/gnu/h-i686-mingw32/bin/../lib/gcc/nios2-elf/4.1.2/../../../../nios2-elf/lib\libm.a(lib_a-s_modf.o)
 .debug_ranges  0x00003f20       0x20 c:/develop/altera/11.1/nios2eds/bin/gnu/h-i686-mingw32/bin/../lib/gcc/nios2-elf/4.1.2/../../../../nios2-elf/lib\libm.a(lib_a-s_scalbn.o)
 .debug_ranges  0x00003f40       0x40 c:/develop/altera/11.1/nios2eds/bin/gnu/h-i686-mingw32/bin/../lib/gcc/nios2-elf/4.1.2/../../../../nios2-elf/lib\libm.a(lib_a-e_acos.o)
 .debug_ranges  0x00003f80       0x30 c:/develop/altera/11.1/nios2eds/bin/gnu/h-i686-mingw32/bin/../lib/gcc/nios2-elf/4.1.2/../../../../nios2-elf/lib\libm.a(lib_a-e_asin.o)
 .debug_ranges  0x00003fb0       0x18 c:/develop/altera/11.1/nios2eds/bin/gnu/h-i686-mingw32/bin/../lib/gcc/nios2-elf/4.1.2/../../../../nios2-elf/lib\libm.a(lib_a-e_atan2.o)
 .debug_ranges  0x00003fc8       0x58 c:/develop/altera/11.1/nios2eds/bin/gnu/h-i686-mingw32/bin/../lib/gcc/nios2-elf/4.1.2/../../../../nios2-elf/lib\libm.a(lib_a-e_exp.o)
 .debug_ranges  0x00004020       0x18 c:/develop/altera/11.1/nios2eds/bin/gnu/h-i686-mingw32/bin/../lib/gcc/nios2-elf/4.1.2/../../../../nios2-elf/lib\libm.a(lib_a-e_fmod.o)
 .debug_ranges  0x00004038       0x38 c:/develop/altera/11.1/nios2eds/bin/gnu/h-i686-mingw32/bin/../lib/gcc/nios2-elf/4.1.2/../../../../nios2-elf/lib\libm.a(lib_a-e_log.o)
 .debug_ranges  0x00004070       0x18 c:/develop/altera/11.1/nios2eds/bin/gnu/h-i686-mingw32/bin/../lib/gcc/nios2-elf/4.1.2/../../../../nios2-elf/lib\libm.a(lib_a-e_log10.o)
 .debug_ranges  0x00004088      0x1d0 c:/develop/altera/11.1/nios2eds/bin/gnu/h-i686-mingw32/bin/../lib/gcc/nios2-elf/4.1.2/../../../../nios2-elf/lib\libm.a(lib_a-e_pow.o)
 .debug_ranges  0x00004258       0x40 c:/develop/altera/11.1/nios2eds/bin/gnu/h-i686-mingw32/bin/../lib/gcc/nios2-elf/4.1.2/../../../../nios2-elf/lib\libm.a(lib_a-e_rem_pio2.o)
 .debug_ranges  0x00004298       0x28 c:/develop/altera/11.1/nios2eds/bin/gnu/h-i686-mingw32/bin/../lib/gcc/nios2-elf/4.1.2/../../../../nios2-elf/lib\libm.a(lib_a-e_sqrt.o)
 .debug_ranges  0x000042c0       0x68 c:/develop/altera/11.1/nios2eds/bin/gnu/h-i686-mingw32/bin/../lib/gcc/nios2-elf/4.1.2/../../../../nios2-elf/lib\libm.a(lib_a-k_tan.o)
 .debug_ranges  0x00004328       0x18 c:/develop/altera/11.1/nios2eds/bin/gnu/h-i686-mingw32/bin/../lib/gcc/nios2-elf/4.1.2/../../../../nios2-elf/lib\libm.a(lib_a-s_copysign.o)
 .debug_ranges  0x00004340       0xc8 c:/develop/altera/11.1/nios2eds/bin/gnu/h-i686-mingw32/bin/../lib/gcc/nios2-elf/4.1.2/../../../../nios2-elf/lib\libm.a(lib_a-s_expm1.o)
 .debug_ranges  0x00004408       0x28 c:/develop/altera/11.1/nios2eds/bin/gnu/h-i686-mingw32/bin/../lib/gcc/nios2-elf/4.1.2/../../../../nios2-elf/lib\libm.a(lib_a-s_rint.o)
 .debug_ranges  0x00004430       0x30 c:/develop/altera/11.1/nios2eds/bin/gnu/h-i686-mingw32/bin/../lib/gcc/nios2-elf/4.1.2\libgcc.a(_addsub_df.o)
 .debug_ranges  0x00004460       0x88 c:/develop/altera/11.1/nios2eds/bin/gnu/h-i686-mingw32/bin/../lib/gcc/nios2-elf/4.1.2\libgcc.a(_mul_df.o)
 .debug_ranges  0x000044e8       0x50 c:/develop/altera/11.1/nios2eds/bin/gnu/h-i686-mingw32/bin/../lib/gcc/nios2-elf/4.1.2\libgcc.a(_div_df.o)
 .debug_ranges  0x00004538       0x18 c:/develop/altera/11.1/nios2eds/bin/gnu/h-i686-mingw32/bin/../lib/gcc/nios2-elf/4.1.2\libgcc.a(_usi_to_df.o)
 .debug_ranges  0x00004550       0x68 c:/develop/altera/11.1/nios2eds/bin/gnu/h-i686-mingw32/bin/../lib/gcc/nios2-elf/4.1.2\libgcc.a(_muldi3.o)
 .debug_ranges  0x000045b8       0x28 c:/develop/altera/11.1/nios2eds/bin/gnu/h-i686-mingw32/bin/../lib/gcc/nios2-elf/4.1.2\libgcc.a(_clzsi2.o)
 .debug_ranges  0x000045e0       0x28 c:/develop/altera/11.1/nios2eds/bin/gnu/h-i686-mingw32/bin/../lib/gcc/nios2-elf/4.1.2\libgcc.a(_pack_df.o)
 .debug_ranges  0x00004608       0x20 c:/develop/altera/11.1/nios2eds/bin/gnu/h-i686-mingw32/bin/../lib/gcc/nios2-elf/4.1.2/../../../../nios2-elf/lib\libc.a(lib_a-fflush.o)
 .debug_ranges  0x00004628       0x18 c:/develop/altera/11.1/nios2eds/bin/gnu/h-i686-mingw32/bin/../lib/gcc/nios2-elf/4.1.2/../../../../nios2-elf/lib\libc.a(lib_a-fread.o)
 .debug_ranges  0x00004640       0xa0 c:/develop/altera/11.1/nios2eds/bin/gnu/h-i686-mingw32/bin/../lib/gcc/nios2-elf/4.1.2/../../../../nios2-elf/lib\libc.a(lib_a-fwalk.o)
 .debug_ranges  0x000046e0       0x70 c:/develop/altera/11.1/nios2eds/bin/gnu/h-i686-mingw32/bin/../lib/gcc/nios2-elf/4.1.2/../../../../nios2-elf/lib\libc.a(lib_a-mallocr.o)
 .debug_ranges  0x00004750       0x60 c:/develop/altera/11.1/nios2eds/bin/gnu/h-i686-mingw32/bin/../lib/gcc/nios2-elf/4.1.2/../../../../nios2-elf/lib\libc.a(lib_a-mktime.o)
 .debug_ranges  0x000047b0       0x30 c:/develop/altera/11.1/nios2eds/bin/gnu/h-i686-mingw32/bin/../lib/gcc/nios2-elf/4.1.2/../../../../nios2-elf/lib\libc.a(lib_a-mktm_r.o)
 .debug_ranges  0x000047e0      0x110 c:/develop/altera/11.1/nios2eds/bin/gnu/h-i686-mingw32/bin/../lib/gcc/nios2-elf/4.1.2/../../../../nios2-elf/lib\libc.a(lib_a-reallocr.o)
 .debug_ranges  0x000048f0      0x130 c:/develop/altera/11.1/nios2eds/bin/gnu/h-i686-mingw32/bin/../lib/gcc/nios2-elf/4.1.2/../../../../nios2-elf/lib\libc.a(lib_a-strftime.o)
 .debug_ranges  0x00004a20      0x1b8 c:/develop/altera/11.1/nios2eds/bin/gnu/h-i686-mingw32/bin/../lib/gcc/nios2-elf/4.1.2/../../../../nios2-elf/lib\libc.a(lib_a-strstr.o)
 .debug_ranges  0x00004bd8       0x68 c:/develop/altera/11.1/nios2eds/bin/gnu/h-i686-mingw32/bin/../lib/gcc/nios2-elf/4.1.2/../../../../nios2-elf/lib\libc.a(lib_a-strtod.o)
 .debug_ranges  0x00004c40       0x18 c:/develop/altera/11.1/nios2eds/bin/gnu/h-i686-mingw32/bin/../lib/gcc/nios2-elf/4.1.2/../../../../nios2-elf/lib\libc.a(lib_a-tmpnam.o)
 .debug_ranges  0x00004c58      0x168 c:/develop/altera/11.1/nios2eds/bin/gnu/h-i686-mingw32/bin/../lib/gcc/nios2-elf/4.1.2/../../../../nios2-elf/lib\libc.a(lib_a-vfprintf.o)
 .debug_ranges  0x00004dc0       0xd0 c:/develop/altera/11.1/nios2eds/bin/gnu/h-i686-mingw32/bin/../lib/gcc/nios2-elf/4.1.2/../../../../nios2-elf/lib\libc.a(lib_a-vfscanf.o)
 .debug_ranges  0x00004e90       0x18 c:/develop/altera/11.1/nios2eds/bin/gnu/h-i686-mingw32/bin/../lib/gcc/nios2-elf/4.1.2/../../../../nios2-elf/lib\libc.a(lib_a-__call_atexit.o)
 .debug_ranges  0x00004ea8       0x28 c:/develop/altera/11.1/nios2eds/bin/gnu/h-i686-mingw32/bin/../lib/gcc/nios2-elf/4.1.2/../../../../nios2-elf/lib\libc.a(lib_a-fvwrite.o)
 .debug_ranges  0x00004ed0       0x50 c:/develop/altera/11.1/nios2eds/bin/gnu/h-i686-mingw32/bin/../lib/gcc/nios2-elf/4.1.2/../../../../nios2-elf/lib\libc.a(lib_a-gdtoa-gethex.o)
 .debug_ranges  0x00004f20       0x38 c:/develop/altera/11.1/nios2eds/bin/gnu/h-i686-mingw32/bin/../lib/gcc/nios2-elf/4.1.2/../../../../nios2-elf/lib\libc.a(lib_a-callocr.o)
 .debug_ranges  0x00004f58      0x188 c:/develop/altera/11.1/nios2eds/bin/gnu/h-i686-mingw32/bin/../lib/gcc/nios2-elf/4.1.2\libgcc.a(_udivdi3.o)
 .debug_ranges  0x000050e0      0x198 c:/develop/altera/11.1/nios2eds/bin/gnu/h-i686-mingw32/bin/../lib/gcc/nios2-elf/4.1.2\libgcc.a(_umoddi3.o)
 .debug_ranges  0x00005278       0x30 ../Cineraria_DE0_HAL_bsp/\libhal_bsp.a(alt_close.o)
 .debug_ranges  0x000052a8       0x18 ../Cineraria_DE0_HAL_bsp/\libhal_bsp.a(alt_fs_reg.o)
 .debug_ranges  0x000052c0       0x18 ../Cineraria_DE0_HAL_bsp/\libhal_bsp.a(alt_gettod.o)
 .debug_ranges  0x000052d8       0x18 ../Cineraria_DE0_HAL_bsp/\libhal_bsp.a(alt_kill.o)
 .debug_ranges  0x000052f0       0x18 ../Cineraria_DE0_HAL_bsp/\libhal_bsp.a(alt_lseek.o)
 .debug_ranges  0x00005308       0x18 ../Cineraria_DE0_HAL_bsp/\libhal_bsp.a(alt_open.o)
 .debug_ranges  0x00005320       0x48 ../Cineraria_DE0_HAL_bsp/\libhal_bsp.a(alt_read.o)
 .debug_ranges  0x00005368       0x18 ../Cineraria_DE0_HAL_bsp/\libhal_bsp.a(alt_times.o)
 .debug_ranges  0x00005380       0x48 ../Cineraria_DE0_HAL_bsp/\libhal_bsp.a(alt_write.o)
 .debug_ranges  0x000053c8       0x30 ../Cineraria_DE0_HAL_bsp/\libhal_bsp.a(alt_sys_init.o)
 .debug_ranges  0x000053f8       0x18 ../Cineraria_DE0_HAL_bsp/\libhal_bsp.a(altera_avalon_cfi_flash.o)
 .debug_ranges  0x00005410      0x228 ../Cineraria_DE0_HAL_bsp/\libhal_bsp.a(altera_avalon_epcs_flash_controller.o)
 .debug_ranges  0x00005638       0x18 ../Cineraria_DE0_HAL_bsp/\libhal_bsp.a(altera_avalon_jtag_uart_init.o)
 .debug_ranges  0x00005650       0x18 ../Cineraria_DE0_HAL_bsp/\libhal_bsp.a(altera_avalon_jtag_uart_ioctl.o)
 .debug_ranges  0x00005668       0x18 ../Cineraria_DE0_HAL_bsp/\libhal_bsp.a(altera_avalon_jtag_uart_read.o)
 .debug_ranges  0x00005680       0x48 ../Cineraria_DE0_HAL_bsp/\libhal_bsp.a(altera_avalon_jtag_uart_write.o)
 .debug_ranges  0x000056c8       0x18 ../Cineraria_DE0_HAL_bsp/\libhal_bsp.a(altera_avalon_timer_sc.o)
 .debug_ranges  0x000056e0       0x58 ../Cineraria_DE0_HAL_bsp/\libhal_bsp.a(altera_avalon_uart_init.o)
 .debug_ranges  0x00005738       0x60 ../Cineraria_DE0_HAL_bsp/\libhal_bsp.a(altera_avalon_uart_read.o)
 .debug_ranges  0x00005798       0x18 ../Cineraria_DE0_HAL_bsp/\libhal_bsp.a(altera_avalon_uart_write.o)
 .debug_ranges  0x000057b0       0x18 ../Cineraria_DE0_HAL_bsp/\libhal_bsp.a(alt_dev_llist_insert.o)
 .debug_ranges  0x000057c8       0x18 ../Cineraria_DE0_HAL_bsp/\libhal_bsp.a(alt_iic_isr_register.o)
 .debug_ranges  0x000057e0       0x28 ../Cineraria_DE0_HAL_bsp/\libhal_bsp.a(alt_irq_entry.o)
 .debug_ranges  0x00005808       0x40 ../Cineraria_DE0_HAL_bsp/\libhal_bsp.a(alt_irq_handler.o)
 .debug_ranges  0x00005848       0x68 ../Cineraria_DE0_HAL_bsp/\libhal_bsp.a(altera_avalon_cfi_flash_amd.o)
 .debug_ranges  0x000058b0       0x18 ../Cineraria_DE0_HAL_bsp/\libhal_bsp.a(altera_avalon_spi.o)
 .debug_ranges  0x000058c8       0x30 ../Cineraria_DE0_HAL_bsp/\libhal_bsp.a(alt_exception_entry.o)
